Mach header
      magic cputype cpusubtype  caps    filetype ncmds sizeofcmds      flags
   MH_MAGIC    I386        ALL  0x00     PRELOAD     8       1020   NOUNDEFS
/AppleInternal/BuildRoot/Library/Caches/com.apple.xbs/Binaries/AppleIntelGuCFramework/install/TempContent/Objects/GuC/clang/release/tgl/obj/GuC.bin.core:
Contents of (.uk_css_header,?) section
0000c000	06 00 00 00 a1 00 00 00 00 00 01 00 00 00 00 00 
0000c010	86 80 00 00 11 03 15 20 00 00 00 00 40 00 00 00 
0000c020	40 00 00 00 01 00 00 00 00 00 00 00 4e 55 4c 4c 
0000c030	00 00 00 00 31 2e 31 2e 30 2e 38 30 38 36 00 00 
0000c040	00 00 00 00 00 00 00 00 00 00 00 00 00 00 00 00 
0000c050	00 00 00 00 00 00 00 00 00 00 00 00 00 00 00 00 
0000c060	00 00 00 00 00 00 00 00 00 00 00 00 00 00 00 00 
0000c070	00 00 00 00 00 00 00 00 00 00 00 00 00 11 40 10 
/AppleInternal/BuildRoot/Library/Caches/com.apple.xbs/Binaries/AppleIntelGuCFramework/install/TempContent/Objects/GuC/clang/release/tgl/obj/GuC.bin.core:
Contents of (.stext,"ax") section
0000c080	bc fc 9f 00 00 e8 01 5c 00 00 66 b8 ad de f4 eb 
0000c090	fd 
/AppleInternal/BuildRoot/Library/Caches/com.apple.xbs/Binaries/AppleIntelGuCFramework/install/TempContent/Objects/GuC/clang/release/tgl/obj/GuC.bin.core:
Contents of (__DATA,__data) section
0000c0c0	00 00 00 00 00 00 00 00 ff 07 00 00 00 9b c0 00 
0000c0d0	01 00 00 00 00 97 c0 00 00 80 00 00 00 97 40 00 
0000c0e0	07 00 00 00 00 97 c0 00 1f ca 08 00 00 8e af de 
0000c0f0	1f ca 08 00 00 8e af de 1f ca 08 00 00 8e af de 
0000c100	1f ca 08 00 00 8e af de 1f ca 08 00 00 8e af de 
0000c110	1f ca 08 00 00 8e af de 1f ca 08 00 00 8e af de 
0000c120	1f ca 08 00 00 8e af de 1f ca 08 00 00 8e af de 
0000c130	1f ca 08 00 00 8e af de 1f ca 08 00 00 8e af de 
0000c140	1f ca 08 00 00 8e af de 1f ca 08 00 00 8e af de 
0000c150	1f ca 08 00 00 8e af de 1f ca 08 00 00 8e af de 
0000c160	1f ca 08 00 00 8e af de 1f ca 08 00 00 8e af de 
0000c170	1f ca 08 00 00 8e af de 1f ca 08 00 00 8e af de 
0000c180	1f ca 08 00 00 8e af de 1f ca 08 00 00 8e af de 
0000c190	1f ca 08 00 00 8e af de 1f ca 08 00 00 8e af de 
0000c1a0	1f ca 08 00 00 8e af de 1f ca 08 00 00 8e af de 
0000c1b0	1f ca 08 00 00 8e af de 1f ca 08 00 00 8e af de 
0000c1c0	1f ca 08 00 00 8e af de 1f ca 08 00 00 8e af de 
0000c1d0	1f ca 08 00 00 8e af de 1f ca 08 00 00 8e af de 
0000c1e0	1f ca 08 00 00 8e af de 1f ca 08 00 00 8e af de 
0000c1f0	1f ca 08 00 00 8e af de 1f ca 08 00 00 8e af de 
0000c200	1f ca 08 00 00 8e af de 1f ca 08 00 00 8e af de 
0000c210	1f ca 08 00 00 8e af de 1f ca 08 00 00 8e af de 
0000c220	1f ca 08 00 00 8e af de 1f ca 08 00 00 8e af de 
0000c230	1f ca 08 00 00 8e af de 1f ca 08 00 00 8e af de 
0000c240	1f ca 08 00 00 8e af de 1f ca 08 00 00 8e af de 
0000c250	1f ca 08 00 00 8e af de 1f ca 08 00 00 8e af de 
0000c260	1f ca 08 00 00 8e af de 1f ca 08 00 00 8e af de 
0000c270	1f ca 08 00 00 8e af de 1f ca 08 00 00 8e af de 
0000c280	1f ca 08 00 00 8e af de 1f ca 08 00 00 8e af de 
0000c290	1f ca 08 00 00 8e af de 1f ca 08 00 00 8e af de 
0000c2a0	1f ca 08 00 00 8e af de 1f ca 08 00 00 8e af de 
0000c2b0	1f ca 08 00 00 8e af de 1f ca 08 00 00 8e af de 
0000c2c0	1f ca 08 00 00 8e af de 1f ca 08 00 00 8e af de 
0000c2d0	1f ca 08 00 00 8e af de 1f ca 08 00 00 8e af de 
0000c2e0	1f ca 08 00 00 8e af de 1f ca 08 00 00 8e af de 
0000c2f0	1f ca 08 00 00 8e af de 1f ca 08 00 00 8e af de 
0000c300	1f ca 08 00 00 8e af de 1f ca 08 00 00 8e af de 
0000c310	1f ca 08 00 00 8e af de 1f ca 08 00 00 8e af de 
0000c320	1f ca 08 00 00 8e af de 1f ca 08 00 00 8e af de 
0000c330	1f ca 08 00 00 8e af de 1f ca 08 00 00 8e af de 
0000c340	1f ca 08 00 00 8e af de 1f ca 08 00 00 8e af de 
0000c350	1f ca 08 00 00 8e af de 1f ca 08 00 00 8e af de 
0000c360	1f ca 08 00 00 8e af de 1f ca 08 00 00 8e af de 
0000c370	1f ca 08 00 00 8e af de 1f ca 08 00 00 8e af de 
0000c380	1f ca 08 00 00 8e af de 1f ca 08 00 00 8e af de 
0000c390	1f ca 08 00 00 8e af de 1f ca 08 00 00 8e af de 
0000c3a0	1f ca 08 00 00 8e af de 1f ca 08 00 00 8e af de 
0000c3b0	1f ca 08 00 00 8e af de 1f ca 08 00 00 8e af de 
0000c3c0	1f ca 08 00 00 8e af de 1f ca 08 00 00 8e af de 
0000c3d0	1f ca 08 00 00 8e af de 1f ca 08 00 00 8e af de 
0000c3e0	1f ca 08 00 00 8e af de 1f ca 08 00 00 8e af de 
0000c3f0	1f ca 08 00 00 8e af de 1f ca 08 00 00 8e af de 
0000c400	1f ca 08 00 00 8e af de 1f ca 08 00 00 8e af de 
0000c410	1f ca 08 00 00 8e af de 1f ca 08 00 00 8e af de 
0000c420	1f ca 08 00 00 8e af de 1f ca 08 00 00 8e af de 
0000c430	1f ca 08 00 00 8e af de 1f ca 08 00 00 8e af de 
0000c440	1f ca 08 00 00 8e af de 1f ca 08 00 00 8e af de 
0000c450	1f ca 08 00 00 8e af de 1f ca 08 00 00 8e af de 
0000c460	1f ca 08 00 00 8e af de 1f ca 08 00 00 8e af de 
0000c470	1f ca 08 00 00 8e af de 1f ca 08 00 00 8e af de 
0000c480	1f ca 08 00 00 8e af de 1f ca 08 00 00 8e af de 
0000c490	1f ca 08 00 00 8e af de 1f ca 08 00 00 8e af de 
0000c4a0	1f ca 08 00 00 8e af de 1f ca 08 00 00 8e af de 
0000c4b0	1f ca 08 00 00 8e af de 1f ca 08 00 00 8e af de 
0000c4c0	1f ca 08 00 00 8e af de 1f ca 08 00 00 8e af de 
0000c4d0	1f ca 08 00 00 8e af de 1f ca 08 00 00 8e af de 
0000c4e0	1f ca 08 00 00 8e af de 1f ca 08 00 00 8e af de 
0000c4f0	1f ca 08 00 00 8e af de 1f ca 08 00 00 8e af de 
0000c500	1f ca 08 00 00 8e af de 1f ca 08 00 00 8e af de 
0000c510	1f ca 08 00 00 8e af de 1f ca 08 00 00 8e af de 
0000c520	1f ca 08 00 00 8e af de 1f ca 08 00 00 8e af de 
0000c530	1f ca 08 00 00 8e af de 1f ca 08 00 00 8e af de 
0000c540	1f ca 08 00 00 8e af de 1f ca 08 00 00 8e af de 
0000c550	1f ca 08 00 00 8e af de 1f ca 08 00 00 8e af de 
0000c560	1f ca 08 00 00 8e af de 1f ca 08 00 00 8e af de 
0000c570	1f ca 08 00 00 8e af de 1f ca 08 00 00 8e af de 
0000c580	1f ca 08 00 00 8e af de 1f ca 08 00 00 8e af de 
0000c590	1f ca 08 00 00 8e af de 1f ca 08 00 00 8e af de 
0000c5a0	1f ca 08 00 00 8e af de 1f ca 08 00 00 8e af de 
0000c5b0	1f ca 08 00 00 8e af de 1f ca 08 00 00 8e af de 
0000c5c0	1f ca 08 00 00 8e af de 1f ca 08 00 00 8e af de 
0000c5d0	1f ca 08 00 00 8e af de 1f ca 08 00 00 8e af de 
0000c5e0	1f ca 08 00 00 8e af de 1f ca 08 00 00 8e af de 
0000c5f0	1f ca 08 00 00 8e af de 1f ca 08 00 00 8e af de 
0000c600	1f ca 08 00 00 8e af de 1f ca 08 00 00 8e af de 
0000c610	1f ca 08 00 00 8e af de 1f ca 08 00 00 8e af de 
0000c620	1f ca 08 00 00 8e af de 1f ca 08 00 00 8e af de 
0000c630	1f ca 08 00 00 8e af de 1f ca 08 00 00 8e af de 
0000c640	1f ca 08 00 00 8e af de 1f ca 08 00 00 8e af de 
0000c650	1f ca 08 00 00 8e af de 1f ca 08 00 00 8e af de 
0000c660	1f ca 08 00 00 8e af de 1f ca 08 00 00 8e af de 
0000c670	1f ca 08 00 00 8e af de 1f ca 08 00 00 8e af de 
0000c680	1f ca 08 00 00 8e af de 1f ca 08 00 00 8e af de 
0000c690	1f ca 08 00 00 8e af de 1f ca 08 00 00 8e af de 
0000c6a0	1f ca 08 00 00 8e af de 1f ca 08 00 00 8e af de 
0000c6b0	1f ca 08 00 00 8e af de 1f ca 08 00 00 8e af de 
0000c6c0	1f ca 08 00 00 8e af de 1f ca 08 00 00 8e af de 
0000c6d0	1f ca 08 00 00 8e af de 1f ca 08 00 00 8e af de 
0000c6e0	1f ca 08 00 00 8e af de 1f ca 08 00 00 8e af de 
0000c6f0	1f ca 08 00 00 8e af de 1f ca 08 00 00 8e af de 
0000c700	1f ca 08 00 00 8e af de 1f ca 08 00 00 8e af de 
0000c710	1f ca 08 00 00 8e af de 1f ca 08 00 00 8e af de 
0000c720	1f ca 08 00 00 8e af de 1f ca 08 00 00 8e af de 
0000c730	1f ca 08 00 00 8e af de 1f ca 08 00 00 8e af de 
0000c740	1f ca 08 00 00 8e af de 1f ca 08 00 00 8e af de 
0000c750	1f ca 08 00 00 8e af de 1f ca 08 00 00 8e af de 
0000c760	1f ca 08 00 00 8e af de 1f ca 08 00 00 8e af de 
0000c770	1f ca 08 00 00 8e af de 1f ca 08 00 00 8e af de 
0000c780	1f ca 08 00 00 8e af de 1f ca 08 00 00 8e af de 
0000c790	1f ca 08 00 00 8e af de 1f ca 08 00 00 8e af de 
0000c7a0	1f ca 08 00 00 8e af de 1f ca 08 00 00 8e af de 
0000c7b0	1f ca 08 00 00 8e af de 1f ca 08 00 00 8e af de 
0000c7c0	1f ca 08 00 00 8e af de 1f ca 08 00 00 8e af de 
0000c7d0	1f ca 08 00 00 8e af de 1f ca 08 00 00 8e af de 
0000c7e0	1f ca 08 00 00 8e af de 1f ca 08 00 00 8e af de 
0000c7f0	1f ca 08 00 00 8e af de 1f ca 08 00 00 8e af de 
0000c800	1f ca 08 00 00 8e af de 1f ca 08 00 00 8e af de 
0000c810	1f ca 08 00 00 8e af de 1f ca 08 00 00 8e af de 
0000c820	1f ca 08 00 00 8e af de 1f ca 08 00 00 8e af de 
0000c830	1f ca 08 00 00 8e af de 1f ca 08 00 00 8e af de 
0000c840	1f ca 08 00 00 8e af de 1f ca 08 00 00 8e af de 
0000c850	1f ca 08 00 00 8e af de 1f ca 08 00 00 8e af de 
0000c860	1f ca 08 00 00 8e af de 1f ca 08 00 00 8e af de 
0000c870	1f ca 08 00 00 8e af de 1f ca 08 00 00 8e af de 
0000c880	1f ca 08 00 00 8e af de 1f ca 08 00 00 8e af de 
0000c890	1f ca 08 00 00 8e af de 1f ca 08 00 00 8e af de 
0000c8a0	1f ca 08 00 00 8e af de 1f ca 08 00 00 8e af de 
0000c8b0	1f ca 08 00 00 8e af de 1f ca 08 00 00 8e af de 
0000c8c0	1f ca 08 00 00 8e af de 1f ca 08 00 00 8e af de 
0000c8d0	1f ca 08 00 00 8e af de 1f ca 08 00 00 8e af de 
0000c8e0	1f ca 08 00 00 8e af de 
/AppleInternal/BuildRoot/Library/Caches/com.apple.xbs/Binaries/AppleIntelGuCFramework/install/TempContent/Objects/GuC/clang/release/tgl/obj/GuC.bin.core:
Contents of (__DATA,__bss) section
zerofill section and has no contents in the file
/AppleInternal/BuildRoot/Library/Caches/com.apple.xbs/Binaries/AppleIntelGuCFramework/install/TempContent/Objects/GuC/clang/release/tgl/obj/GuC.bin.core:
(__TEXT,__text) section
_default_isr:
00010d40	fa	cli
00010d41	60	pushal
00010d42	e8 a9 4e 00 00	calll	_UkDefaultISRHandler
00010d47	61	popal
00010d48	cf	iretl
_isr0x00:
00010d49	fa	cli
00010d4a	6a 00	pushl	$0x0
00010d4c	6a 00	pushl	$0x0
00010d4e	e9 f2 00 00 00	jmp	_isr_comm
_isr0x01:
00010d53	fa	cli
00010d54	6a 00	pushl	$0x0
00010d56	6a 01	pushl	$0x1
00010d58	e9 e8 00 00 00	jmp	_isr_comm
_isr0x02:
00010d5d	fa	cli
00010d5e	6a 00	pushl	$0x0
00010d60	6a 02	pushl	$0x2
00010d62	e9 de 00 00 00	jmp	_isr_comm
_isr0x03:
00010d67	fa	cli
00010d68	6a 00	pushl	$0x0
00010d6a	6a 03	pushl	$0x3
00010d6c	e9 d4 00 00 00	jmp	_isr_comm
_isr0x04:
00010d71	fa	cli
00010d72	6a 00	pushl	$0x0
00010d74	6a 04	pushl	$0x4
00010d76	e9 ca 00 00 00	jmp	_isr_comm
_isr0x05:
00010d7b	fa	cli
00010d7c	6a 00	pushl	$0x0
00010d7e	6a 05	pushl	$0x5
00010d80	e9 c0 00 00 00	jmp	_isr_comm
_isr0x06:
00010d85	fa	cli
00010d86	6a 00	pushl	$0x0
00010d88	6a 06	pushl	$0x6
00010d8a	e9 b6 00 00 00	jmp	_isr_comm
_isr0x07:
00010d8f	fa	cli
00010d90	6a 00	pushl	$0x0
00010d92	6a 07	pushl	$0x7
00010d94	e9 ac 00 00 00	jmp	_isr_comm
_isr0x08:
00010d99	fa	cli
00010d9a	6a 08	pushl	$0x8
00010d9c	e9 a4 00 00 00	jmp	_isr_comm
_isr0x09:
00010da1	fa	cli
00010da2	6a 00	pushl	$0x0
00010da4	6a 09	pushl	$0x9
00010da6	e9 9a 00 00 00	jmp	_isr_comm
_isr0x0a:
00010dab	fa	cli
00010dac	6a 0a	pushl	$0xa
00010dae	e9 92 00 00 00	jmp	_isr_comm
_isr0x0b:
00010db3	fa	cli
00010db4	6a 0b	pushl	$0xb
00010db6	e9 8a 00 00 00	jmp	_isr_comm
_isr0x0c:
00010dbb	fa	cli
00010dbc	6a 0c	pushl	$0xc
00010dbe	e9 82 00 00 00	jmp	_isr_comm
_isr0x0d:
00010dc3	fa	cli
00010dc4	6a 0d	pushl	$0xd
00010dc6	eb 7d	jmp	_isr_comm
_isr0x0e:
00010dc8	fa	cli
00010dc9	6a 0e	pushl	$0xe
00010dcb	eb 78	jmp	_isr_comm
_isr0x10:
00010dcd	fa	cli
00010dce	6a 00	pushl	$0x0
00010dd0	6a 10	pushl	$0x10
00010dd2	eb 71	jmp	_isr_comm
_isr0x11:
00010dd4	fa	cli
00010dd5	6a 11	pushl	$0x11
00010dd7	eb 6c	jmp	_isr_comm
_isr0x12:
00010dd9	fa	cli
00010dda	6a 00	pushl	$0x0
00010ddc	6a 12	pushl	$0x12
00010dde	eb 65	jmp	_isr_comm
_isr0x13:
00010de0	fa	cli
00010de1	6a 00	pushl	$0x0
00010de3	6a 13	pushl	$0x13
00010de5	eb 5e	jmp	_isr_comm
_isr0x14:
00010de7	fa	cli
00010de8	6a 00	pushl	$0x0
00010dea	6a 14	pushl	$0x14
00010dec	eb 57	jmp	_isr_comm
_isr0x15:
00010dee	fa	cli
00010def	6a 00	pushl	$0x0
00010df1	6a 15	pushl	$0x15
00010df3	eb 50	jmp	_isr_comm
_isr0x16:
00010df5	fa	cli
00010df6	6a 00	pushl	$0x0
00010df8	6a 16	pushl	$0x16
00010dfa	eb 49	jmp	_isr_comm
_isr0x17:
00010dfc	fa	cli
00010dfd	6a 00	pushl	$0x0
00010dff	6a 17	pushl	$0x17
00010e01	eb 42	jmp	_isr_comm
_isr0x18:
00010e03	fa	cli
00010e04	6a 00	pushl	$0x0
00010e06	6a 18	pushl	$0x18
00010e08	eb 3b	jmp	_isr_comm
_isr0x19:
00010e0a	fa	cli
00010e0b	6a 00	pushl	$0x0
00010e0d	6a 19	pushl	$0x19
00010e0f	eb 34	jmp	_isr_comm
_isr0x1a:
00010e11	fa	cli
00010e12	6a 00	pushl	$0x0
00010e14	6a 1a	pushl	$0x1a
00010e16	eb 2d	jmp	_isr_comm
_isr0x1b:
00010e18	fa	cli
00010e19	6a 00	pushl	$0x0
00010e1b	6a 1b	pushl	$0x1b
00010e1d	eb 26	jmp	_isr_comm
_isr0x1c:
00010e1f	fa	cli
00010e20	6a 00	pushl	$0x0
00010e22	6a 1c	pushl	$0x1c
00010e24	eb 1f	jmp	_isr_comm
_isr0x1d:
00010e26	fa	cli
00010e27	6a 00	pushl	$0x0
00010e29	6a 1d	pushl	$0x1d
00010e2b	eb 18	jmp	_isr_comm
_isr0x1e:
00010e2d	fa	cli
00010e2e	6a 00	pushl	$0x0
00010e30	6a 1e	pushl	$0x1e
00010e32	eb 11	jmp	_isr_comm
_isr0x1f:
00010e34	fa	cli
00010e35	6a 00	pushl	$0x0
00010e37	6a 1f	pushl	$0x1f
00010e39	eb 0a	jmp	_isr_comm
_isr0xff:
00010e3b	fa	cli
00010e3c	6a 00	pushl	$0x0
00010e3e	68 ff 00 00 00	pushl	$SPURIOUS_VECTOR
00010e43	eb 0b	jmp	_isr_spurious_handler
_isr_comm:
00010e45	60	pushal
00010e46	e8 79 4d 00 00	calll	_UkISRHandler
00010e4b	61	popal
00010e4c	83 c4 08	addl	$0x8, %esp
00010e4f	cf	iretl
_isr_spurious_handler:
00010e50	60	pushal
00010e51	e8 a5 4d 00 00	calll	_UkSpuriousVectorHandler
00010e56	61	popal
00010e57	83 c4 08	addl	$0x8, %esp
00010e5a	cf	iretl
_UkAsmInstallGdt:
00010e5b	8b 44 24 04	movl	0x4(%esp), %eax
00010e5f	0f 01 10	lgdtl	P24C_SW_1ST_VECTOR_NUM(%eax)
00010e62	66 b8 10 00	movw	$BOOTDATA_SEL, %ax
00010e66	8e d8	movl	%eax, %ds
00010e68	8e c0	movl	%eax, %es
00010e6a	8e e0	movl	%eax, %fs
00010e6c	8e e8	movl	%eax, %gs
00010e6e	66 b8 18 00	movw	$STACK_SEL, %ax
00010e72	8e d0	movl	%eax, %ss
00010e74	ea 7b 0e 01 00 08 00	ljmpl	$DB_TO_LAPIC_GRP4, $done
done:
00010e7b	c3	retl
_UkAsmEnableBootRomData:
00010e7c	66 b8 10 00	movw	$BOOTDATA_SEL, %ax
00010e80	8e d8	movl	%eax, %ds
00010e82	c3	retl
_UkAsmDisableBootRomData:
00010e83	66 b8 20 00	movw	$P24C_SELF_IPI_VECTOR, %ax
00010e87	8e d8	movl	%eax, %ds
00010e89	c3	retl
_isr_DB_VECTOR_1:
00010e8a	fa	cli
00010e8b	60	pushal
00010e8c	68 88 00 00 00	pushl	$DB_VECTOR_1
00010e91	0f ba 2d 00 c0 e0 ff 12	btsl	$0x12, -0x1f4000
00010e99	0f ba 35 00 c0 e0 ff 11	btrl	$0x11, -0x1f4000
00010ea1	e8 56 4d 00 00	calll	_UkDoorbellHandler
00010ea6	0f ba 35 00 c0 e0 ff 12	btrl	$0x12, -0x1f4000
00010eae	83 c4 04	addl	$0x4, %esp
00010eb1	61	popal
00010eb2	cf	iretl
_isr_DB_VECTOR_2:
00010eb3	fa	cli
00010eb4	60	pushal
00010eb5	68 89 00 00 00	pushl	$DB_VECTOR_2
00010eba	0f ba 2d 00 c0 e0 ff 12	btsl	$0x12, -0x1f4000
00010ec2	0f ba 35 00 c0 e0 ff 11	btrl	$0x11, -0x1f4000
00010eca	e8 2d 4d 00 00	calll	_UkDoorbellHandler
00010ecf	0f ba 35 00 c0 e0 ff 12	btrl	$0x12, -0x1f4000
00010ed7	83 c4 04	addl	$0x4, %esp
00010eda	61	popal
00010edb	cf	iretl
_isr_DB_VECTOR_3:
00010edc	fa	cli
00010edd	60	pushal
00010ede	68 8a 00 00 00	pushl	$DB_VECTOR_3
00010ee3	0f ba 2d 00 c0 e0 ff 12	btsl	$0x12, -0x1f4000
00010eeb	0f ba 35 00 c0 e0 ff 11	btrl	$0x11, -0x1f4000
00010ef3	e8 04 4d 00 00	calll	_UkDoorbellHandler
00010ef8	0f ba 35 00 c0 e0 ff 12	btrl	$0x12, -0x1f4000
00010f00	83 c4 04	addl	$0x4, %esp
00010f03	61	popal
00010f04	cf	iretl
_isr_DB_VECTOR_4:
00010f05	fa	cli
00010f06	60	pushal
00010f07	68 8b 00 00 00	pushl	$DB_VECTOR_4
00010f0c	0f ba 2d 00 c0 e0 ff 12	btsl	$0x12, -0x1f4000
00010f14	0f ba 35 00 c0 e0 ff 11	btrl	$0x11, -0x1f4000
00010f1c	e8 db 4c 00 00	calll	_UkDoorbellHandler
00010f21	0f ba 35 00 c0 e0 ff 12	btrl	$0x12, -0x1f4000
00010f29	83 c4 04	addl	$0x4, %esp
00010f2c	61	popal
00010f2d	cf	iretl
_isr_DB_VECTOR_5:
00010f2e	fa	cli
00010f2f	60	pushal
00010f30	68 9c 00 00 00	pushl	$DB_VECTOR_5
00010f35	0f ba 2d 00 c0 e0 ff 12	btsl	$0x12, -0x1f4000
00010f3d	0f ba 35 00 c0 e0 ff 11	btrl	$0x11, -0x1f4000
00010f45	e8 b2 4c 00 00	calll	_UkDoorbellHandler
00010f4a	0f ba 35 00 c0 e0 ff 12	btrl	$0x12, -0x1f4000
00010f52	83 c4 04	addl	$0x4, %esp
00010f55	61	popal
00010f56	cf	iretl
_isr_DB_VECTOR_6:
00010f57	fa	cli
00010f58	60	pushal
00010f59	68 9d 00 00 00	pushl	$DB_VECTOR_6
00010f5e	0f ba 2d 00 c0 e0 ff 12	btsl	$0x12, -0x1f4000
00010f66	0f ba 35 00 c0 e0 ff 11	btrl	$0x11, -0x1f4000
00010f6e	e8 89 4c 00 00	calll	_UkDoorbellHandler
00010f73	0f ba 35 00 c0 e0 ff 12	btrl	$0x12, -0x1f4000
00010f7b	83 c4 04	addl	$0x4, %esp
00010f7e	61	popal
00010f7f	cf	iretl
_isr_DB_VECTOR_7:
00010f80	fa	cli
00010f81	60	pushal
00010f82	68 9e 00 00 00	pushl	$DB_VECTOR_7
00010f87	0f ba 2d 00 c0 e0 ff 12	btsl	$0x12, -0x1f4000
00010f8f	0f ba 35 00 c0 e0 ff 11	btrl	$0x11, -0x1f4000
00010f97	e8 60 4c 00 00	calll	_UkDoorbellHandler
00010f9c	0f ba 35 00 c0 e0 ff 12	btrl	$0x12, -0x1f4000
00010fa4	83 c4 04	addl	$0x4, %esp
00010fa7	61	popal
00010fa8	cf	iretl
_isr_DB_VECTOR_8:
00010fa9	fa	cli
00010faa	60	pushal
00010fab	68 9f 00 00 00	pushl	$DB_VECTOR_8
00010fb0	0f ba 2d 00 c0 e0 ff 12	btsl	$0x12, -0x1f4000
00010fb8	0f ba 35 00 c0 e0 ff 11	btrl	$0x11, -0x1f4000
00010fc0	e8 37 4c 00 00	calll	_UkDoorbellHandler
00010fc5	0f ba 35 00 c0 e0 ff 12	btrl	$0x12, -0x1f4000
00010fcd	83 c4 04	addl	$0x4, %esp
00010fd0	61	popal
00010fd1	cf	iretl
_isr_DMA_TIMER_VECTOR_1:
00010fd2	fa	cli
00010fd3	60	pushal
00010fd4	68 d0 00 00 00	pushl	$DMA_TIMER_VECTOR_1
00010fd9	0f ba 2d 00 c0 e0 ff 12	btsl	$0x12, -0x1f4000
00010fe1	0f ba 35 00 c0 e0 ff 11	btrl	$0x11, -0x1f4000
00010fe9	e8 0d 4e 00 00	calll	_UkDMATimerHandler
00010fee	0f ba 35 00 c0 e0 ff 12	btrl	$0x12, -0x1f4000
00010ff6	83 c4 04	addl	$0x4, %esp
00010ff9	61	popal
00010ffa	cf	iretl
_isr_DMA_TIMER_VECTOR_2:
00010ffb	fa	cli
00010ffc	60	pushal
00010ffd	68 d1 00 00 00	pushl	$DMA_TIMER_VECTOR_2
00011002	0f ba 2d 00 c0 e0 ff 12	btsl	$0x12, -0x1f4000
0001100a	0f ba 35 00 c0 e0 ff 11	btrl	$0x11, -0x1f4000
00011012	e8 e4 4d 00 00	calll	_UkDMATimerHandler
00011017	0f ba 35 00 c0 e0 ff 12	btrl	$0x12, -0x1f4000
0001101f	83 c4 04	addl	$0x4, %esp
00011022	61	popal
00011023	cf	iretl
_isr_DMA_TIMER_VECTOR_3:
00011024	fa	cli
00011025	60	pushal
00011026	68 d2 00 00 00	pushl	$DMA_TIMER_VECTOR_3
0001102b	0f ba 2d 00 c0 e0 ff 12	btsl	$0x12, -0x1f4000
00011033	0f ba 35 00 c0 e0 ff 11	btrl	$0x11, -0x1f4000
0001103b	e8 bb 4d 00 00	calll	_UkDMATimerHandler
00011040	0f ba 35 00 c0 e0 ff 12	btrl	$0x12, -0x1f4000
00011048	83 c4 04	addl	$0x4, %esp
0001104b	61	popal
0001104c	cf	iretl
_isr_DMA_TIMER_VECTOR_4:
0001104d	fa	cli
0001104e	60	pushal
0001104f	68 d3 00 00 00	pushl	$DMA_TIMER_VECTOR_4
00011054	0f ba 2d 00 c0 e0 ff 12	btsl	$0x12, -0x1f4000
0001105c	0f ba 35 00 c0 e0 ff 11	btrl	$0x11, -0x1f4000
00011064	e8 92 4d 00 00	calll	_UkDMATimerHandler
00011069	0f ba 35 00 c0 e0 ff 12	btrl	$0x12, -0x1f4000
00011071	83 c4 04	addl	$0x4, %esp
00011074	61	popal
00011075	cf	iretl
_isr_DMA_TIMER_VECTOR_5:
00011076	fa	cli
00011077	60	pushal
00011078	68 d4 00 00 00	pushl	$DMA_TIMER_VECTOR_5
0001107d	0f ba 2d 00 c0 e0 ff 12	btsl	$0x12, -0x1f4000
00011085	0f ba 35 00 c0 e0 ff 11	btrl	$0x11, -0x1f4000
0001108d	e8 69 4d 00 00	calll	_UkDMATimerHandler
00011092	0f ba 35 00 c0 e0 ff 12	btrl	$0x12, -0x1f4000
0001109a	83 c4 04	addl	$0x4, %esp
0001109d	61	popal
0001109e	cf	iretl
_isr_DMA_TIMER_VECTOR_6:
0001109f	fa	cli
000110a0	60	pushal
000110a1	68 d5 00 00 00	pushl	$DMA_TIMER_VECTOR_6
000110a6	0f ba 2d 00 c0 e0 ff 12	btsl	$0x12, -0x1f4000
000110ae	0f ba 35 00 c0 e0 ff 11	btrl	$0x11, -0x1f4000
000110b6	e8 40 4d 00 00	calll	_UkDMATimerHandler
000110bb	0f ba 35 00 c0 e0 ff 12	btrl	$0x12, -0x1f4000
000110c3	83 c4 04	addl	$0x4, %esp
000110c6	61	popal
000110c7	cf	iretl
_isr_DMA_TIMER_VECTOR_7:
000110c8	fa	cli
000110c9	60	pushal
000110ca	68 d6 00 00 00	pushl	$DMA_TIMER_VECTOR_7
000110cf	0f ba 2d 00 c0 e0 ff 12	btsl	$0x12, -0x1f4000
000110d7	0f ba 35 00 c0 e0 ff 11	btrl	$0x11, -0x1f4000
000110df	e8 17 4d 00 00	calll	_UkDMATimerHandler
000110e4	0f ba 35 00 c0 e0 ff 12	btrl	$0x12, -0x1f4000
000110ec	83 c4 04	addl	$0x4, %esp
000110ef	61	popal
000110f0	cf	iretl
_isr_DMA_TIMER_VECTOR_8:
000110f1	fa	cli
000110f2	60	pushal
000110f3	68 d7 00 00 00	pushl	$DMA_TIMER_VECTOR_8
000110f8	0f ba 2d 00 c0 e0 ff 12	btsl	$0x12, -0x1f4000
00011100	0f ba 35 00 c0 e0 ff 11	btrl	$0x11, -0x1f4000
00011108	e8 ee 4c 00 00	calll	_UkDMATimerHandler
0001110d	0f ba 35 00 c0 e0 ff 12	btrl	$0x12, -0x1f4000
00011115	83 c4 04	addl	$0x4, %esp
00011118	61	popal
00011119	cf	iretl
_isr_DMA_TIMER_VECTOR_9:
0001111a	fa	cli
0001111b	60	pushal
0001111c	68 d8 00 00 00	pushl	$DMA_TIMER_VECTOR_9
00011121	0f ba 2d 00 c0 e0 ff 12	btsl	$0x12, -0x1f4000
00011129	0f ba 35 00 c0 e0 ff 11	btrl	$0x11, -0x1f4000
00011131	e8 c5 4c 00 00	calll	_UkDMATimerHandler
00011136	0f ba 35 00 c0 e0 ff 12	btrl	$0x12, -0x1f4000
0001113e	83 c4 04	addl	$0x4, %esp
00011141	61	popal
00011142	cf	iretl
_isr_DMA_TIMER_VECTOR_10:
00011143	fa	cli
00011144	60	pushal
00011145	68 d9 00 00 00	pushl	$DMA_TIMER_VECTOR_10
0001114a	0f ba 2d 00 c0 e0 ff 12	btsl	$0x12, -0x1f4000
00011152	0f ba 35 00 c0 e0 ff 11	btrl	$0x11, -0x1f4000
0001115a	e8 9c 4c 00 00	calll	_UkDMATimerHandler
0001115f	0f ba 35 00 c0 e0 ff 12	btrl	$0x12, -0x1f4000
00011167	83 c4 04	addl	$0x4, %esp
0001116a	61	popal
0001116b	cf	iretl
_isr_DMA_TIMER_VECTOR_11:
0001116c	fa	cli
0001116d	60	pushal
0001116e	68 da 00 00 00	pushl	$DMA_TIMER_VECTOR_11
00011173	0f ba 2d 00 c0 e0 ff 12	btsl	$0x12, -0x1f4000
0001117b	0f ba 35 00 c0 e0 ff 11	btrl	$0x11, -0x1f4000
00011183	e8 73 4c 00 00	calll	_UkDMATimerHandler
00011188	0f ba 35 00 c0 e0 ff 12	btrl	$0x12, -0x1f4000
00011190	83 c4 04	addl	$0x4, %esp
00011193	61	popal
00011194	cf	iretl
_isr_DMA_TIMER_VECTOR_12:
00011195	fa	cli
00011196	60	pushal
00011197	68 db 00 00 00	pushl	$DMA_TIMER_VECTOR_12
0001119c	0f ba 2d 00 c0 e0 ff 12	btsl	$0x12, -0x1f4000
000111a4	0f ba 35 00 c0 e0 ff 11	btrl	$0x11, -0x1f4000
000111ac	e8 4a 4c 00 00	calll	_UkDMATimerHandler
000111b1	0f ba 35 00 c0 e0 ff 12	btrl	$0x12, -0x1f4000
000111b9	83 c4 04	addl	$0x4, %esp
000111bc	61	popal
000111bd	cf	iretl
_isr_DMA_TIMER_VECTOR_13:
000111be	fa	cli
000111bf	60	pushal
000111c0	68 dc 00 00 00	pushl	$DMA_TIMER_VECTOR_13
000111c5	0f ba 2d 00 c0 e0 ff 12	btsl	$0x12, -0x1f4000
000111cd	0f ba 35 00 c0 e0 ff 11	btrl	$0x11, -0x1f4000
000111d5	e8 21 4c 00 00	calll	_UkDMATimerHandler
000111da	0f ba 35 00 c0 e0 ff 12	btrl	$0x12, -0x1f4000
000111e2	83 c4 04	addl	$0x4, %esp
000111e5	61	popal
000111e6	cf	iretl
_isr_DMA_TIMER_VECTOR_14:
000111e7	fa	cli
000111e8	60	pushal
000111e9	68 dd 00 00 00	pushl	$DMA_TIMER_VECTOR_14
000111ee	0f ba 2d 00 c0 e0 ff 12	btsl	$0x12, -0x1f4000
000111f6	0f ba 35 00 c0 e0 ff 11	btrl	$0x11, -0x1f4000
000111fe	e8 f8 4b 00 00	calll	_UkDMATimerHandler
00011203	0f ba 35 00 c0 e0 ff 12	btrl	$0x12, -0x1f4000
0001120b	83 c4 04	addl	$0x4, %esp
0001120e	61	popal
0001120f	cf	iretl
_isr_DMA_TIMER_VECTOR_15:
00011210	fa	cli
00011211	60	pushal
00011212	68 de 00 00 00	pushl	$DMA_TIMER_VECTOR_15
00011217	0f ba 2d 00 c0 e0 ff 12	btsl	$0x12, -0x1f4000
0001121f	0f ba 35 00 c0 e0 ff 11	btrl	$0x11, -0x1f4000
00011227	e8 cf 4b 00 00	calll	_UkDMATimerHandler
0001122c	0f ba 35 00 c0 e0 ff 12	btrl	$0x12, -0x1f4000
00011234	83 c4 04	addl	$0x4, %esp
00011237	61	popal
00011238	cf	iretl
_isr_DMA_TIMER_VECTOR_16:
00011239	fa	cli
0001123a	60	pushal
0001123b	68 df 00 00 00	pushl	$DMA_TIMER_VECTOR_16
00011240	0f ba 2d 00 c0 e0 ff 12	btsl	$0x12, -0x1f4000
00011248	0f ba 35 00 c0 e0 ff 11	btrl	$0x11, -0x1f4000
00011250	e8 a6 4b 00 00	calll	_UkDMATimerHandler
00011255	0f ba 35 00 c0 e0 ff 12	btrl	$0x12, -0x1f4000
0001125d	83 c4 04	addl	$0x4, %esp
00011260	61	popal
00011261	cf	iretl
_isr_HOST_VECTOR_1:
00011262	fa	cli
00011263	60	pushal
00011264	68 e0 00 00 00	pushl	$HOST_VECTOR_1
00011269	0f ba 2d 00 c0 e0 ff 12	btsl	$0x12, -0x1f4000
00011271	0f ba 35 00 c0 e0 ff 11	btrl	$0x11, -0x1f4000
00011279	e8 88 4b 00 00	calll	_UkHostInterruptHandler
0001127e	0f ba 35 00 c0 e0 ff 12	btrl	$0x12, -0x1f4000
00011286	83 c4 04	addl	$0x4, %esp
00011289	61	popal
0001128a	cf	iretl
_isr_HOST_VECTOR_2:
0001128b	fa	cli
0001128c	60	pushal
0001128d	68 e1 00 00 00	pushl	$HOST_VECTOR_2
00011292	0f ba 2d 00 c0 e0 ff 12	btsl	$0x12, -0x1f4000
0001129a	0f ba 35 00 c0 e0 ff 11	btrl	$0x11, -0x1f4000
000112a2	e8 5f 4b 00 00	calll	_UkHostInterruptHandler
000112a7	0f ba 35 00 c0 e0 ff 12	btrl	$0x12, -0x1f4000
000112af	83 c4 04	addl	$0x4, %esp
000112b2	61	popal
000112b3	cf	iretl
_isr_HOST_VECTOR_3:
000112b4	fa	cli
000112b5	60	pushal
000112b6	68 e2 00 00 00	pushl	$HOST_VECTOR_3
000112bb	0f ba 2d 00 c0 e0 ff 12	btsl	$0x12, -0x1f4000
000112c3	0f ba 35 00 c0 e0 ff 11	btrl	$0x11, -0x1f4000
000112cb	e8 36 4b 00 00	calll	_UkHostInterruptHandler
000112d0	0f ba 35 00 c0 e0 ff 12	btrl	$0x12, -0x1f4000
000112d8	83 c4 04	addl	$0x4, %esp
000112db	61	popal
000112dc	cf	iretl
_isr_HOST_VECTOR_4:
000112dd	fa	cli
000112de	60	pushal
000112df	68 e3 00 00 00	pushl	$HOST_VECTOR_4
000112e4	0f ba 2d 00 c0 e0 ff 12	btsl	$0x12, -0x1f4000
000112ec	0f ba 35 00 c0 e0 ff 11	btrl	$0x11, -0x1f4000
000112f4	e8 0d 4b 00 00	calll	_UkHostInterruptHandler
000112f9	0f ba 35 00 c0 e0 ff 12	btrl	$0x12, -0x1f4000
00011301	83 c4 04	addl	$0x4, %esp
00011304	61	popal
00011305	cf	iretl
_isr_HOST_VECTOR_5:
00011306	fa	cli
00011307	60	pushal
00011308	68 e4 00 00 00	pushl	$HOST_VECTOR_5
0001130d	0f ba 2d 00 c0 e0 ff 12	btsl	$0x12, -0x1f4000
00011315	0f ba 35 00 c0 e0 ff 11	btrl	$0x11, -0x1f4000
0001131d	e8 e4 4a 00 00	calll	_UkHostInterruptHandler
00011322	0f ba 35 00 c0 e0 ff 12	btrl	$0x12, -0x1f4000
0001132a	83 c4 04	addl	$0x4, %esp
0001132d	61	popal
0001132e	cf	iretl
_isr_HOST_VECTOR_6:
0001132f	fa	cli
00011330	60	pushal
00011331	68 e5 00 00 00	pushl	$HOST_VECTOR_6
00011336	0f ba 2d 00 c0 e0 ff 12	btsl	$0x12, -0x1f4000
0001133e	0f ba 35 00 c0 e0 ff 11	btrl	$0x11, -0x1f4000
00011346	e8 bb 4a 00 00	calll	_UkHostInterruptHandler
0001134b	0f ba 35 00 c0 e0 ff 12	btrl	$0x12, -0x1f4000
00011353	83 c4 04	addl	$0x4, %esp
00011356	61	popal
00011357	cf	iretl
_isr_HOST_VECTOR_7:
00011358	fa	cli
00011359	60	pushal
0001135a	68 e6 00 00 00	pushl	$HOST_VECTOR_7
0001135f	0f ba 2d 00 c0 e0 ff 12	btsl	$0x12, -0x1f4000
00011367	0f ba 35 00 c0 e0 ff 11	btrl	$0x11, -0x1f4000
0001136f	e8 92 4a 00 00	calll	_UkHostInterruptHandler
00011374	0f ba 35 00 c0 e0 ff 12	btrl	$0x12, -0x1f4000
0001137c	83 c4 04	addl	$0x4, %esp
0001137f	61	popal
00011380	cf	iretl
_isr_HOST_VECTOR_8:
00011381	fa	cli
00011382	60	pushal
00011383	68 e7 00 00 00	pushl	$HOST_VECTOR_8
00011388	0f ba 2d 00 c0 e0 ff 12	btsl	$0x12, -0x1f4000
00011390	0f ba 35 00 c0 e0 ff 11	btrl	$0x11, -0x1f4000
00011398	e8 69 4a 00 00	calll	_UkHostInterruptHandler
0001139d	0f ba 35 00 c0 e0 ff 12	btrl	$0x12, -0x1f4000
000113a5	83 c4 04	addl	$0x4, %esp
000113a8	61	popal
000113a9	cf	iretl
_isr_HOST_VECTOR_9:
000113aa	fa	cli
000113ab	60	pushal
000113ac	68 e8 00 00 00	pushl	$HOST_VECTOR_9
000113b1	0f ba 2d 00 c0 e0 ff 12	btsl	$0x12, -0x1f4000
000113b9	0f ba 35 00 c0 e0 ff 11	btrl	$0x11, -0x1f4000
000113c1	e8 40 4a 00 00	calll	_UkHostInterruptHandler
000113c6	0f ba 35 00 c0 e0 ff 12	btrl	$0x12, -0x1f4000
000113ce	83 c4 04	addl	$0x4, %esp
000113d1	61	popal
000113d2	cf	iretl
_isr_HOST_VECTOR_10:
000113d3	fa	cli
000113d4	60	pushal
000113d5	68 e9 00 00 00	pushl	$HOST_VECTOR_10
000113da	0f ba 2d 00 c0 e0 ff 12	btsl	$0x12, -0x1f4000
000113e2	0f ba 35 00 c0 e0 ff 11	btrl	$0x11, -0x1f4000
000113ea	e8 17 4a 00 00	calll	_UkHostInterruptHandler
000113ef	0f ba 35 00 c0 e0 ff 12	btrl	$0x12, -0x1f4000
000113f7	83 c4 04	addl	$0x4, %esp
000113fa	61	popal
000113fb	cf	iretl
_isr_HOST_VECTOR_11:
000113fc	fa	cli
000113fd	60	pushal
000113fe	68 ea 00 00 00	pushl	$HOST_VECTOR_11
00011403	0f ba 2d 00 c0 e0 ff 12	btsl	$0x12, -0x1f4000
0001140b	0f ba 35 00 c0 e0 ff 11	btrl	$0x11, -0x1f4000
00011413	e8 ee 49 00 00	calll	_UkHostInterruptHandler
00011418	0f ba 35 00 c0 e0 ff 12	btrl	$0x12, -0x1f4000
00011420	83 c4 04	addl	$0x4, %esp
00011423	61	popal
00011424	cf	iretl
_isr_HOST_VECTOR_12:
00011425	fa	cli
00011426	60	pushal
00011427	68 eb 00 00 00	pushl	$HOST_VECTOR_12
0001142c	0f ba 2d 00 c0 e0 ff 12	btsl	$0x12, -0x1f4000
00011434	0f ba 35 00 c0 e0 ff 11	btrl	$0x11, -0x1f4000
0001143c	e8 c5 49 00 00	calll	_UkHostInterruptHandler
00011441	0f ba 35 00 c0 e0 ff 12	btrl	$0x12, -0x1f4000
00011449	83 c4 04	addl	$0x4, %esp
0001144c	61	popal
0001144d	cf	iretl
_isr_HOST_VECTOR_13:
0001144e	fa	cli
0001144f	60	pushal
00011450	68 ec 00 00 00	pushl	$HOST_VECTOR_13
00011455	0f ba 2d 00 c0 e0 ff 12	btsl	$0x12, -0x1f4000
0001145d	0f ba 35 00 c0 e0 ff 11	btrl	$0x11, -0x1f4000
00011465	e8 9c 49 00 00	calll	_UkHostInterruptHandler
0001146a	0f ba 35 00 c0 e0 ff 12	btrl	$0x12, -0x1f4000
00011472	83 c4 04	addl	$0x4, %esp
00011475	61	popal
00011476	cf	iretl
_isr_HOST_VECTOR_14:
00011477	fa	cli
00011478	60	pushal
00011479	68 ed 00 00 00	pushl	$HOST_VECTOR_14
0001147e	0f ba 2d 00 c0 e0 ff 12	btsl	$0x12, -0x1f4000
00011486	0f ba 35 00 c0 e0 ff 11	btrl	$0x11, -0x1f4000
0001148e	e8 73 49 00 00	calll	_UkHostInterruptHandler
00011493	0f ba 35 00 c0 e0 ff 12	btrl	$0x12, -0x1f4000
0001149b	83 c4 04	addl	$0x4, %esp
0001149e	61	popal
0001149f	cf	iretl
_isr_HOST_VECTOR_15:
000114a0	fa	cli
000114a1	60	pushal
000114a2	68 ee 00 00 00	pushl	$HOST_VECTOR_15
000114a7	0f ba 2d 00 c0 e0 ff 12	btsl	$0x12, -0x1f4000
000114af	0f ba 35 00 c0 e0 ff 11	btrl	$0x11, -0x1f4000
000114b7	e8 4a 49 00 00	calll	_UkHostInterruptHandler
000114bc	0f ba 35 00 c0 e0 ff 12	btrl	$0x12, -0x1f4000
000114c4	83 c4 04	addl	$0x4, %esp
000114c7	61	popal
000114c8	cf	iretl
_isr_HOST_VECTOR_16:
000114c9	fa	cli
000114ca	60	pushal
000114cb	68 ef 00 00 00	pushl	$HOST_VECTOR_16
000114d0	0f ba 2d 00 c0 e0 ff 12	btsl	$0x12, -0x1f4000
000114d8	0f ba 35 00 c0 e0 ff 11	btrl	$0x11, -0x1f4000
000114e0	e8 21 49 00 00	calll	_UkHostInterruptHandler
000114e5	0f ba 35 00 c0 e0 ff 12	btrl	$0x12, -0x1f4000
000114ed	83 c4 04	addl	$0x4, %esp
000114f0	61	popal
000114f1	cf	iretl
_isr_ENG_VECTOR_1:
000114f2	fa	cli
000114f3	60	pushal
000114f4	68 c0 00 00 00	pushl	$ENG_VECTOR_1
000114f9	0f ba 2d 00 c0 e0 ff 12	btsl	$0x12, -0x1f4000
00011501	0f ba 35 00 c0 e0 ff 11	btrl	$0x11, -0x1f4000
00011509	e8 56 48 00 00	calll	_UkEngineHandler
0001150e	0f ba 35 00 c0 e0 ff 12	btrl	$0x12, -0x1f4000
00011516	83 c4 04	addl	$0x4, %esp
00011519	61	popal
0001151a	cf	iretl
_isr_ENG_VECTOR_2:
0001151b	fa	cli
0001151c	60	pushal
0001151d	68 c1 00 00 00	pushl	$ENG_VECTOR_2
00011522	0f ba 2d 00 c0 e0 ff 12	btsl	$0x12, -0x1f4000
0001152a	0f ba 35 00 c0 e0 ff 11	btrl	$0x11, -0x1f4000
00011532	e8 2d 48 00 00	calll	_UkEngineHandler
00011537	0f ba 35 00 c0 e0 ff 12	btrl	$0x12, -0x1f4000
0001153f	83 c4 04	addl	$0x4, %esp
00011542	61	popal
00011543	cf	iretl
_isr_ENG_VECTOR_3:
00011544	fa	cli
00011545	60	pushal
00011546	68 c2 00 00 00	pushl	$ENG_VECTOR_3
0001154b	0f ba 2d 00 c0 e0 ff 12	btsl	$0x12, -0x1f4000
00011553	0f ba 35 00 c0 e0 ff 11	btrl	$0x11, -0x1f4000
0001155b	e8 04 48 00 00	calll	_UkEngineHandler
00011560	0f ba 35 00 c0 e0 ff 12	btrl	$0x12, -0x1f4000
00011568	83 c4 04	addl	$0x4, %esp
0001156b	61	popal
0001156c	cf	iretl
_isr_ENG_VECTOR_4:
0001156d	fa	cli
0001156e	60	pushal
0001156f	68 c3 00 00 00	pushl	$ENG_VECTOR_4
00011574	0f ba 2d 00 c0 e0 ff 12	btsl	$0x12, -0x1f4000
0001157c	0f ba 35 00 c0 e0 ff 11	btrl	$0x11, -0x1f4000
00011584	e8 db 47 00 00	calll	_UkEngineHandler
00011589	0f ba 35 00 c0 e0 ff 12	btrl	$0x12, -0x1f4000
00011591	83 c4 04	addl	$0x4, %esp
00011594	61	popal
00011595	cf	iretl
_isr_ENG_VECTOR_5:
00011596	fa	cli
00011597	60	pushal
00011598	68 c4 00 00 00	pushl	$ENG_VECTOR_5
0001159d	0f ba 2d 00 c0 e0 ff 12	btsl	$0x12, -0x1f4000
000115a5	0f ba 35 00 c0 e0 ff 11	btrl	$0x11, -0x1f4000
000115ad	e8 b2 47 00 00	calll	_UkEngineHandler
000115b2	0f ba 35 00 c0 e0 ff 12	btrl	$0x12, -0x1f4000
000115ba	83 c4 04	addl	$0x4, %esp
000115bd	61	popal
000115be	cf	iretl
_isr_ENG_VECTOR_6:
000115bf	fa	cli
000115c0	60	pushal
000115c1	68 c5 00 00 00	pushl	$ENG_VECTOR_6
000115c6	0f ba 2d 00 c0 e0 ff 12	btsl	$0x12, -0x1f4000
000115ce	0f ba 35 00 c0 e0 ff 11	btrl	$0x11, -0x1f4000
000115d6	e8 89 47 00 00	calll	_UkEngineHandler
000115db	0f ba 35 00 c0 e0 ff 12	btrl	$0x12, -0x1f4000
000115e3	83 c4 04	addl	$0x4, %esp
000115e6	61	popal
000115e7	cf	iretl
_isr_ENG_VECTOR_7:
000115e8	fa	cli
000115e9	60	pushal
000115ea	68 c6 00 00 00	pushl	$ENG_VECTOR_7
000115ef	0f ba 2d 00 c0 e0 ff 12	btsl	$0x12, -0x1f4000
000115f7	0f ba 35 00 c0 e0 ff 11	btrl	$0x11, -0x1f4000
000115ff	e8 60 47 00 00	calll	_UkEngineHandler
00011604	0f ba 35 00 c0 e0 ff 12	btrl	$0x12, -0x1f4000
0001160c	83 c4 04	addl	$0x4, %esp
0001160f	61	popal
00011610	cf	iretl
_isr_ENG_VECTOR_8:
00011611	fa	cli
00011612	60	pushal
00011613	68 c7 00 00 00	pushl	$ENG_VECTOR_8
00011618	0f ba 2d 00 c0 e0 ff 12	btsl	$0x12, -0x1f4000
00011620	0f ba 35 00 c0 e0 ff 11	btrl	$0x11, -0x1f4000
00011628	e8 37 47 00 00	calll	_UkEngineHandler
0001162d	0f ba 35 00 c0 e0 ff 12	btrl	$0x12, -0x1f4000
00011635	83 c4 04	addl	$0x4, %esp
00011638	61	popal
00011639	cf	iretl
_isr_ENG_VECTOR_9:
0001163a	fa	cli
0001163b	60	pushal
0001163c	68 c8 00 00 00	pushl	$ENG_VECTOR_9
00011641	0f ba 2d 00 c0 e0 ff 12	btsl	$0x12, -0x1f4000
00011649	0f ba 35 00 c0 e0 ff 11	btrl	$0x11, -0x1f4000
00011651	e8 0e 47 00 00	calll	_UkEngineHandler
00011656	0f ba 35 00 c0 e0 ff 12	btrl	$0x12, -0x1f4000
0001165e	83 c4 04	addl	$0x4, %esp
00011661	61	popal
00011662	cf	iretl
_isr_ENG_VECTOR_10:
00011663	fa	cli
00011664	60	pushal
00011665	68 c9 00 00 00	pushl	$ENG_VECTOR_10
0001166a	0f ba 2d 00 c0 e0 ff 12	btsl	$0x12, -0x1f4000
00011672	0f ba 35 00 c0 e0 ff 11	btrl	$0x11, -0x1f4000
0001167a	e8 e5 46 00 00	calll	_UkEngineHandler
0001167f	0f ba 35 00 c0 e0 ff 12	btrl	$0x12, -0x1f4000
00011687	83 c4 04	addl	$0x4, %esp
0001168a	61	popal
0001168b	cf	iretl
_isr_ENG_VECTOR_11:
0001168c	fa	cli
0001168d	60	pushal
0001168e	68 ca 00 00 00	pushl	$ENG_VECTOR_11
00011693	0f ba 2d 00 c0 e0 ff 12	btsl	$0x12, -0x1f4000
0001169b	0f ba 35 00 c0 e0 ff 11	btrl	$0x11, -0x1f4000
000116a3	e8 bc 46 00 00	calll	_UkEngineHandler
000116a8	0f ba 35 00 c0 e0 ff 12	btrl	$0x12, -0x1f4000
000116b0	83 c4 04	addl	$0x4, %esp
000116b3	61	popal
000116b4	cf	iretl
_isr_ENG_VECTOR_12:
000116b5	fa	cli
000116b6	60	pushal
000116b7	68 cb 00 00 00	pushl	$ENG_VECTOR_12
000116bc	0f ba 2d 00 c0 e0 ff 12	btsl	$0x12, -0x1f4000
000116c4	0f ba 35 00 c0 e0 ff 11	btrl	$0x11, -0x1f4000
000116cc	e8 93 46 00 00	calll	_UkEngineHandler
000116d1	0f ba 35 00 c0 e0 ff 12	btrl	$0x12, -0x1f4000
000116d9	83 c4 04	addl	$0x4, %esp
000116dc	61	popal
000116dd	cf	iretl
_isr_ENG_VECTOR_13:
000116de	fa	cli
000116df	60	pushal
000116e0	68 cc 00 00 00	pushl	$ENG_VECTOR_13
000116e5	0f ba 2d 00 c0 e0 ff 12	btsl	$0x12, -0x1f4000
000116ed	0f ba 35 00 c0 e0 ff 11	btrl	$0x11, -0x1f4000
000116f5	e8 6a 46 00 00	calll	_UkEngineHandler
000116fa	0f ba 35 00 c0 e0 ff 12	btrl	$0x12, -0x1f4000
00011702	83 c4 04	addl	$0x4, %esp
00011705	61	popal
00011706	cf	iretl
_isr_ENG_VECTOR_14:
00011707	fa	cli
00011708	60	pushal
00011709	68 cd 00 00 00	pushl	$ENG_VECTOR_14
0001170e	0f ba 2d 00 c0 e0 ff 12	btsl	$0x12, -0x1f4000
00011716	0f ba 35 00 c0 e0 ff 11	btrl	$0x11, -0x1f4000
0001171e	e8 41 46 00 00	calll	_UkEngineHandler
00011723	0f ba 35 00 c0 e0 ff 12	btrl	$0x12, -0x1f4000
0001172b	83 c4 04	addl	$0x4, %esp
0001172e	61	popal
0001172f	cf	iretl
_isr_ENG_VECTOR_15:
00011730	fa	cli
00011731	60	pushal
00011732	68 ce 00 00 00	pushl	$ENG_VECTOR_15
00011737	0f ba 2d 00 c0 e0 ff 12	btsl	$0x12, -0x1f4000
0001173f	0f ba 35 00 c0 e0 ff 11	btrl	$0x11, -0x1f4000
00011747	e8 18 46 00 00	calll	_UkEngineHandler
0001174c	0f ba 35 00 c0 e0 ff 12	btrl	$0x12, -0x1f4000
00011754	83 c4 04	addl	$0x4, %esp
00011757	61	popal
00011758	cf	iretl
_isr_ENG_VECTOR_16:
00011759	fa	cli
0001175a	60	pushal
0001175b	68 cf 00 00 00	pushl	$ENG_VECTOR_16
00011760	0f ba 2d 00 c0 e0 ff 12	btsl	$0x12, -0x1f4000
00011768	0f ba 35 00 c0 e0 ff 11	btrl	$0x11, -0x1f4000
00011770	e8 ef 45 00 00	calll	_UkEngineHandler
00011775	0f ba 35 00 c0 e0 ff 12	btrl	$0x12, -0x1f4000
0001177d	83 c4 04	addl	$0x4, %esp
00011780	61	popal
00011781	cf	iretl
_isr_SEMAPHORE_VECTOR_1:
00011782	fa	cli
00011783	60	pushal
00011784	68 af 00 00 00	pushl	$SEM_GRP_VECTOR_START
00011789	0f ba 2d 00 c0 e0 ff 12	btsl	$0x12, -0x1f4000
00011791	0f ba 35 00 c0 e0 ff 11	btrl	$0x11, -0x1f4000
00011799	e8 45 45 00 00	calll	_UkSemaphoreHandler
0001179e	0f ba 35 00 c0 e0 ff 12	btrl	$0x12, -0x1f4000
000117a6	83 c4 04	addl	$0x4, %esp
000117a9	61	popal
000117aa	cf	iretl
_isr_SEMAPHORE_VECTOR_2:
000117ab	fa	cli
000117ac	60	pushal
000117ad	68 b0 00 00 00	pushl	$SEMAPHORE_VECTOR_2
000117b2	0f ba 2d 00 c0 e0 ff 12	btsl	$0x12, -0x1f4000
000117ba	0f ba 35 00 c0 e0 ff 11	btrl	$0x11, -0x1f4000
000117c2	e8 1c 45 00 00	calll	_UkSemaphoreHandler
000117c7	0f ba 35 00 c0 e0 ff 12	btrl	$0x12, -0x1f4000
000117cf	83 c4 04	addl	$0x4, %esp
000117d2	61	popal
000117d3	cf	iretl
_isr_SEMAPHORE_VECTOR_3:
000117d4	fa	cli
000117d5	60	pushal
000117d6	68 b1 00 00 00	pushl	$SEMAPHORE_VECTOR_3
000117db	0f ba 2d 00 c0 e0 ff 12	btsl	$0x12, -0x1f4000
000117e3	0f ba 35 00 c0 e0 ff 11	btrl	$0x11, -0x1f4000
000117eb	e8 f3 44 00 00	calll	_UkSemaphoreHandler
000117f0	0f ba 35 00 c0 e0 ff 12	btrl	$0x12, -0x1f4000
000117f8	83 c4 04	addl	$0x4, %esp
000117fb	61	popal
000117fc	cf	iretl
_isr_SEMAPHORE_VECTOR_4:
000117fd	fa	cli
000117fe	60	pushal
000117ff	68 b2 00 00 00	pushl	$SEMAPHORE_VECTOR_4
00011804	0f ba 2d 00 c0 e0 ff 12	btsl	$0x12, -0x1f4000
0001180c	0f ba 35 00 c0 e0 ff 11	btrl	$0x11, -0x1f4000
00011814	e8 ca 44 00 00	calll	_UkSemaphoreHandler
00011819	0f ba 35 00 c0 e0 ff 12	btrl	$0x12, -0x1f4000
00011821	83 c4 04	addl	$0x4, %esp
00011824	61	popal
00011825	cf	iretl
_isr_SEMAPHORE_VECTOR_5:
00011826	fa	cli
00011827	60	pushal
00011828	68 b3 00 00 00	pushl	$SEMAPHORE_VECTOR_5
0001182d	0f ba 2d 00 c0 e0 ff 12	btsl	$0x12, -0x1f4000
00011835	0f ba 35 00 c0 e0 ff 11	btrl	$0x11, -0x1f4000
0001183d	e8 a1 44 00 00	calll	_UkSemaphoreHandler
00011842	0f ba 35 00 c0 e0 ff 12	btrl	$0x12, -0x1f4000
0001184a	83 c4 04	addl	$0x4, %esp
0001184d	61	popal
0001184e	cf	iretl
_isr_SEMAPHORE_VECTOR_6:
0001184f	fa	cli
00011850	60	pushal
00011851	68 b4 00 00 00	pushl	$SEMAPHORE_VECTOR_6
00011856	0f ba 2d 00 c0 e0 ff 12	btsl	$0x12, -0x1f4000
0001185e	0f ba 35 00 c0 e0 ff 11	btrl	$0x11, -0x1f4000
00011866	e8 78 44 00 00	calll	_UkSemaphoreHandler
0001186b	0f ba 35 00 c0 e0 ff 12	btrl	$0x12, -0x1f4000
00011873	83 c4 04	addl	$0x4, %esp
00011876	61	popal
00011877	cf	iretl
_isr_SEMAPHORE_VECTOR_7:
00011878	fa	cli
00011879	60	pushal
0001187a	68 b5 00 00 00	pushl	$SEMAPHORE_VECTOR_7
0001187f	0f ba 2d 00 c0 e0 ff 12	btsl	$0x12, -0x1f4000
00011887	0f ba 35 00 c0 e0 ff 11	btrl	$0x11, -0x1f4000
0001188f	e8 4f 44 00 00	calll	_UkSemaphoreHandler
00011894	0f ba 35 00 c0 e0 ff 12	btrl	$0x12, -0x1f4000
0001189c	83 c4 04	addl	$0x4, %esp
0001189f	61	popal
000118a0	cf	iretl
_isr_SEMAPHORE_VECTOR_8:
000118a1	fa	cli
000118a2	60	pushal
000118a3	68 b6 00 00 00	pushl	$SEMAPHORE_VECTOR_8
000118a8	0f ba 2d 00 c0 e0 ff 12	btsl	$0x12, -0x1f4000
000118b0	0f ba 35 00 c0 e0 ff 11	btrl	$0x11, -0x1f4000
000118b8	e8 26 44 00 00	calll	_UkSemaphoreHandler
000118bd	0f ba 35 00 c0 e0 ff 12	btrl	$0x12, -0x1f4000
000118c5	83 c4 04	addl	$0x4, %esp
000118c8	61	popal
000118c9	cf	iretl
_isr_DISPLAY_VECTOR_1:
000118ca	fa	cli
000118cb	60	pushal
000118cc	68 be 00 00 00	pushl	$DISP_GRP_VECTOR_START
000118d1	0f ba 2d 00 c0 e0 ff 12	btsl	$0x12, -0x1f4000
000118d9	0f ba 35 00 c0 e0 ff 11	btrl	$0x11, -0x1f4000
000118e1	e8 14 45 00 00	calll	_UkDisplayEventsHandler
000118e6	0f ba 35 00 c0 e0 ff 12	btrl	$0x12, -0x1f4000
000118ee	83 c4 04	addl	$0x4, %esp
000118f1	61	popal
000118f2	cf	iretl
_isr_DISPLAY_VECTOR_2:
000118f3	fa	cli
000118f4	60	pushal
000118f5	68 bf 00 00 00	pushl	$DISPLAY_VECTOR_2
000118fa	0f ba 2d 00 c0 e0 ff 12	btsl	$0x12, -0x1f4000
00011902	0f ba 35 00 c0 e0 ff 11	btrl	$0x11, -0x1f4000
0001190a	e8 eb 44 00 00	calll	_UkDisplayEventsHandler
0001190f	0f ba 35 00 c0 e0 ff 12	btrl	$0x12, -0x1f4000
00011917	83 c4 04	addl	$0x4, %esp
0001191a	61	popal
0001191b	cf	iretl
_isr_IOMMU_VECTOR_1:
0001191c	fa	cli
0001191d	60	pushal
0001191e	68 fd 00 00 00	pushl	$IOMMU_VECTOR_1
00011923	0f ba 2d 00 c0 e0 ff 12	btsl	$0x12, -0x1f4000
0001192b	0f ba 35 00 c0 e0 ff 11	btrl	$0x11, -0x1f4000
00011933	e8 b6 43 00 00	calll	_UkIOMMUHandler
00011938	0f ba 35 00 c0 e0 ff 12	btrl	$0x12, -0x1f4000
00011940	83 c4 04	addl	$0x4, %esp
00011943	61	popal
00011944	cf	iretl
_isr_IOMMU_VECTOR_2:
00011945	fa	cli
00011946	60	pushal
00011947	68 fe 00 00 00	pushl	$IOMMU_VECTOR_2
0001194c	0f ba 2d 00 c0 e0 ff 12	btsl	$0x12, -0x1f4000
00011954	0f ba 35 00 c0 e0 ff 11	btrl	$0x11, -0x1f4000
0001195c	e8 8d 43 00 00	calll	_UkIOMMUHandler
00011961	0f ba 35 00 c0 e0 ff 12	btrl	$0x12, -0x1f4000
00011969	83 c4 04	addl	$0x4, %esp
0001196c	61	popal
0001196d	cf	iretl
_isr_IOMMU_VECTOR_3:
0001196e	fa	cli
0001196f	60	pushal
00011970	68 ff 00 00 00	pushl	$SPURIOUS_VECTOR
00011975	0f ba 2d 00 c0 e0 ff 12	btsl	$0x12, -0x1f4000
0001197d	0f ba 35 00 c0 e0 ff 11	btrl	$0x11, -0x1f4000
00011985	e8 64 43 00 00	calll	_UkIOMMUHandler
0001198a	0f ba 35 00 c0 e0 ff 12	btrl	$0x12, -0x1f4000
00011992	83 c4 04	addl	$0x4, %esp
00011995	61	popal
00011996	cf	iretl
_memcpy:
00011997	53	pushl	%ebx
00011998	57	pushl	%edi
00011999	56	pushl	%esi
0001199a	8b 4c 24 18	movl	0x18(%esp), %ecx
0001199e	8b 54 24 14	movl	0x14(%esp), %edx
000119a2	8b 44 24 10	movl	0x10(%esp), %eax
000119a6	89 c6	movl	%eax, %esi
000119a8	83 e6 fc	andl	$-0x4, %esi
000119ab	39 c6	cmpl	%eax, %esi
000119ad	75 1c	jne	0x119cb
000119af	6a 04	pushl	$0x4
000119b1	5e	popl	%esi
000119b2	83 f9 05	cmpl	$0x5, %ecx
000119b5	72 14	jb	0x119cb
000119b7	8b 3a	movl	P24C_SW_1ST_VECTOR_NUM(%edx), %edi
000119b9	89 38	movl	%edi, P24C_SW_1ST_VECTOR_NUM(%eax)
000119bb	01 f0	addl	%esi, %eax
000119bd	01 f2	addl	%esi, %edx
000119bf	83 c1 fc	addl	$-0x4, %ecx
000119c2	eb ee	jmp	0x119b2
000119c4	8a 1a	movb	P24C_SW_1ST_VECTOR_NUM(%edx), %bl
000119c6	42	incl	%edx
000119c7	88 18	movb	%bl, P24C_SW_1ST_VECTOR_NUM(%eax)
000119c9	40	incl	%eax
000119ca	49	decl	%ecx
000119cb	85 c9	testl	%ecx, %ecx
000119cd	7f f5	jg	0x119c4
000119cf	5e	popl	%esi
000119d0	5f	popl	%edi
000119d1	5b	popl	%ebx
000119d2	c3	retl
_memset:
000119d3	53	pushl	%ebx
000119d4	57	pushl	%edi
000119d5	56	pushl	%esi
000119d6	8b 4c 24 18	movl	0x18(%esp), %ecx
000119da	8b 54 24 14	movl	0x14(%esp), %edx
000119de	8b 44 24 10	movl	0x10(%esp), %eax
000119e2	89 c6	movl	%eax, %esi
000119e4	83 e6 fc	andl	$-0x4, %esi
000119e7	39 c6	cmpl	%eax, %esi
000119e9	75 29	jne	0x11a14
000119eb	0f b6 fa	movzbl	%dl, %edi
000119ee	89 fb	movl	%edi, %ebx
000119f0	c1 e3 08	shll	$0x8, %ebx
000119f3	89 d6	movl	%edx, %esi
000119f5	c1 e6 18	shll	$0x18, %esi
000119f8	09 fe	orl	%edi, %esi
000119fa	c1 e7 10	shll	$0x10, %edi
000119fd	09 de	orl	%ebx, %esi
000119ff	09 fe	orl	%edi, %esi
00011a01	83 f9 05	cmpl	$0x5, %ecx
00011a04	72 0e	jb	0x11a14
00011a06	89 30	movl	%esi, P24C_SW_1ST_VECTOR_NUM(%eax)
00011a08	83 c0 04	addl	$0x4, %eax
00011a0b	83 c1 fc	addl	$-0x4, %ecx
00011a0e	eb f1	jmp	0x11a01
00011a10	88 10	movb	%dl, P24C_SW_1ST_VECTOR_NUM(%eax)
00011a12	40	incl	%eax
00011a13	49	decl	%ecx
00011a14	85 c9	testl	%ecx, %ecx
00011a16	7f f8	jg	0x11a10
00011a18	5e	popl	%esi
00011a19	5f	popl	%edi
00011a1a	5b	popl	%ebx
00011a1b	c3	retl
___bzero:
00011a1c	83 ec 0c	subl	$0xc, %esp
00011a1f	8b 44 24 10	movl	0x10(%esp), %eax
00011a23	8b 4c 24 14	movl	0x14(%esp), %ecx
00011a27	89 4c 24 08	movl	%ecx, 0x8(%esp)
00011a2b	89 04 24	movl	%eax, P24C_SW_1ST_VECTOR_NUM(%esp)
00011a2e	83 64 24 04 00	andl	$0x0, 0x4(%esp)
00011a33	e8 9b ff ff ff	calll	_memset
00011a38	83 c4 0c	addl	$0xc, %esp
00011a3b	c3	retl
_divide_error:
00011a3c	83 ec 0c	subl	$0xc, %esp
00011a3f	8b 4c 24 10	movl	0x10(%esp), %ecx
00011a43	e8 b4 00 00 00	calll	__ZL22ucDumpRegistersAndHaltPK29IGMicroControllerRegisterDesc ## ucDumpRegistersAndHalt(IGMicroControllerRegisterDesc const*)
_debug_exception:
00011a48	83 ec 0c	subl	$0xc, %esp
00011a4b	8b 4c 24 10	movl	0x10(%esp), %ecx
00011a4f	e8 a8 00 00 00	calll	__ZL22ucDumpRegistersAndHaltPK29IGMicroControllerRegisterDesc ## ucDumpRegistersAndHalt(IGMicroControllerRegisterDesc const*)
_nmi:
00011a54	83 ec 0c	subl	$0xc, %esp
00011a57	8b 4c 24 10	movl	0x10(%esp), %ecx
00011a5b	e8 9c 00 00 00	calll	__ZL22ucDumpRegistersAndHaltPK29IGMicroControllerRegisterDesc ## ucDumpRegistersAndHalt(IGMicroControllerRegisterDesc const*)
_breakpoint:
00011a60	83 ec 0c	subl	$0xc, %esp
00011a63	8b 4c 24 10	movl	0x10(%esp), %ecx
00011a67	e8 90 00 00 00	calll	__ZL22ucDumpRegistersAndHaltPK29IGMicroControllerRegisterDesc ## ucDumpRegistersAndHalt(IGMicroControllerRegisterDesc const*)
_overflow:
00011a6c	83 ec 0c	subl	$0xc, %esp
00011a6f	8b 4c 24 10	movl	0x10(%esp), %ecx
00011a73	e8 84 00 00 00	calll	__ZL22ucDumpRegistersAndHaltPK29IGMicroControllerRegisterDesc ## ucDumpRegistersAndHalt(IGMicroControllerRegisterDesc const*)
_bounds_check:
00011a78	83 ec 0c	subl	$0xc, %esp
00011a7b	8b 4c 24 10	movl	0x10(%esp), %ecx
00011a7f	e8 78 00 00 00	calll	__ZL22ucDumpRegistersAndHaltPK29IGMicroControllerRegisterDesc ## ucDumpRegistersAndHalt(IGMicroControllerRegisterDesc const*)
_invalid_opcode:
00011a84	83 ec 0c	subl	$0xc, %esp
00011a87	8b 4c 24 10	movl	0x10(%esp), %ecx
00011a8b	e8 6c 00 00 00	calll	__ZL22ucDumpRegistersAndHaltPK29IGMicroControllerRegisterDesc ## ucDumpRegistersAndHalt(IGMicroControllerRegisterDesc const*)
_cop_not_avalid:
00011a90	83 ec 0c	subl	$0xc, %esp
00011a93	8b 4c 24 10	movl	0x10(%esp), %ecx
00011a97	e8 60 00 00 00	calll	__ZL22ucDumpRegistersAndHaltPK29IGMicroControllerRegisterDesc ## ucDumpRegistersAndHalt(IGMicroControllerRegisterDesc const*)
_double_fault:
00011a9c	83 ec 0c	subl	$0xc, %esp
00011a9f	8b 4c 24 10	movl	0x10(%esp), %ecx
00011aa3	e8 54 00 00 00	calll	__ZL22ucDumpRegistersAndHaltPK29IGMicroControllerRegisterDesc ## ucDumpRegistersAndHalt(IGMicroControllerRegisterDesc const*)
_overrun:
00011aa8	83 ec 0c	subl	$0xc, %esp
00011aab	8b 4c 24 10	movl	0x10(%esp), %ecx
00011aaf	e8 48 00 00 00	calll	__ZL22ucDumpRegistersAndHaltPK29IGMicroControllerRegisterDesc ## ucDumpRegistersAndHalt(IGMicroControllerRegisterDesc const*)
_invalid_tss:
00011ab4	83 ec 0c	subl	$0xc, %esp
00011ab7	8b 4c 24 10	movl	0x10(%esp), %ecx
00011abb	e8 3c 00 00 00	calll	__ZL22ucDumpRegistersAndHaltPK29IGMicroControllerRegisterDesc ## ucDumpRegistersAndHalt(IGMicroControllerRegisterDesc const*)
_seg_not_present:
00011ac0	83 ec 0c	subl	$0xc, %esp
00011ac3	8b 4c 24 10	movl	0x10(%esp), %ecx
00011ac7	e8 30 00 00 00	calll	__ZL22ucDumpRegistersAndHaltPK29IGMicroControllerRegisterDesc ## ucDumpRegistersAndHalt(IGMicroControllerRegisterDesc const*)
_stack_exception:
00011acc	83 ec 0c	subl	$0xc, %esp
00011acf	8b 4c 24 10	movl	0x10(%esp), %ecx
00011ad3	e8 24 00 00 00	calll	__ZL22ucDumpRegistersAndHaltPK29IGMicroControllerRegisterDesc ## ucDumpRegistersAndHalt(IGMicroControllerRegisterDesc const*)
_general_protection:
00011ad8	83 ec 0c	subl	$0xc, %esp
00011adb	8b 4c 24 10	movl	0x10(%esp), %ecx
00011adf	e8 18 00 00 00	calll	__ZL22ucDumpRegistersAndHaltPK29IGMicroControllerRegisterDesc ## ucDumpRegistersAndHalt(IGMicroControllerRegisterDesc const*)
_page_fault:
00011ae4	83 ec 0c	subl	$0xc, %esp
00011ae7	8b 4c 24 10	movl	0x10(%esp), %ecx
00011aeb	e8 0c 00 00 00	calll	__ZL22ucDumpRegistersAndHaltPK29IGMicroControllerRegisterDesc ## ucDumpRegistersAndHalt(IGMicroControllerRegisterDesc const*)
_coprocessor_error:
00011af0	83 ec 0c	subl	$0xc, %esp
00011af3	8b 4c 24 10	movl	0x10(%esp), %ecx
00011af7	e8 00 00 00 00	calll	__ZL22ucDumpRegistersAndHaltPK29IGMicroControllerRegisterDesc ## ucDumpRegistersAndHalt(IGMicroControllerRegisterDesc const*)
__ZL22ucDumpRegistersAndHaltPK29IGMicroControllerRegisterDesc:
00011afc	55	pushl	%ebp
00011afd	53	pushl	%ebx
00011afe	57	pushl	%edi
00011aff	56	pushl	%esi
00011b00	83 ec 0c	subl	$0xc, %esp
00011b03	a1 f8 c8 00 00	movl	__ZN17IGMicroController9fInstanceE, %eax ## IGMicroController::fInstance
00011b08	ba ff 00 ff ff	movl	$0xffff00ff, %edx
00011b0d	23 15 00 c0 e0 ff	andl	-0x1f4000, %edx
00011b13	81 ca 00 f9 00 00	orl	$0xf900, %edx
00011b19	89 90 a4 00 00 00	movl	%edx, 0xa4(%eax)
00011b1f	89 15 00 c0 e0 ff	movl	%edx, -0x1f4000
00011b25	8d 79 34	leal	0x34(%ecx), %edi
00011b28	89 e0	movl	%esp, %eax
00011b2a	bb 00 a0 00 00	movl	$0xa000, %ebx
00011b2f	29 c3	subl	%eax, %ebx
00011b31	8b 15 f8 c8 00 00	movl	__ZN17IGMicroController9fInstanceE, %edx ## IGMicroController::fInstance
00011b37	be 00 f0 ff ff	movl	$0xfffff000, %esi
00011b3c	23 72 34	andl	0x34(%edx), %esi
00011b3f	8d 96 00 40 00 00	leal	0x4000(%esi), %edx
00011b45	c7 86 24 08 00 00 08 00 00 00	movl	$DB_TO_LAPIC_GRP4, 0x824(%esi)
00011b4f	8b 69 20	movl	0x20(%ecx), %ebp
00011b52	89 ae e4 07 00 00	movl	%ebp, 0x7e4(%esi)
00011b58	8b 69 24	movl	0x24(%ecx), %ebp
00011b5b	89 ae e8 07 00 00	movl	%ebp, 0x7e8(%esi)
00011b61	89 9e ec 07 00 00	movl	%ebx, 0x7ec(%esi)
00011b67	8b 59 28	movl	0x28(%ecx), %ebx
00011b6a	89 9e f0 07 00 00	movl	%ebx, 0x7f0(%esi)
00011b70	89 be f4 07 00 00	movl	%edi, 0x7f4(%esi)
00011b76	89 86 f8 07 00 00	movl	%eax, 0x7f8(%esi)
00011b7c	8b 41 30	movl	0x30(%ecx), %eax
00011b7f	89 86 fc 07 00 00	movl	%eax, 0x7fc(%esi)
00011b85	8b 41 2c	movl	0x2c(%ecx), %eax
00011b88	89 86 00 08 00 00	movl	%eax, 0x800(%esi)
00011b8e	8b 41 1c	movl	0x1c(%ecx), %eax
00011b91	89 86 04 08 00 00	movl	%eax, 0x804(%esi)
00011b97	8b 41 10	movl	0x10(%ecx), %eax
00011b9a	89 86 08 08 00 00	movl	%eax, 0x808(%esi)
00011ba0	8b 41 18	movl	0x18(%ecx), %eax
00011ba3	89 86 0c 08 00 00	movl	%eax, 0x80c(%esi)
00011ba9	8b 41 14	movl	0x14(%ecx), %eax
00011bac	89 86 10 08 00 00	movl	%eax, 0x810(%esi)
00011bb2	8b 01	movl	P24C_SW_1ST_VECTOR_NUM(%ecx), %eax
00011bb4	89 86 18 08 00 00	movl	%eax, 0x818(%esi)
00011bba	8b 41 04	movl	0x4(%ecx), %eax
00011bbd	89 86 14 08 00 00	movl	%eax, 0x814(%esi)
00011bc3	8b 41 08	movl	0x8(%ecx), %eax
00011bc6	89 86 1c 08 00 00	movl	%eax, 0x81c(%esi)
00011bcc	8b 41 0c	movl	0xc(%ecx), %eax
00011bcf	89 86 20 08 00 00	movl	%eax, 0x820(%esi)
00011bd5	6a 18	pushl	$0x18
00011bd7	58	popl	%eax
00011bd8	89 86 24 08 00 00	movl	%eax, 0x824(%esi)
00011bde	bf 00 80 00 00	movl	$0x8000, %edi
00011be3	89 7c 24 04	movl	%edi, 0x4(%esp)
00011be7	89 14 24	movl	%edx, P24C_SW_1ST_VECTOR_NUM(%esp)
00011bea	e8 2d fe ff ff	calll	___bzero
00011bef	8d 86 00 c0 00 00	leal	_UkCssHeader(%esi), %eax
00011bf5	89 7c 24 04	movl	%edi, 0x4(%esp)
00011bf9	89 04 24	movl	%eax, P24C_SW_1ST_VECTOR_NUM(%esp)
00011bfc	c7 44 24 08 00 00 04 00	movl	$0x40000, 0x8(%esp)
00011c04	e8 8e fd ff ff	calll	_memcpy
00011c09	8d 86 30 08 00 00	leal	0x830(%esi), %eax
00011c0f	39 c6	cmpl	%eax, %esi
00011c11	73 08	jae	0x11c1b
00011c13	0f ae 3e	clflush	P24C_SW_1ST_VECTOR_NUM(%esi)
00011c16	83 c6 10	addl	$0x10, %esi
00011c19	eb f4	jmp	0x11c0f
00011c1b	31 c0	xorl	%eax, %eax
00011c1d	40	incl	%eax
00011c1e	a3 20 c0 e0 ff	movl	%eax, 0xffe0c020
00011c23	8b 0d 80 00 e0 fe	movl	-0x11fff80, %ecx
00011c29	c7 05 80 00 e0 fe f0 00 00 00	movl	$0xf0, -0x11fff80
00011c33	83 0d bc c1 e0 ff 02	orl	$0x2, -0x1f3e44
00011c3a	c7 05 00 00 f9 ff 00 80 04 00	movl	$0x48000, -0x70000
00011c44	89 0d 80 00 e0 fe	movl	%ecx, -0x11fff80
00011c4a	a3 28 c0 e0 ff	movl	%eax, 0xffe0c028
00011c4f	f4	hlt
00011c50	eb fd	jmp	0x11c4f
_assertionFailed:
00011c52	a1 80 00 e0 fe	movl	0xfee00080, %eax
00011c57	c7 05 80 00 e0 fe f0 00 00 00	movl	$0xf0, -0x11fff80
00011c61	8b 0d f8 c8 00 00	movl	__ZN17IGMicroController9fInstanceE, %ecx ## IGMicroController::fInstance
00011c67	ba ff 00 ff ff	movl	$0xffff00ff, %edx
00011c6c	23 15 00 c0 e0 ff	andl	-0x1f4000, %edx
00011c72	81 ca 00 fc 00 00	orl	$0xfc00, %edx
00011c78	89 91 a4 00 00 00	movl	%edx, 0xa4(%ecx)
00011c7e	89 15 00 c0 e0 ff	movl	%edx, -0x1f4000
00011c84	a3 80 00 e0 fe	movl	%eax, 0xfee00080
00011c89	c3	retl
00011c8a	90	nop
_ucThreadMain:
00011c8b	83 ec 0c	subl	$0xc, %esp
00011c8e	a1 ec c3 e0 ff	movl	0xffe0c3ec, %eax
00011c93	8b 0d e8 c3 e0 ff	movl	-0x1f3c18, %ecx
00011c99	3b 05 ec c3 e0 ff	cmpl	-0x1f3c14, %eax
00011c9f	75 ed	jne	0x11c8e
00011ca1	a3 f4 c8 00 00	movl	%eax, 0xc8f4
00011ca6	89 0d f0 c8 00 00	movl	%ecx, _gMainBegin
00011cac	e8 0d 53 00 00	calll	__ZN17IGMicroController14createInstanceEv ## IGMicroController::createInstance()
00011cb1	8b 0d f8 c8 00 00	movl	__ZN17IGMicroController9fInstanceE, %ecx ## IGMicroController::fInstance
00011cb7	e8 12 58 00 00	calll	__ZN17IGMicroController3runEv ## IGMicroController::run()
__ZN4iguk9forceWakeEbj:
00011cbc	83 ec 0c	subl	$0xc, %esp
00011cbf	89 c8	movl	%ecx, %eax
00011cc1	8b 0d f8 c8 00 00	movl	__ZN17IGMicroController9fInstanceE, %ecx ## IGMicroController::fInstance
00011cc7	89 14 24	movl	%edx, P24C_SW_1ST_VECTOR_NUM(%esp)
00011cca	89 c2	movl	%eax, %edx
00011ccc	e8 b9 69 00 00	calll	__ZN17IGMicroController9forceWakeEbj ## IGMicroController::forceWake(bool, unsigned int)
00011cd1	83 c4 0c	addl	$0xc, %esp
00011cd4	c3	retl
00011cd5	90	nop
__ZN21IGCommandStreamerBase4initE10IGHwCsType:
00011cd6	8a 44 24 08	movb	0x8(%esp), %al
00011cda	8b 4c 24 04	movl	0x4(%esp), %ecx
00011cde	88 41 24	movb	%al, 0x24(%ecx)
00011ce1	b0 01	movb	$0x1, %al
00011ce3	c3	retl
__ZN21IGCommandStreamerBase4bindEt:
00011ce4	0f b7 54 24 08	movzwl	0x8(%esp), %edx
00011ce9	8b 4c 24 04	movl	0x4(%esp), %ecx
00011ced	83 c1 48	addl	$0x48, %ecx
00011cf0	e9 df 0d 00 00	jmp	__ZN10IGUkBitSetILj64EE3setEj ## IGUkBitSet<64u>::set(unsigned int)
00011cf5	90	nop
__ZN21IGCommandStreamerBase6unbindEt:
00011cf6	0f b7 54 24 08	movzwl	0x8(%esp), %edx
00011cfb	8b 4c 24 04	movl	0x4(%esp), %ecx
00011cff	83 c1 48	addl	$0x48, %ecx
00011d02	e9 9b 0e 00 00	jmp	__ZN10IGUkBitSetILj64EE5resetEj ## IGUkBitSet<64u>::reset(unsigned int)
00011d07	90	nop
__ZN21IGCommandStreamerBase20prepareForQueuesEvalEv:
00011d08	56	pushl	%esi
00011d09	8b 44 24 08	movl	0x8(%esp), %eax
00011d0d	8b 48 20	movl	0x20(%eax), %ecx
00011d10	8b 54 c8 0c	movl	0xc(%eax,%ecx,8), %edx
00011d14	31 f6	xorl	%esi, %esi
00011d16	46	incl	%esi
00011d17	29 ce	subl	%ecx, %esi
00011d19	89 54 f0 0c	movl	%edx, 0xc(%eax,%esi,8)
00011d1d	8b 4c c8 10	movl	0x10(%eax,%ecx,8), %ecx
00011d21	89 4c f0 10	movl	%ecx, 0x10(%eax,%esi,8)
00011d25	5e	popl	%esi
00011d26	c3	retl
00011d27	90	nop
__ZN21IGCommandStreamerBase15evalReschedItemEPK12IGUkWorkItem:
00011d28	b0 01	movb	$0x1, %al
00011d2a	c3	retl
00011d2b	90	nop
__ZN21IGCommandStreamerBase14evalWorkQueuesEPjj:
00011d2c	55	pushl	%ebp
00011d2d	53	pushl	%ebx
00011d2e	57	pushl	%edi
00011d2f	56	pushl	%esi
00011d30	83 ec 6c	subl	$0x6c, %esp
00011d33	8b bc 24 88 00 00 00	movl	DB_VECTOR_1(%esp), %edi
00011d3a	8b b4 24 80 00 00 00	movl	0x80(%esp), %esi
00011d41	80 3d e8 c8 00 00 00	cmpb	$0x0, _gPerfLogEnable
00011d48	0f 85 e9 04 00 00	jne	0x12237
00011d4e	8d 56 48	leal	0x48(%esi), %edx
00011d51	8d 5c 24 58	leal	0x58(%esp), %ebx
00011d55	89 d9	movl	%ebx, %ecx
00011d57	e8 2e 0e 00 00	calll	__ZN10IGUkBitSetILj64EEC2ERKS0_ ## IGUkBitSet<64u>::IGUkBitSet(IGUkBitSet<64u> const&)
00011d5c	83 e7 20	andl	$0x20, %edi
00011d5f	89 7c 24 54	movl	%edi, 0x54(%esp)
00011d63	74 18	je	0x11d7d
00011d65	31 c0	xorl	%eax, %eax
00011d67	40	incl	%eax
00011d68	2b 46 20	subl	0x20(%esi), %eax
00011d6b	8b 44 c6 0c	movl	0xc(%esi,%eax,8), %eax
00011d6f	8b 00	movl	P24C_SW_1ST_VECTOR_NUM(%eax), %eax
00011d71	8b 50 18	movl	0x18(%eax), %edx
00011d74	8d 4c 24 58	leal	0x58(%esp), %ecx
00011d78	e8 25 0e 00 00	calll	__ZN10IGUkBitSetILj64EE5resetEj ## IGUkBitSet<64u>::reset(unsigned int)
00011d7d	8d 56 50	leal	0x50(%esi), %edx
00011d80	89 d9	movl	%ebx, %ecx
00011d82	89 54 24 68	movl	%edx, 0x68(%esp)
00011d86	e8 3b 0e 00 00	calll	__ZN10IGUkBitSetILj64EE5resetERKS0_ ## IGUkBitSet<64u>::reset(IGUkBitSet<64u> const&)
00011d8b	89 1c 24	movl	%ebx, P24C_SW_1ST_VECTOR_NUM(%esp)
00011d8e	e8 4d 0e 00 00	calll	__ZNK10IGUkBitSetILj64EE3anyEv ## IGUkBitSet<64u>::any() const
00011d93	31 d2	xorl	%edx, %edx
00011d95	84 c0	testb	%al, %al
00011d97	0f 84 53 04 00 00	je	0x121f0
00011d9d	8b 84 24 80 00 00 00	movl	0x80(%esp), %eax
00011da4	8d 70 04	leal	0x4(%eax), %esi
00011da7	89 d9	movl	%ebx, %ecx
00011da9	89 f2	movl	%esi, %edx
00011dab	e8 4c 0e 00 00	calll	__ZN21IGCommandStreamerBase22getFirstWorkQueueIndexERK10IGUkBitSetILj64EEPj ## IGCommandStreamerBase::getFirstWorkQueueIndex(IGUkBitSet<64u> const&, unsigned int*)
00011db0	c7 44 24 50 00 00 00 00	movl	$P24C_SW_1ST_VECTOR_NUM, 0x50(%esp)
00011db8	31 ff	xorl	%edi, %edi
00011dba	31 ed	xorl	%ebp, %ebp
00011dbc	89 74 24 28	movl	%esi, 0x28(%esp)
00011dc0	89 1c 24	movl	%ebx, P24C_SW_1ST_VECTOR_NUM(%esp)
00011dc3	e8 18 0e 00 00	calll	__ZNK10IGUkBitSetILj64EE3anyEv ## IGUkBitSet<64u>::any() const
00011dc8	84 c0	testb	%al, %al
00011dca	89 ea	movl	%ebp, %edx
00011dcc	0f 84 19 04 00 00	je	0x121eb
00011dd2	89 d0	movl	%edx, %eax
00011dd4	83 e0 08	andl	$0x8, %eax
00011dd7	0f 85 0e 04 00 00	jne	0x121eb
00011ddd	89 7c 24 24	movl	%edi, 0x24(%esp)
00011de1	a1 f8 c8 00 00	movl	__ZN17IGMicroController9fInstanceE, %eax ## IGMicroController::fInstance
00011de6	0f b7 16	movzwl	P24C_SW_1ST_VECTOR_NUM(%esi), %edx
00011de9	8b 48 40	movl	0x40(%eax), %ecx
00011dec	e8 c5 6f 00 00	calll	__ZNK17IGMicroController23getWorkQueueDescAtIndexEt ## IGMicroController::getWorkQueueDescAtIndex(unsigned short) const
00011df1	89 c3	movl	%eax, %ebx
00011df3	8b 48 18	movl	0x18(%eax), %ecx
00011df6	8b 78 40	movl	0x40(%eax), %edi
00011df9	89 c5	movl	%eax, %ebp
00011dfb	83 e5 f0	andl	$-0x10, %ebp
00011dfe	89 c6	movl	%eax, %esi
00011e00	83 e6 0f	andl	$0xf, %esi
00011e03	81 c6 8f 00 00 00	addl	$0x8f, %esi
00011e09	83 e6 90	andl	$-0x70, %esi
00011e0c	01 ee	addl	%ebp, %esi
00011e0e	39 f9	cmpl	%edi, %ecx
00011e10	75 1a	jne	0x11e2c
00011e12	89 e8	movl	%ebp, %eax
00011e14	39 f0	cmpl	%esi, %eax
00011e16	73 08	jae	0x11e20
00011e18	0f ae 38	clflush	P24C_SW_1ST_VECTOR_NUM(%eax)
00011e1b	83 c0 10	addl	$0x10, %eax
00011e1e	eb f4	jmp	0x11e14
00011e20	8b 7b 40	movl	0x40(%ebx), %edi
00011e23	39 f9	cmpl	%edi, %ecx
00011e25	75 e7	jne	0x11e0e
00011e27	e9 49 03 00 00	jmp	0x12175
00011e2c	8b 43 04	movl	0x4(%ebx), %eax
00011e2f	89 4c 24 2c	movl	%ecx, 0x2c(%esp)
00011e33	c1 e1 06	shll	$0x6, %ecx
00011e36	89 44 24 38	movl	%eax, 0x38(%esp)
00011e3a	89 4c 24 34	movl	%ecx, 0x34(%esp)
00011e3e	8d 14 08	leal	P24C_SW_1ST_VECTOR_NUM(%eax,%ecx), %edx
00011e41	89 d1	movl	%edx, %ecx
00011e43	83 e1 f0	andl	$-0x10, %ecx
00011e46	89 54 24 30	movl	%edx, 0x30(%esp)
00011e4a	83 e2 0f	andl	$0xf, %edx
00011e4d	83 c2 4f	addl	$0x4f, %edx
00011e50	83 e2 d0	andl	$-0x30, %edx
00011e53	01 ca	addl	%ecx, %edx
00011e55	39 d1	cmpl	%edx, %ecx
00011e57	73 08	jae	0x11e61
00011e59	0f ae 39	clflush	P24C_SW_1ST_VECTOR_NUM(%ecx)
00011e5c	83 c1 10	addl	$0x10, %ecx
00011e5f	eb f4	jmp	0x11e55
00011e61	8b 54 24 38	movl	0x38(%esp), %edx
00011e65	8b 44 24 34	movl	0x34(%esp), %eax
00011e69	8b 4c 02 14	movl	0x14(%edx,%eax), %ecx
00011e6d	f6 c1 10	testb	$0x10, %cl
00011e70	74 0d	je	0x11e7f
00011e72	8b 4c 24 2c	movl	0x2c(%esp), %ecx
00011e76	41	incl	%ecx
00011e77	81 e1 ff 01 00 00	andl	$0x1ff, %ecx
00011e7d	eb 8f	jmp	0x11e0e
00011e7f	8d 44 02 14	leal	0x14(%edx,%eax), %eax
00011e83	89 44 24 4c	movl	%eax, 0x4c(%esp)
00011e87	31 c0	xorl	%eax, %eax
00011e89	40	incl	%eax
00011e8a	8b 94 24 80 00 00 00	movl	0x80(%esp), %edx
00011e91	2b 42 20	subl	0x20(%edx), %eax
00011e94	89 44 24 20	movl	%eax, 0x20(%esp)
00011e98	8b 44 c2 10	movl	0x10(%edx,%eax,8), %eax
00011e9c	85 c0	testl	%eax, %eax
00011e9e	0f 84 cc 00 00 00	je	0x11f70
00011ea4	89 44 24 3c	movl	%eax, 0x3c(%esp)
00011ea8	8b 44 24 30	movl	0x30(%esp), %eax
00011eac	8b 10	movl	P24C_SW_1ST_VECTOR_NUM(%eax), %edx
00011eae	89 54 24 44	movl	%edx, 0x44(%esp)
00011eb2	8b 50 04	movl	0x4(%eax), %edx
00011eb5	8b 44 24 3c	movl	0x3c(%esp), %eax
00011eb9	33 50 04	xorl	0x4(%eax), %edx
00011ebc	89 54 24 20	movl	%edx, 0x20(%esp)
00011ec0	8b 10	movl	P24C_SW_1ST_VECTOR_NUM(%eax), %edx
00011ec2	33 54 24 44	xorl	0x44(%esp), %edx
00011ec6	0b 54 24 20	orl	0x20(%esp), %edx
00011eca	0f 85 05 03 00 00	jne	0x121d5
00011ed0	8b 94 24 84 00 00 00	movl	0x84(%esp), %edx
00011ed7	81 7a 04 ff 00 00 00	cmpl	$SPURIOUS_VECTOR, 0x4(%edx)
00011ede	0f 87 f1 02 00 00	ja	0x121d5
00011ee4	89 4c 24 48	movl	%ecx, 0x48(%esp)
00011ee8	8b 50 1c	movl	0x1c(%eax), %edx
00011eeb	89 54 24 20	movl	%edx, 0x20(%esp)
00011eef	8b 40 20	movl	0x20(%eax), %eax
00011ef2	89 44 24 40	movl	%eax, 0x40(%esp)
00011ef6	8b 44 24 20	movl	0x20(%esp), %eax
00011efa	8b 54 24 34	movl	0x34(%esp), %edx
00011efe	8b 4c 24 38	movl	0x38(%esp), %ecx
00011f02	33 44 11 1c	xorl	0x1c(%ecx,%edx), %eax
00011f06	89 44 24 20	movl	%eax, 0x20(%esp)
00011f0a	8b 44 24 34	movl	0x34(%esp), %eax
00011f0e	8b 54 24 40	movl	0x40(%esp), %edx
00011f12	8b 4c 24 38	movl	0x38(%esp), %ecx
00011f16	33 54 01 20	xorl	0x20(%ecx,%eax), %edx
00011f1a	0b 54 24 20	orl	0x20(%esp), %edx
00011f1e	0f 85 b1 02 00 00	jne	0x121d5
00011f24	8b 15 f8 c8 00 00	movl	__ZN17IGMicroController9fInstanceE, %edx ## IGMicroController::fInstance
00011f2a	f6 42 3c 02	testb	$0x2, 0x3c(%edx)
00011f2e	0f 85 a1 02 00 00	jne	0x121d5
00011f34	8b 44 24 44	movl	0x44(%esp), %eax
00011f38	f6 40 2d 01	testb	$0x1, 0x2d(%eax)
00011f3c	0f 85 93 02 00 00	jne	0x121d5
00011f42	8b 44 24 3c	movl	0x3c(%esp), %eax
00011f46	8b 50 14	movl	0x14(%eax), %edx
00011f49	83 e2 04	andl	$0x4, %edx
00011f4c	0b 54 24 48	orl	0x48(%esp), %edx
00011f50	8b 44 24 4c	movl	0x4c(%esp), %eax
00011f54	89 10	movl	%edx, P24C_SW_1ST_VECTOR_NUM(%eax)
00011f56	31 c0	xorl	%eax, %eax
00011f58	40	incl	%eax
00011f59	8b 94 24 80 00 00 00	movl	0x80(%esp), %edx
00011f60	2b 42 20	subl	0x20(%edx), %eax
00011f63	89 44 24 20	movl	%eax, 0x20(%esp)
00011f67	8d 4c c2 10	leal	0x10(%edx,%eax,8), %ecx
00011f6b	e9 32 01 00 00	jmp	0x120a2
00011f70	8b 44 24 20	movl	0x20(%esp), %eax
00011f74	8b 44 c2 0c	movl	0xc(%edx,%eax,8), %eax
00011f78	85 c0	testl	%eax, %eax
00011f7a	0f 84 d0 00 00 00	je	0x12050
00011f80	89 4c 24 48	movl	%ecx, 0x48(%esp)
00011f84	8b 54 24 30	movl	0x30(%esp), %edx
00011f88	8b 0a	movl	P24C_SW_1ST_VECTOR_NUM(%edx), %ecx
00011f8a	89 4c 24 44	movl	%ecx, 0x44(%esp)
00011f8e	8b 08	movl	P24C_SW_1ST_VECTOR_NUM(%eax), %ecx
00011f90	89 44 24 3c	movl	%eax, 0x3c(%esp)
00011f94	8b 40 04	movl	0x4(%eax), %eax
00011f97	33 42 04	xorl	0x4(%edx), %eax
00011f9a	89 44 24 40	movl	%eax, 0x40(%esp)
00011f9e	89 c8	movl	%ecx, %eax
00011fa0	8b 54 24 44	movl	0x44(%esp), %edx
00011fa4	89 4c 24 64	movl	%ecx, 0x64(%esp)
00011fa8	31 ca	xorl	%ecx, %edx
00011faa	0b 54 24 40	orl	0x40(%esp), %edx
00011fae	0f 85 a8 00 00 00	jne	0x1205c
00011fb4	8b 94 24 84 00 00 00	movl	0x84(%esp), %edx
00011fbb	81 3a ff 00 00 00	cmpl	$SPURIOUS_VECTOR, P24C_SW_1ST_VECTOR_NUM(%edx)
00011fc1	0f 87 1f 02 00 00	ja	0x121e6
00011fc7	8b 44 24 3c	movl	0x3c(%esp), %eax
00011fcb	8b 50 1c	movl	0x1c(%eax), %edx
00011fce	89 54 24 20	movl	%edx, 0x20(%esp)
00011fd2	8b 40 20	movl	0x20(%eax), %eax
00011fd5	89 44 24 40	movl	%eax, 0x40(%esp)
00011fd9	8b 44 24 20	movl	0x20(%esp), %eax
00011fdd	8b 54 24 38	movl	0x38(%esp), %edx
00011fe1	8b 4c 24 34	movl	0x34(%esp), %ecx
00011fe5	33 44 0a 1c	xorl	0x1c(%edx,%ecx), %eax
00011fe9	89 44 24 20	movl	%eax, 0x20(%esp)
00011fed	8b 44 24 38	movl	0x38(%esp), %eax
00011ff1	8b 54 24 34	movl	0x34(%esp), %edx
00011ff5	8b 4c 24 40	movl	0x40(%esp), %ecx
00011ff9	33 4c 10 20	xorl	0x20(%eax,%edx), %ecx
00011ffd	0b 4c 24 20	orl	0x20(%esp), %ecx
00012001	0f 85 df 01 00 00	jne	0x121e6
00012007	8b 15 f8 c8 00 00	movl	__ZN17IGMicroController9fInstanceE, %edx ## IGMicroController::fInstance
0001200d	f6 42 3c 02	testb	$0x2, 0x3c(%edx)
00012011	0f 85 cf 01 00 00	jne	0x121e6
00012017	8b 44 24 44	movl	0x44(%esp), %eax
0001201b	f6 40 2d 01	testb	$0x1, 0x2d(%eax)
0001201f	0f 85 c1 01 00 00	jne	0x121e6
00012025	8b 44 24 3c	movl	0x3c(%esp), %eax
00012029	8b 50 14	movl	0x14(%eax), %edx
0001202c	83 e2 04	andl	$0x4, %edx
0001202f	0b 54 24 48	orl	0x48(%esp), %edx
00012033	8b 44 24 4c	movl	0x4c(%esp), %eax
00012037	89 10	movl	%edx, P24C_SW_1ST_VECTOR_NUM(%eax)
00012039	31 c0	xorl	%eax, %eax
0001203b	40	incl	%eax
0001203c	8b 94 24 80 00 00 00	movl	0x80(%esp), %edx
00012043	2b 42 20	subl	0x20(%edx), %eax
00012046	89 44 24 20	movl	%eax, 0x20(%esp)
0001204a	8d 4c c2 0c	leal	0xc(%edx,%eax,8), %ecx
0001204e	eb 52	jmp	0x120a2
00012050	8b 44 24 20	movl	0x20(%esp), %eax
00012054	8d 4c c2 0c	leal	0xc(%edx,%eax,8), %ecx
00012058	89 d0	movl	%edx, %eax
0001205a	eb 46	jmp	0x120a2
0001205c	8b 0d f8 c8 00 00	movl	__ZN17IGMicroController9fInstanceE, %ecx ## IGMicroController::fInstance
00012062	f6 41 3c 01	testb	$0x1, 0x3c(%ecx)
00012066	75 1d	jne	0x12085
00012068	8b 44 24 64	movl	0x64(%esp), %eax
0001206c	8b 48 18	movl	0x18(%eax), %ecx
0001206f	8b 54 24 28	movl	0x28(%esp), %edx
00012073	3b 0a	cmpl	P24C_SW_1ST_VECTOR_NUM(%edx), %ecx
00012075	75 0e	jne	0x12085
00012077	8b 44 24 3c	movl	0x3c(%esp), %eax
0001207b	f6 40 14 04	testb	$0x4, 0x14(%eax)
0001207f	0f 85 61 01 00 00	jne	0x121e6
00012085	8b 84 24 80 00 00 00	movl	0x80(%esp), %eax
0001208c	8b 4c 24 20	movl	0x20(%esp), %ecx
00012090	8d 0c c8	leal	P24C_SW_1ST_VECTOR_NUM(%eax,%ecx,8), %ecx
00012093	8b 54 24 24	movl	0x24(%esp), %edx
00012097	8d 4c 91 10	leal	0x10(%ecx,%edx,4), %ecx
0001209b	42	incl	%edx
0001209c	89 54 24 24	movl	%edx, 0x24(%esp)
000120a0	89 c2	movl	%eax, %edx
000120a2	8b 44 24 30	movl	0x30(%esp), %eax
000120a6	89 01	movl	%eax, P24C_SW_1ST_VECTOR_NUM(%ecx)
000120a8	8b 44 24 20	movl	0x20(%esp), %eax
000120ac	8d 44 c2 0c	leal	0xc(%edx,%eax,8), %eax
000120b0	8b 4c 24 24	movl	0x24(%esp), %ecx
000120b4	8b 04 88	movl	P24C_SW_1ST_VECTOR_NUM(%eax,%ecx,4), %eax
000120b7	8b 48 14	movl	0x14(%eax), %ecx
000120ba	ba ff ff e0 ff	movl	$0xffe0ffff, %edx
000120bf	21 d1	andl	%edx, %ecx
000120c1	81 c9 00 00 02 00	orl	$0x20000, %ecx
000120c7	89 48 14	movl	%ecx, 0x14(%eax)
000120ca	31 c0	xorl	%eax, %eax
000120cc	40	incl	%eax
000120cd	8b 8c 24 80 00 00 00	movl	0x80(%esp), %ecx
000120d4	2b 41 20	subl	0x20(%ecx), %eax
000120d7	8d 44 c1 0c	leal	0xc(%ecx,%eax,8), %eax
000120db	8b 4c 24 24	movl	0x24(%esp), %ecx
000120df	8b 0c 88	movl	P24C_SW_1ST_VECTOR_NUM(%eax,%ecx,4), %ecx
000120e2	e8 37 0b 00 00	calll	__ZN21IGCommandStreamerBase17updateContextTailEP12IGUkWorkItem ## IGCommandStreamerBase::updateContextTail(IGUkWorkItem*)
000120e7	8b 84 24 84 00 00 00	movl	0x84(%esp), %eax
000120ee	8b 54 24 24	movl	0x24(%esp), %edx
000120f2	8b 04 90	movl	P24C_SW_1ST_VECTOR_NUM(%eax,%edx,4), %eax
000120f5	89 44 24 30	movl	%eax, 0x30(%esp)
000120f9	8d 48 01	leal	0x1(%eax), %ecx
000120fc	8b 84 24 84 00 00 00	movl	0x84(%esp), %eax
00012103	89 0c 90	movl	%ecx, P24C_SW_1ST_VECTOR_NUM(%eax,%edx,4)
00012106	83 7c 24 30 00	cmpl	$0x0, 0x30(%esp)
0001210b	74 31	je	0x1213e
0001210d	31 c0	xorl	%eax, %eax
0001210f	40	incl	%eax
00012110	8b 8c 24 80 00 00 00	movl	0x80(%esp), %ecx
00012117	2b 41 20	subl	0x20(%ecx), %eax
0001211a	8d 04 c1	leal	P24C_SW_1ST_VECTOR_NUM(%ecx,%eax,8), %eax
0001211d	8b 44 90 0c	movl	0xc(%eax,%edx,4), %eax
00012121	89 44 24 30	movl	%eax, 0x30(%esp)
00012125	ff 40 18	incl	0x18(%eax)
00012128	8b 4c 24 50	movl	0x50(%esp), %ecx
0001212c	8b 54 24 38	movl	0x38(%esp), %edx
00012130	8b 44 24 34	movl	0x34(%esp), %eax
00012134	89 4c 02 0c	movl	%ecx, 0xc(%edx,%eax)
00012138	8b 44 24 30	movl	0x30(%esp), %eax
0001213c	eb 24	jmp	0x12162
0001213e	8b 44 24 38	movl	0x38(%esp), %eax
00012142	8b 4c 24 34	movl	0x34(%esp), %ecx
00012146	8b 44 08 0c	movl	0xc(%eax,%ecx), %eax
0001214a	89 44 24 50	movl	%eax, 0x50(%esp)
0001214e	31 c0	xorl	%eax, %eax
00012150	40	incl	%eax
00012151	8b 8c 24 80 00 00 00	movl	0x80(%esp), %ecx
00012158	2b 41 20	subl	0x20(%ecx), %eax
0001215b	8d 04 c1	leal	P24C_SW_1ST_VECTOR_NUM(%ecx,%eax,8), %eax
0001215e	8b 44 90 0c	movl	0xc(%eax,%edx,4), %eax
00012162	8b 4c 24 2c	movl	0x2c(%esp), %ecx
00012166	41	incl	%ecx
00012167	81 e1 ff 01 00 00	andl	$0x1ff, %ecx
0001216d	89 48 38	movl	%ecx, 0x38(%eax)
00012170	e9 99 fc ff ff	jmp	0x11e0e
00012175	31 c0	xorl	%eax, %eax
00012177	8b 7c 24 24	movl	0x24(%esp), %edi
0001217b	83 ff 01	cmpl	$0x1, %edi
0001217e	0f 94 c0	sete	%al
00012181	8d 04 85 04 00 00 00	leal	0x4(,%eax,4), %eax
00012188	8b 74 24 28	movl	0x28(%esp), %esi
0001218c	89 4b 18	movl	%ecx, 0x18(%ebx)
0001218f	29 eb	subl	%ebp, %ebx
00012191	83 c3 4f	addl	$0x4f, %ebx
00012194	83 e3 f0	andl	$-0x10, %ebx
00012197	01 eb	addl	%ebp, %ebx
00012199	39 dd	cmpl	%ebx, %ebp
0001219b	73 09	jae	0x121a6
0001219d	0f ae 7d 00	clflush	(%ebp)
000121a1	83 c5 10	addl	$0x10, %ebp
000121a4	eb f3	jmp	0x12199
000121a6	c7 05 20 c0 e0 ff 01 00 00 00	movl	$0x1, -0x1f3fe0
000121b0	83 f8 04	cmpl	$0x4, %eax
000121b3	75 03	jne	0x121b8
000121b5	83 e0 f8	andl	$-0x8, %eax
000121b8	89 c5	movl	%eax, %ebp
000121ba	8d 5c 24 58	leal	0x58(%esp), %ebx
000121be	8b 16	movl	P24C_SW_1ST_VECTOR_NUM(%esi), %edx
000121c0	89 d9	movl	%ebx, %ecx
000121c2	e8 db 09 00 00	calll	__ZN10IGUkBitSetILj64EE5resetEj ## IGUkBitSet<64u>::reset(unsigned int)
000121c7	89 d9	movl	%ebx, %ecx
000121c9	89 f2	movl	%esi, %edx
000121cb	e8 c6 0a 00 00	calll	__ZN21IGCommandStreamerBase21getNextWorkQueueIndexERK10IGUkBitSetILj64EEPj ## IGCommandStreamerBase::getNextWorkQueueIndex(IGUkBitSet<64u> const&, unsigned int*)
000121d0	e9 eb fb ff ff	jmp	0x11dc0
000121d5	6a 08	pushl	$0x8
000121d7	58	popl	%eax
000121d8	8b 74 24 28	movl	0x28(%esp), %esi
000121dc	8b 7c 24 24	movl	0x24(%esp), %edi
000121e0	8b 4c 24 2c	movl	0x2c(%esp), %ecx
000121e4	eb a6	jmp	0x1218c
000121e6	6a 04	pushl	$0x4
000121e8	58	popl	%eax
000121e9	eb ed	jmp	0x121d8
000121eb	f6 c2 08	testb	$0x8, %dl
000121ee	75 26	jne	0x12216
000121f0	31 c0	xorl	%eax, %eax
000121f2	40	incl	%eax
000121f3	8b 8c 24 80 00 00 00	movl	0x80(%esp), %ecx
000121fa	2b 41 20	subl	0x20(%ecx), %eax
000121fd	83 7c c1 0c 00	cmpl	$0x0, 0xc(%ecx,%eax,8)
00012202	74 12	je	0x12216
00012204	8b 84 24 84 00 00 00	movl	0x84(%esp), %eax
0001220b	8b 00	movl	P24C_SW_1ST_VECTOR_NUM(%eax), %eax
0001220d	0b 44 24 54	orl	0x54(%esp), %eax
00012211	74 03	je	0x12216
00012213	6a 08	pushl	$0x8
00012215	5a	popl	%edx
00012216	89 d7	movl	%edx, %edi
00012218	c1 e7 1c	shll	$0x1c, %edi
0001221b	c1 ff 1f	sarl	$0x1f, %edi
0001221e	23 7c 24 54	andl	0x54(%esp), %edi
00012222	09 d7	orl	%edx, %edi
00012224	80 3d e8 c8 00 00 00	cmpb	$0x0, _gPerfLogEnable
0001222b	75 4a	jne	0x12277
0001222d	89 f8	movl	%edi, %eax
0001222f	83 c4 6c	addl	$0x6c, %esp
00012232	5e	popl	%esi
00012233	5f	popl	%edi
00012234	5b	popl	%ebx
00012235	5d	popl	%ebp
00012236	c3	retl
00012237	8b 0d f8 c8 00 00	movl	__ZN17IGMicroController9fInstanceE, %ecx ## IGMicroController::fInstance
0001223d	8b 84 24 80 00 00 00	movl	0x80(%esp), %eax
00012244	0f b6 40 24	movzbl	0x24(%eax), %eax
00012248	8d 14 85 29 01 a7 85	leal	-0x7a58fed7(,%eax,4), %edx
0001224f	89 7c 24 08	movl	%edi, 0x8(%esp)
00012253	83 64 24 10 00	andl	$0x0, 0x10(%esp)
00012258	83 64 24 0c 00	andl	$0x0, 0xc(%esp)
0001225d	83 64 24 04 00	andl	$0x0, 0x4(%esp)
00012262	83 24 24 00	andl	$0x0, P24C_SW_1ST_VECTOR_NUM(%esp)
00012266	e8 d1 66 00 00	calll	__ZN17IGMicroController27perfLogAppendKdebugConstantEjyjjj ## IGMicroController::perfLogAppendKdebugConstant(unsigned int, unsigned long long, unsigned int, unsigned int, unsigned int)
0001226b	8b b4 24 80 00 00 00	movl	0x80(%esp), %esi
00012272	e9 d7 fa ff ff	jmp	0x11d4e
00012277	8b 1d f8 c8 00 00	movl	__ZN17IGMicroController9fInstanceE, %ebx ## IGMicroController::fInstance
0001227d	8b 84 24 80 00 00 00	movl	0x80(%esp), %eax
00012284	0f b6 40 24	movzbl	0x24(%eax), %eax
00012288	8d 2c 85 2a 01 a7 85	leal	-0x7a58fed6(,%eax,4), %ebp
0001228f	8b 44 24 68	movl	0x68(%esp), %eax
00012293	89 04 24	movl	%eax, P24C_SW_1ST_VECTOR_NUM(%esp)
00012296	e8 45 09 00 00	calll	__ZNK10IGUkBitSetILj64EE3anyEv ## IGUkBitSet<64u>::any() const
0001229b	0f b6 c0	movzbl	%al, %eax
0001229e	89 44 24 0c	movl	%eax, 0xc(%esp)
000122a2	89 7c 24 08	movl	%edi, 0x8(%esp)
000122a6	83 64 24 10 00	andl	$0x0, 0x10(%esp)
000122ab	83 64 24 04 00	andl	$0x0, 0x4(%esp)
000122b0	83 24 24 00	andl	$0x0, P24C_SW_1ST_VECTOR_NUM(%esp)
000122b4	89 d9	movl	%ebx, %ecx
000122b6	89 ea	movl	%ebp, %edx
000122b8	e8 7f 66 00 00	calll	__ZN17IGMicroController27perfLogAppendKdebugConstantEjyjjj ## IGMicroController::perfLogAppendKdebugConstant(unsigned int, unsigned long long, unsigned int, unsigned int, unsigned int)
000122bd	e9 6b ff ff ff	jmp	0x1222d
__ZN21IGCommandStreamerBase24prepareExecListAndSubmitEjPj:
000122c2	55	pushl	%ebp
000122c3	53	pushl	%ebx
000122c4	57	pushl	%edi
000122c5	56	pushl	%esi
000122c6	83 ec 2c	subl	$0x2c, %esp
000122c9	80 3d e8 c8 00 00 00	cmpb	$0x0, _gPerfLogEnable
000122d0	0f 85 58 02 00 00	jne	0x1252e
000122d6	8b 44 24 44	movl	0x44(%esp), %eax
000122da	89 44 24 14	movl	%eax, 0x14(%esp)
000122de	6a f0	pushl	$-0x10
000122e0	58	popl	%eax
000122e1	83 64 04 2c 00	andl	$0x0, 0x2c(%esp,%eax)
000122e6	83 64 04 28 00	andl	$0x0, 0x28(%esp,%eax)
000122eb	83 c0 08	addl	$0x8, %eax
000122ee	75 f1	jne	0x122e1
000122f0	31 ed	xorl	%ebp, %ebp
000122f2	31 d2	xorl	%edx, %edx
000122f4	42	incl	%edx
000122f5	83 fd 02	cmpl	$0x2, %ebp
000122f8	0f 84 17 01 00 00	je	0x12415
000122fe	89 d0	movl	%edx, %eax
00012300	8b 4c 24 40	movl	0x40(%esp), %ecx
00012304	2b 41 20	subl	0x20(%ecx), %eax
00012307	8d 04 c1	leal	P24C_SW_1ST_VECTOR_NUM(%ecx,%eax,8), %eax
0001230a	8b 44 a8 0c	movl	0xc(%eax,%ebp,4), %eax
0001230e	85 c0	testl	%eax, %eax
00012310	0f 84 bc 00 00 00	je	0x123d2
00012316	8b 18	movl	P24C_SW_1ST_VECTOR_NUM(%eax), %ebx
00012318	8d 4b 10	leal	0x10(%ebx), %ecx
0001231b	8b 7b 18	movl	0x18(%ebx), %edi
0001231e	89 ca	movl	%ecx, %edx
00012320	83 e2 f0	andl	$-0x10, %edx
00012323	83 e1 0f	andl	$0xf, %ecx
00012326	83 c1 2f	addl	$0x2f, %ecx
00012329	83 e1 f0	andl	$-0x10, %ecx
0001232c	01 d1	addl	%edx, %ecx
0001232e	39 ca	cmpl	%ecx, %edx
00012330	73 08	jae	0x1233a
00012332	0f ae 3a	clflush	P24C_SW_1ST_VECTOR_NUM(%edx)
00012335	83 c2 10	addl	$0x10, %edx
00012338	eb f4	jmp	0x1232e
0001233a	8b 4c 24 44	movl	0x44(%esp), %ecx
0001233e	89 ce	movl	%ecx, %esi
00012340	84 c9	testb	%cl, %cl
00012342	8b 4b 08	movl	0x8(%ebx), %ecx
00012345	8b 53 0c	movl	0xc(%ebx), %edx
00012348	89 54 ec 1c	movl	%edx, 0x1c(%esp,%ebp,8)
0001234c	89 4c ec 18	movl	%ecx, 0x18(%esp,%ebp,8)
00012350	78 41	js	0x12393
00012352	31 c9	xorl	%ecx, %ecx
00012354	85 ed	testl	%ebp, %ebp
00012356	0f 95 c1	setne	%cl
00012359	c1 e1 05	shll	$0x5, %ecx
0001235c	83 c1 20	addl	$0x20, %ecx
0001235f	ff 43 24	incl	0x24(%ebx)
00012362	8b 54 24 48	movl	0x48(%esp), %edx
00012366	8b 14 aa	movl	P24C_SW_1ST_VECTOR_NUM(%edx,%ebp,4), %edx
00012369	01 53 20	addl	%edx, 0x20(%ebx)
0001236c	85 f1	testl	%esi, %ecx
0001236e	74 03	je	0x12373
00012370	ff 4b 28	decl	0x28(%ebx)
00012373	31 d2	xorl	%edx, %edx
00012375	42	incl	%edx
00012376	89 d1	movl	%edx, %ecx
00012378	8b 74 24 40	movl	0x40(%esp), %esi
0001237c	2b 4e 20	subl	0x20(%esi), %ecx
0001237f	8d 0c ce	leal	P24C_SW_1ST_VECTOR_NUM(%esi,%ecx,8), %ecx
00012382	8b 4c a9 0c	movl	0xc(%ecx,%ebp,4), %ecx
00012386	8b 49 14	movl	0x14(%ecx), %ecx
00012389	83 e1 fc	andl	$-0x4, %ecx
0001238c	c1 e1 1d	shll	$0x1d, %ecx
0001238f	09 cf	orl	%ecx, %edi
00012391	eb 10	jmp	0x123a3
00012393	83 c9 04	orl	$0x4, %ecx
00012396	89 4c ec 18	movl	%ecx, 0x18(%esp,%ebp,8)
0001239a	ff 43 24	incl	0x24(%ebx)
0001239d	ff 43 20	incl	0x20(%ebx)
000123a0	31 d2	xorl	%edx, %edx
000123a2	42	incl	%edx
000123a3	80 3d e8 c8 00 00 00	cmpb	$0x0, _gPerfLogEnable
000123aa	75 2c	jne	0x123d8
000123ac	89 d8	movl	%ebx, %eax
000123ae	83 e0 f0	andl	$-0x10, %eax
000123b1	83 e3 0f	andl	$0xf, %ebx
000123b4	83 c3 4f	addl	$0x4f, %ebx
000123b7	83 e3 d0	andl	$-0x30, %ebx
000123ba	01 c3	addl	%eax, %ebx
000123bc	39 d8	cmpl	%ebx, %eax
000123be	73 08	jae	0x123c8
000123c0	0f ae 38	clflush	P24C_SW_1ST_VECTOR_NUM(%eax)
000123c3	83 c0 10	addl	$0x10, %eax
000123c6	eb f4	jmp	0x123bc
000123c8	c7 05 20 c0 e0 ff 01 00 00 00	movl	$0x1, -0x1f3fe0
000123d2	45	incl	%ebp
000123d3	e9 1d ff ff ff	jmp	0x122f5
000123d8	8b 35 f8 c8 00 00	movl	__ZN17IGMicroController9fInstanceE, %esi ## IGMicroController::fInstance
000123de	8b 4c 24 40	movl	0x40(%esp), %ecx
000123e2	0f b6 51 24	movzbl	0x24(%ecx), %edx
000123e6	8d 14 95 3c 01 a7 85	leal	-0x7a58fec4(,%edx,4), %edx
000123ed	8b 4c ec 1c	movl	0x1c(%esp,%ebp,8), %ecx
000123f1	8b 40 10	movl	0x10(%eax), %eax
000123f4	89 44 24 10	movl	%eax, 0x10(%esp)
000123f8	89 7c 24 0c	movl	%edi, 0xc(%esp)
000123fc	89 4c 24 08	movl	%ecx, 0x8(%esp)
00012400	83 64 24 04 00	andl	$0x0, 0x4(%esp)
00012405	83 24 24 00	andl	$0x0, P24C_SW_1ST_VECTOR_NUM(%esp)
00012409	89 f1	movl	%esi, %ecx
0001240b	e8 2c 65 00 00	calll	__ZN17IGMicroController27perfLogAppendKdebugConstantEjyjjj ## IGMicroController::perfLogAppendKdebugConstant(unsigned int, unsigned long long, unsigned int, unsigned int, unsigned int)
00012410	31 d2	xorl	%edx, %edx
00012412	42	incl	%edx
00012413	eb 97	jmp	0x123ac
00012415	8b 74 24 40	movl	0x40(%esp), %esi
00012419	8b 06	movl	P24C_SW_1ST_VECTOR_NUM(%esi), %eax
0001241b	89 34 24	movl	%esi, P24C_SW_1ST_VECTOR_NUM(%esp)
0001241e	ff 50 20	calll	*0x20(%eax)
00012421	c6 46 1c 00	movb	$0x0, 0x1c(%esi)
00012425	8b 06	movl	P24C_SW_1ST_VECTOR_NUM(%esi), %eax
00012427	89 34 24	movl	%esi, P24C_SW_1ST_VECTOR_NUM(%esp)
0001242a	ff 50 40	calll	*0x40(%eax)
0001242d	8b 0d f8 c8 00 00	movl	__ZN17IGMicroController9fInstanceE, %ecx ## IGMicroController::fInstance
00012433	0f b6 56 24	movzbl	0x24(%esi), %edx
00012437	83 24 24 00	andl	$0x0, P24C_SW_1ST_VECTOR_NUM(%esp)
0001243b	e8 fc 6d 00 00	calll	__ZN17IGMicroController15updateIdleStateE10IGHwCsTypeb ## IGMicroController::updateIdleState(IGHwCsType, bool)
00012440	c7 05 20 c0 e0 ff 01 00 00 00	movl	$0x1, -0x1f3fe0
0001244a	a1 f8 c8 00 00	movl	__ZN17IGMicroController9fInstanceE, %eax ## IGMicroController::fInstance
0001244f	b9 00 f0 ff ff	movl	$0xfffff000, %ecx
00012454	23 48 34	andl	0x34(%eax), %ecx
00012457	0f b6 46 24	movzbl	0x24(%esi), %eax
0001245b	6b c0 18	imull	$0x18, %eax, %eax
0001245e	8d 54 01 14	leal	0x14(%ecx,%eax), %edx
00012462	01 c1	addl	%eax, %ecx
00012464	6a 1c	pushl	$0x1c
00012466	58	popl	%eax
00012467	01 c8	addl	%ecx, %eax
00012469	6a 24	pushl	$0x24
0001246b	5f	popl	%edi
0001246c	01 cf	addl	%ecx, %edi
0001246e	89 7c 24 04	movl	%edi, 0x4(%esp)
00012472	89 04 24	movl	%eax, P24C_SW_1ST_VECTOR_NUM(%esp)
00012475	89 f1	movl	%esi, %ecx
00012477	e8 86 06 00 00	calll	__ZNK21IGCommandStreamerBase28getCurrentExecListDumpStatusEPjPiS0_ ## IGCommandStreamerBase::getCurrentExecListDumpStatus(unsigned int*, int*, unsigned int*) const
0001247c	0f b6 46 24	movzbl	0x24(%esi), %eax
00012480	6b c0 5d	imull	$0x5d, %eax, %eax
00012483	b9 00 00 e0 ff	movl	$MMIO_BASE_ADDR, %ecx
00012488	03 88 45 9c 01 00	addl	0x19c45(%eax), %ecx
0001248e	6a fe	pushl	$-0x2
00012490	5a	popl	%edx
00012491	85 d2	testl	%edx, %edx
00012493	74 13	je	0x124a8
00012495	8b 7c d4 28	movl	0x28(%esp,%edx,8), %edi
00012499	89 39	movl	%edi, P24C_SW_1ST_VECTOR_NUM(%ecx)
0001249b	8b 7c d4 2c	movl	0x2c(%esp,%edx,8), %edi
0001249f	89 79 04	movl	%edi, 0x4(%ecx)
000124a2	83 c1 08	addl	$0x8, %ecx
000124a5	42	incl	%edx
000124a6	eb e9	jmp	0x12491
000124a8	8b 80 49 9c 01 00	movl	0x19c49(%eax), %eax
000124ae	c7 80 00 00 e0 ff 01 00 00 00	movl	$0x1, -0x200000(%eax)
000124b8	8b 44 24 44	movl	0x44(%esp), %eax
000124bc	0f ba e0 0a	btl	$0xa, %eax
000124c0	73 57	jae	0x12519
000124c2	8b 3d f8 c8 00 00	movl	__ZN17IGMicroController9fInstanceE, %edi ## IGMicroController::fInstance
000124c8	f6 47 3c 08	testb	$0x8, 0x3c(%edi)
000124cc	74 4b	je	0x12519
000124ce	25 ff fb ff ff	andl	$0xfffffbff, %eax
000124d3	89 44 24 14	movl	%eax, 0x14(%esp)
000124d7	c6 87 0a 44 00 00 00	movb	$0x0, 0x440a(%edi)
000124de	8d 8f d4 02 00 00	leal	0x2d4(%edi), %ecx
000124e4	a1 80 00 e0 fe	movl	0xfee00080, %eax
000124e9	c7 05 80 00 e0 fe f0 00 00 00	movl	$0xf0, -0x11fff80
000124f3	c6 87 a8 03 00 00 01	movb	$0x1, 0x3a8(%edi)
000124fa	a3 80 00 e0 fe	movl	%eax, 0xfee00080
000124ff	0f b7 87 86 00 00 00	movzwl	0x86(%edi), %eax
00012506	89 04 24	movl	%eax, P24C_SW_1ST_VECTOR_NUM(%esp)
00012509	6a 06	pushl	$0x6
0001250b	5a	popl	%edx
0001250c	e8 c1 70 00 00	calll	__ZN17IGGucTimerManager12setTimeoutUSE16IGGucTimerTaskIdjb ## IGGucTimerManager::setTimeoutUS(IGGucTimerTaskId, unsigned int, bool)
00012511	83 47 10 01	addl	$0x1, 0x10(%edi)
00012515	83 57 14 00	adcl	$0x0, 0x14(%edi)
00012519	80 3d e8 c8 00 00 00	cmpb	$0x0, _gPerfLogEnable
00012520	75 4a	jne	0x1256c
00012522	8b 44 24 14	movl	0x14(%esp), %eax
00012526	83 c4 2c	addl	$0x2c, %esp
00012529	5e	popl	%esi
0001252a	5f	popl	%edi
0001252b	5b	popl	%ebx
0001252c	5d	popl	%ebp
0001252d	c3	retl
0001252e	8b 0d f8 c8 00 00	movl	__ZN17IGMicroController9fInstanceE, %ecx ## IGMicroController::fInstance
00012534	8b 44 24 40	movl	0x40(%esp), %eax
00012538	0f b6 40 24	movzbl	0x24(%eax), %eax
0001253c	8d 14 85 89 00 a7 85	leal	-0x7a58ff77(,%eax,4), %edx
00012543	8b 7c 24 48	movl	0x48(%esp), %edi
00012547	8b 07	movl	P24C_SW_1ST_VECTOR_NUM(%edi), %eax
00012549	8b 7f 04	movl	0x4(%edi), %edi
0001254c	89 7c 24 0c	movl	%edi, 0xc(%esp)
00012550	89 44 24 08	movl	%eax, 0x8(%esp)
00012554	83 64 24 10 00	andl	$0x0, 0x10(%esp)
00012559	83 64 24 04 00	andl	$0x0, 0x4(%esp)
0001255e	83 24 24 00	andl	$0x0, P24C_SW_1ST_VECTOR_NUM(%esp)
00012562	e8 d5 63 00 00	calll	__ZN17IGMicroController27perfLogAppendKdebugConstantEjyjjj ## IGMicroController::perfLogAppendKdebugConstant(unsigned int, unsigned long long, unsigned int, unsigned int, unsigned int)
00012567	e9 6a fd ff ff	jmp	0x122d6
0001256c	8b 0d f8 c8 00 00	movl	__ZN17IGMicroController9fInstanceE, %ecx ## IGMicroController::fInstance
00012572	8b 44 24 40	movl	0x40(%esp), %eax
00012576	0f b6 40 24	movzbl	0x24(%eax), %eax
0001257a	8d 14 85 8a 00 a7 85	leal	-0x7a58ff76(,%eax,4), %edx
00012581	83 64 24 10 00	andl	$0x0, 0x10(%esp)
00012586	83 64 24 0c 00	andl	$0x0, 0xc(%esp)
0001258b	83 64 24 08 00	andl	$0x0, 0x8(%esp)
00012590	83 64 24 04 00	andl	$0x0, 0x4(%esp)
00012595	83 24 24 00	andl	$0x0, P24C_SW_1ST_VECTOR_NUM(%esp)
00012599	e8 9e 63 00 00	calll	__ZN17IGMicroController27perfLogAppendKdebugConstantEjyjjj ## IGMicroController::perfLogAppendKdebugConstant(unsigned int, unsigned long long, unsigned int, unsigned int, unsigned int)
0001259e	eb 82	jmp	0x12522
__ZN21IGCommandStreamerBase32updateWithContextUtilizationDataEP17IGUkContextSharedPj:
000125a0	53	pushl	%ebx
000125a1	57	pushl	%edi
000125a2	56	pushl	%esi
000125a3	83 ec 20	subl	$0x20, %esp
000125a6	8b 44 24 38	movl	0x38(%esp), %eax
000125aa	8b 7c 24 34	movl	0x34(%esp), %edi
000125ae	8b 4f 10	movl	0x10(%edi), %ecx
000125b1	8d 91 88 00 00 00	leal	DB_VECTOR_1(%ecx), %edx
000125b7	89 d6	movl	%edx, %esi
000125b9	83 e6 f0	andl	$-0x10, %esi
000125bc	83 e2 0f	andl	$0xf, %edx
000125bf	83 c2 17	addl	$0x17, %edx
000125c2	83 e2 f0	andl	$-0x10, %edx
000125c5	01 f2	addl	%esi, %edx
000125c7	39 d6	cmpl	%edx, %esi
000125c9	73 08	jae	0x125d3
000125cb	0f ae 3e	clflush	P24C_SW_1ST_VECTOR_NUM(%esi)
000125ce	83 c6 10	addl	$0x10, %esi
000125d1	eb f4	jmp	0x125c7
000125d3	8b 99 8c 00 00 00	movl	0x8c(%ecx), %ebx
000125d9	89 da	movl	%ebx, %edx
000125db	2b 57 30	subl	0x30(%edi), %edx
000125de	85 c0	testl	%eax, %eax
000125e0	74 02	je	0x125e4
000125e2	89 10	movl	%edx, P24C_SW_1ST_VECTOR_NUM(%eax)
000125e4	80 3d e8 c8 00 00 00	cmpb	$0x0, _gPerfLogEnable
000125eb	75 25	jne	0x12612
000125ed	8b 77 18	movl	0x18(%edi), %esi
000125f0	a1 f8 c8 00 00	movl	__ZN17IGMicroController9fInstanceE, %eax ## IGMicroController::fInstance
000125f5	8b 48 38	movl	0x38(%eax), %ecx
000125f8	89 f2	movl	%esi, %edx
000125fa	e8 27 6b 00 00	calll	__ZNK17IGMicroController15getStampAtIndexEj ## IGMicroController::getStampAtIndex(unsigned int) const
000125ff	80 3d e8 c8 00 00 00	cmpb	$0x0, _gPerfLogEnable
00012606	75 37	jne	0x1263f
00012608	89 5f 30	movl	%ebx, 0x30(%edi)
0001260b	83 c4 20	addl	$0x20, %esp
0001260e	5e	popl	%esi
0001260f	5f	popl	%edi
00012610	5b	popl	%ebx
00012611	c3	retl
00012612	8b 0d f8 c8 00 00	movl	__ZN17IGMicroController9fInstanceE, %ecx ## IGMicroController::fInstance
00012618	8b 07	movl	P24C_SW_1ST_VECTOR_NUM(%edi), %eax
0001261a	0f b6 77 2c	movzbl	0x2c(%edi), %esi
0001261e	89 54 24 10	movl	%edx, 0x10(%esp)
00012622	89 74 24 0c	movl	%esi, 0xc(%esp)
00012626	89 44 24 08	movl	%eax, 0x8(%esp)
0001262a	83 64 24 04 00	andl	$0x0, 0x4(%esp)
0001262f	83 24 24 00	andl	$0x0, P24C_SW_1ST_VECTOR_NUM(%esp)
00012633	ba 8c 01 a7 85	movl	$0x85a7018c, %edx
00012638	e8 ff 62 00 00	calll	__ZN17IGMicroController27perfLogAppendKdebugConstantEjyjjj ## IGMicroController::perfLogAppendKdebugConstant(unsigned int, unsigned long long, unsigned int, unsigned int, unsigned int)
0001263d	eb ae	jmp	0x125ed
0001263f	8b 00	movl	P24C_SW_1ST_VECTOR_NUM(%eax), %eax
00012641	8b 0d f8 c8 00 00	movl	__ZN17IGMicroController9fInstanceE, %ecx ## IGMicroController::fInstance
00012647	8b 17	movl	P24C_SW_1ST_VECTOR_NUM(%edi), %edx
00012649	89 44 24 10	movl	%eax, 0x10(%esp)
0001264d	89 74 24 0c	movl	%esi, 0xc(%esp)
00012651	89 54 24 08	movl	%edx, 0x8(%esp)
00012655	83 64 24 04 00	andl	$0x0, 0x4(%esp)
0001265a	83 24 24 00	andl	$0x0, P24C_SW_1ST_VECTOR_NUM(%esp)
0001265e	ba bc 01 a7 85	movl	$0x85a701bc, %edx
00012663	e8 d4 62 00 00	calll	__ZN17IGMicroController27perfLogAppendKdebugConstantEjyjjj ## IGMicroController::perfLogAppendKdebugConstant(unsigned int, unsigned long long, unsigned int, unsigned int, unsigned int)
00012668	eb 9e	jmp	0x12608
__ZN21IGCommandStreamerBase24engineWillSubmitExeclistEv:
0001266a	c3	retl
0001266b	90	nop
__ZN21IGCommandStreamerBase28engineProcessContextCompleteEv:
0001266c	c3	retl
0001266d	90	nop
__ZN21IGCommandStreamerBase26engineProcessElementSwitchEv:
0001266e	c3	retl
0001266f	90	nop
__ZN21IGCommandStreamerBase24updateContextRetiredTimeEv:
00012670	55	pushl	%ebp
00012671	53	pushl	%ebx
00012672	57	pushl	%edi
00012673	56	pushl	%esi
00012674	83 ec 0c	subl	$0xc, %esp
00012677	8b 4c 24 20	movl	0x20(%esp), %ecx
0001267b	8b 2d f8 c8 00 00	movl	__ZN17IGMicroController9fInstanceE, %ebp ## IGMicroController::fInstance
00012681	8b 41 20	movl	0x20(%ecx), %eax
00012684	8b 44 c1 0c	movl	0xc(%ecx,%eax,8), %eax
00012688	8b 30	movl	P24C_SW_1ST_VECTOR_NUM(%eax), %esi
0001268a	8b 46 18	movl	0x18(%esi), %eax
0001268d	89 44 24 08	movl	%eax, 0x8(%esp)
00012691	8b 4d 40	movl	0x40(%ebp), %ecx
00012694	6a 44	pushl	$0x44
00012696	5a	popl	%edx
00012697	e8 1a 67 00 00	calll	__ZNK17IGMicroController23getWorkQueueDescAtIndexEt ## IGMicroController::getWorkQueueDescAtIndex(unsigned short) const
0001269c	b9 40 f0 ff ff	movl	$0xfffff040, %ecx
000126a1	89 34 24	movl	%esi, P24C_SW_1ST_VECTOR_NUM(%esp)
000126a4	03 4e 10	addl	0x10(%esi), %ecx
000126a7	89 ca	movl	%ecx, %edx
000126a9	83 e2 f0	andl	$-0x10, %edx
000126ac	89 cf	movl	%ecx, %edi
000126ae	83 e7 0f	andl	$0xf, %edi
000126b1	83 c7 13	addl	$0x13, %edi
000126b4	83 e7 f0	andl	$-0x10, %edi
000126b7	01 d7	addl	%edx, %edi
000126b9	39 fa	cmpl	%edi, %edx
000126bb	73 08	jae	0x126c5
000126bd	0f ae 3a	clflush	P24C_SW_1ST_VECTOR_NUM(%edx)
000126c0	83 c2 10	addl	$0x10, %edx
000126c3	eb f4	jmp	0x126b9
000126c5	8b 31	movl	P24C_SW_1ST_VECTOR_NUM(%ecx), %esi
000126c7	8b 18	movl	P24C_SW_1ST_VECTOR_NUM(%eax), %ebx
000126c9	8b 78 40	movl	0x40(%eax), %edi
000126cc	8d 57 01	leal	0x1(%edi), %edx
000126cf	81 e2 ff 01 00 00	andl	$0x1ff, %edx
000126d5	39 da	cmpl	%ebx, %edx
000126d7	0f 84 ac 00 00 00	je	0x12789
000126dd	bb 00 f0 ff ff	movl	$0xfffff000, %ebx
000126e2	23 5d 7c	andl	0x7c(%ebp), %ebx
000126e5	89 74 24 04	movl	%esi, 0x4(%esp)
000126e9	8b 4c 24 20	movl	0x20(%esp), %ecx
000126ed	8b 69 20	movl	0x20(%ecx), %ebp
000126f0	8b 6c e9 0c	movl	0xc(%ecx,%ebp,8), %ebp
000126f4	89 f1	movl	%esi, %ecx
000126f6	8b 34 24	movl	P24C_SW_1ST_VECTOR_NUM(%esp), %esi
000126f9	2b 4e 38	subl	0x38(%esi), %ecx
000126fc	89 4d 34	movl	%ecx, 0x34(%ebp)
000126ff	c1 e7 06	shll	$0x6, %edi
00012702	8b 4d 00	movl	(%ebp), %ecx
00012705	8b 75 04	movl	0x4(%ebp), %esi
00012708	89 74 3b 04	movl	%esi, 0x4(%ebx,%edi)
0001270c	89 0c 3b	movl	%ecx, P24C_SW_1ST_VECTOR_NUM(%ebx,%edi)
0001270f	8b 4d 08	movl	0x8(%ebp), %ecx
00012712	89 4c 3b 08	movl	%ecx, 0x8(%ebx,%edi)
00012716	8b 4d 0c	movl	0xc(%ebp), %ecx
00012719	89 4c 3b 0c	movl	%ecx, 0xc(%ebx,%edi)
0001271d	8b 4d 10	movl	0x10(%ebp), %ecx
00012720	89 4c 3b 10	movl	%ecx, 0x10(%ebx,%edi)
00012724	8b 4d 14	movl	0x14(%ebp), %ecx
00012727	89 4c 3b 14	movl	%ecx, 0x14(%ebx,%edi)
0001272b	8b 4d 1c	movl	0x1c(%ebp), %ecx
0001272e	8b 75 20	movl	0x20(%ebp), %esi
00012731	89 74 3b 20	movl	%esi, 0x20(%ebx,%edi)
00012735	89 4c 3b 1c	movl	%ecx, 0x1c(%ebx,%edi)
00012739	8b 4d 24	movl	0x24(%ebp), %ecx
0001273c	8b 75 28	movl	0x28(%ebp), %esi
0001273f	89 74 3b 28	movl	%esi, 0x28(%ebx,%edi)
00012743	89 4c 3b 24	movl	%ecx, 0x24(%ebx,%edi)
00012747	8b 4d 2c	movl	0x2c(%ebp), %ecx
0001274a	8b 75 30	movl	0x30(%ebp), %esi
0001274d	89 74 3b 30	movl	%esi, 0x30(%ebx,%edi)
00012751	89 4c 3b 2c	movl	%ecx, 0x2c(%ebx,%edi)
00012755	8b 4d 18	movl	0x18(%ebp), %ecx
00012758	89 4c 3b 18	movl	%ecx, 0x18(%ebx,%edi)
0001275c	8b 4d 34	movl	0x34(%ebp), %ecx
0001275f	89 4c 3b 34	movl	%ecx, 0x34(%ebx,%edi)
00012763	8b 4d 38	movl	0x38(%ebp), %ecx
00012766	89 4c 3b 38	movl	%ecx, 0x38(%ebx,%edi)
0001276a	8b 4c 24 08	movl	0x8(%esp), %ecx
0001276e	89 4c 3b 10	movl	%ecx, 0x10(%ebx,%edi)
00012772	8b 4c 24 04	movl	0x4(%esp), %ecx
00012776	8b 34 24	movl	P24C_SW_1ST_VECTOR_NUM(%esp), %esi
00012779	89 4e 38	movl	%ecx, 0x38(%esi)
0001277c	c7 05 20 c0 e0 ff 01 00 00 00	movl	$0x1, -0x1f3fe0
00012786	89 50 40	movl	%edx, 0x40(%eax)
00012789	83 c4 0c	addl	$0xc, %esp
0001278c	5e	popl	%esi
0001278d	5f	popl	%edi
0001278e	5b	popl	%ebx
0001278f	5d	popl	%ebp
00012790	c3	retl
00012791	90	nop
__ZN21IGCommandStreamerBase19moveItemToWaitQueueEP12IGUkWorkItemibb:
00012792	55	pushl	%ebp
00012793	53	pushl	%ebx
00012794	57	pushl	%edi
00012795	56	pushl	%esi
00012796	83 ec 2c	subl	$0x2c, %esp
00012799	8b 6c 24 48	movl	0x48(%esp), %ebp
0001279d	8b 44 24 44	movl	0x44(%esp), %eax
000127a1	8b 18	movl	P24C_SW_1ST_VECTOR_NUM(%eax), %ebx
000127a3	8d 43 10	leal	0x10(%ebx), %eax
000127a6	89 c1	movl	%eax, %ecx
000127a8	83 e1 f0	andl	$-0x10, %ecx
000127ab	83 e0 0f	andl	$0xf, %eax
000127ae	83 c0 3f	addl	$0x3f, %eax
000127b1	83 e0 f0	andl	$-0x10, %eax
000127b4	01 c8	addl	%ecx, %eax
000127b6	39 c1	cmpl	%eax, %ecx
000127b8	73 08	jae	0x127c2
000127ba	0f ae 39	clflush	P24C_SW_1ST_VECTOR_NUM(%ecx)
000127bd	83 c1 10	addl	$0x10, %ecx
000127c0	eb f4	jmp	0x127b6
000127c2	8b 53 18	movl	0x18(%ebx), %edx
000127c5	89 d6	movl	%edx, %esi
000127c7	c1 e6 05	shll	$0x5, %esi
000127ca	03 74 24 40	addl	0x40(%esp), %esi
000127ce	c1 e5 04	shll	$0x4, %ebp
000127d1	8d bc 35 58 02 00 00	leal	0x258(%ebp,%esi), %edi
000127d8	83 3f 00	cmpl	$0x0, P24C_SW_1ST_VECTOR_NUM(%edi)
000127db	89 54 24 1c	movl	%edx, 0x1c(%esp)
000127df	0f 85 9b 01 00 00	jne	0x12980
000127e5	89 5c 24 24	movl	%ebx, 0x24(%esp)
000127e9	ff 43 28	incl	0x28(%ebx)
000127ec	8b 44 24 44	movl	0x44(%esp), %eax
000127f0	89 07	movl	%eax, P24C_SW_1ST_VECTOR_NUM(%edi)
000127f2	80 7c 24 4c 00	cmpb	$0x0, 0x4c(%esp)
000127f7	89 6c 24 28	movl	%ebp, 0x28(%esp)
000127fb	0f 84 86 00 00 00	je	0x12887
00012801	a1 f8 c8 00 00	movl	__ZN17IGMicroController9fInstanceE, %eax ## IGMicroController::fInstance
00012806	89 eb	movl	%ebp, %ebx
00012808	89 fd	movl	%edi, %ebp
0001280a	89 d7	movl	%edx, %edi
0001280c	83 c2 40	addl	$0x40, %edx
0001280f	8b 48 38	movl	0x38(%eax), %ecx
00012812	e8 0f 69 00 00	calll	__ZNK17IGMicroController15getStampAtIndexEj ## IGMicroController::getStampAtIndex(unsigned int) const
00012817	0f b7 50 04	movzwl	0x4(%eax), %edx
0001281b	8d 9c 33 60 02 00 00	leal	0x260(%ebx,%esi), %ebx
00012822	0f b7 4b 02	movzwl	0x2(%ebx), %ecx
00012826	c1 e1 10	shll	$0x10, %ecx
00012829	09 d1	orl	%edx, %ecx
0001282b	89 0b	movl	%ecx, P24C_SW_1ST_VECTOR_NUM(%ebx)
0001282d	8b 00	movl	P24C_SW_1ST_VECTOR_NUM(%eax), %eax
0001282f	89 43 04	movl	%eax, 0x4(%ebx)
00012832	89 6c 24 20	movl	%ebp, 0x20(%esp)
00012836	8b 45 00	movl	(%ebp), %eax
00012839	8b 50 14	movl	0x14(%eax), %edx
0001283c	f7 c2 00 00 60 00	testl	$0x600000, %edx
00012842	75 11	jne	0x12855
00012844	81 e2 ff ff 9f ff	andl	$0xff9fffff, %edx
0001284a	81 ca 00 00 40 00	orl	$0x400000, %edx
00012850	89 50 14	movl	%edx, 0x14(%eax)
00012853	8b 0b	movl	P24C_SW_1ST_VECTOR_NUM(%ebx), %ecx
00012855	89 c8	movl	%ecx, %eax
00012857	0d 00 00 02 00	orl	$0x20000, %eax
0001285c	89 03	movl	%eax, P24C_SW_1ST_VECTOR_NUM(%ebx)
0001285e	0f b7 c1	movzwl	%cx, %eax
00012861	8b 4c 24 40	movl	0x40(%esp), %ecx
00012865	8d 4c c1 58	leal	0x58(%ecx,%eax,8), %ecx
00012869	89 fa	movl	%edi, %edx
0001286b	e8 64 02 00 00	calll	__ZN10IGUkBitSetILj64EE3setEj ## IGUkBitSet<64u>::set(unsigned int)
00012870	80 3d e8 c8 00 00 00	cmpb	$0x0, _gPerfLogEnable
00012877	89 fa	movl	%edi, %edx
00012879	8b 6c 24 28	movl	0x28(%esp), %ebp
0001287d	8b 7c 24 20	movl	0x20(%esp), %edi
00012881	0f 85 07 01 00 00	jne	0x1298e
00012887	80 7c 24 50 00	cmpb	$0x0, 0x50(%esp)
0001288c	74 51	je	0x128df
0001288e	80 3d e8 c8 00 00 00	cmpb	$0x0, _gPerfLogEnable
00012895	0f 85 3b 01 00 00	jne	0x129d6
0001289b	b0 04	movb	$0x4, %al
0001289d	08 84 35 62 02 00 00	orb	%al, 0x262(%ebp,%esi)
000128a4	8b 07	movl	P24C_SW_1ST_VECTOR_NUM(%edi), %eax
000128a6	8b 48 14	movl	0x14(%eax), %ecx
000128a9	f6 c1 04	testb	$0x4, %cl
000128ac	74 2a	je	0x128d8
000128ae	89 d3	movl	%edx, %ebx
000128b0	f7 c1 00 00 60 00	testl	$0x600000, %ecx
000128b6	74 07	je	0x128bf
000128b8	ba 00 00 40 00	movl	$0x400000, %edx
000128bd	eb 0c	jmp	0x128cb
000128bf	8d 91 00 00 20 00	leal	0x200000(%ecx), %edx
000128c5	81 e2 00 00 60 00	andl	$0x600000, %edx
000128cb	81 e1 ff ff 9f ff	andl	$0xff9fffff, %ecx
000128d1	09 d1	orl	%edx, %ecx
000128d3	89 48 14	movl	%ecx, 0x14(%eax)
000128d6	89 da	movl	%ebx, %edx
000128d8	8b 44 24 24	movl	0x24(%esp), %eax
000128dc	ff 40 34	incl	0x34(%eax)
000128df	8b 4c 24 40	movl	0x40(%esp), %ecx
000128e3	83 c1 50	addl	$0x50, %ecx
000128e6	89 f5	movl	%esi, %ebp
000128e8	89 d6	movl	%edx, %esi
000128ea	e8 e5 01 00 00	calll	__ZN10IGUkBitSetILj64EE3setEj ## IGUkBitSet<64u>::set(unsigned int)
000128ef	a1 f8 c8 00 00	movl	__ZN17IGMicroController9fInstanceE, %eax ## IGMicroController::fInstance
000128f4	bb 00 f0 ff ff	movl	$0xfffff000, %ebx
000128f9	23 58 34	andl	0x34(%eax), %ebx
000128fc	8b 07	movl	P24C_SW_1ST_VECTOR_NUM(%edi), %eax
000128fe	8b 00	movl	P24C_SW_1ST_VECTOR_NUM(%eax), %eax
00012900	8b 48 08	movl	0x8(%eax), %ecx
00012903	8b 40 0c	movl	0xc(%eax), %eax
00012906	6b d6 1d	imull	$0x1d, %esi, %edx
00012909	89 84 13 a8 00 00 00	movl	%eax, 0xa8(%ebx,%edx)
00012910	89 8c 13 a4 00 00 00	movl	%ecx, 0xa4(%ebx,%edx)
00012917	8b 07	movl	P24C_SW_1ST_VECTOR_NUM(%edi), %eax
00012919	8b 40 08	movl	0x8(%eax), %eax
0001291c	89 84 13 ac 00 00 00	movl	%eax, 0xac(%ebx,%edx)
00012923	8b 07	movl	P24C_SW_1ST_VECTOR_NUM(%edi), %eax
00012925	8b 40 10	movl	0x10(%eax), %eax
00012928	89 84 13 b0 00 00 00	movl	%eax, SEMAPHORE_VECTOR_2(%ebx,%edx)
0001292f	8b 4c 24 28	movl	0x28(%esp), %ecx
00012933	0f b7 84 29 60 02 00 00	movzwl	0x260(%ecx,%ebp), %eax
0001293b	89 84 13 b4 00 00 00	movl	%eax, SEMAPHORE_VECTOR_6(%ebx,%edx)
00012942	8b 84 29 64 02 00 00	movl	0x264(%ecx,%ebp), %eax
00012949	89 84 13 b8 00 00 00	movl	%eax, 0xb8(%ebx,%edx)
00012950	8b 84 29 60 02 00 00	movl	0x260(%ecx,%ebp), %eax
00012957	c1 e8 12	shrl	$0x12, %eax
0001295a	24 01	andb	$0x1, %al
0001295c	88 84 13 bc 00 00 00	movb	%al, 0xbc(%ebx,%edx)
00012963	31 f6	xorl	%esi, %esi
00012965	46	incl	%esi
00012966	8b 44 24 1c	movl	0x1c(%esp), %eax
0001296a	89 c1	movl	%eax, %ecx
0001296c	d3 e6	shll	%cl, %esi
0001296e	6a 20	pushl	$0x20
00012970	59	popl	%ecx
00012971	99	cltd
00012972	f7 f9	idivl	%ecx
00012974	09 74 83 04	orl	%esi, 0x4(%ebx,%eax,4)
00012978	83 c4 2c	addl	$0x2c, %esp
0001297b	5e	popl	%esi
0001297c	5f	popl	%edi
0001297d	5b	popl	%ebx
0001297e	5d	popl	%ebp
0001297f	c3	retl
00012980	e8 cd f2 ff ff	calll	_assertionFailed
00012985	8b 54 24 1c	movl	0x1c(%esp), %edx
00012989	e9 57 fe ff ff	jmp	0x127e5
0001298e	8d 84 35 64 02 00 00	leal	0x264(%ebp,%esi), %eax
00012995	8b 0d f8 c8 00 00	movl	__ZN17IGMicroController9fInstanceE, %ecx ## IGMicroController::fInstance
0001299b	8b 54 24 40	movl	0x40(%esp), %edx
0001299f	0f b6 52 24	movzbl	0x24(%edx), %edx
000129a3	8d 14 95 50 01 a7 85	leal	-0x7a58feb0(,%edx,4), %edx
000129aa	0f b7 1b	movzwl	P24C_SW_1ST_VECTOR_NUM(%ebx), %ebx
000129ad	8b 00	movl	P24C_SW_1ST_VECTOR_NUM(%eax), %eax
000129af	89 44 24 10	movl	%eax, 0x10(%esp)
000129b3	89 5c 24 0c	movl	%ebx, 0xc(%esp)
000129b7	8b 44 24 1c	movl	0x1c(%esp), %eax
000129bb	89 44 24 08	movl	%eax, 0x8(%esp)
000129bf	83 64 24 04 00	andl	$0x0, 0x4(%esp)
000129c4	83 24 24 00	andl	$0x0, P24C_SW_1ST_VECTOR_NUM(%esp)
000129c8	e8 6f 5f 00 00	calll	__ZN17IGMicroController27perfLogAppendKdebugConstantEjyjjj ## IGMicroController::perfLogAppendKdebugConstant(unsigned int, unsigned long long, unsigned int, unsigned int, unsigned int)
000129cd	8b 54 24 1c	movl	0x1c(%esp), %edx
000129d1	e9 b1 fe ff ff	jmp	0x12887
000129d6	a1 f8 c8 00 00	movl	__ZN17IGMicroController9fInstanceE, %eax ## IGMicroController::fInstance
000129db	89 44 24 20	movl	%eax, 0x20(%esp)
000129df	8b 44 24 40	movl	0x40(%esp), %eax
000129e3	0f b6 40 24	movzbl	0x24(%eax), %eax
000129e7	89 d3	movl	%edx, %ebx
000129e9	8d 14 85 64 01 a7 85	leal	-0x7a58fe9c(,%eax,4), %edx
000129f0	8b 4c 24 24	movl	0x24(%esp), %ecx
000129f4	8b 41 28	movl	0x28(%ecx), %eax
000129f7	8b 49 34	movl	0x34(%ecx), %ecx
000129fa	89 44 24 10	movl	%eax, 0x10(%esp)
000129fe	89 4c 24 0c	movl	%ecx, 0xc(%esp)
00012a02	89 5c 24 08	movl	%ebx, 0x8(%esp)
00012a06	83 64 24 04 00	andl	$0x0, 0x4(%esp)
00012a0b	83 24 24 00	andl	$0x0, P24C_SW_1ST_VECTOR_NUM(%esp)
00012a0f	8b 4c 24 20	movl	0x20(%esp), %ecx
00012a13	e8 24 5f 00 00	calll	__ZN17IGMicroController27perfLogAppendKdebugConstantEjyjjj ## IGMicroController::perfLogAppendKdebugConstant(unsigned int, unsigned long long, unsigned int, unsigned int, unsigned int)
00012a18	89 da	movl	%ebx, %edx
00012a1a	e9 7c fe ff ff	jmp	0x1289b
00012a1f	90	nop
__ZN21IGCommandStreamerBase10retireItemEP12IGUkWorkItem:
00012a20	57	pushl	%edi
00012a21	56	pushl	%esi
00012a22	50	pushl	%eax
00012a23	8b 7c 24 14	movl	0x14(%esp), %edi
00012a27	8b 74 24 10	movl	0x10(%esp), %esi
00012a2b	8b 06	movl	P24C_SW_1ST_VECTOR_NUM(%esi), %eax
00012a2d	89 34 24	movl	%esi, P24C_SW_1ST_VECTOR_NUM(%esp)
00012a30	ff 50 2c	calll	*0x2c(%eax)
00012a33	8b 07	movl	P24C_SW_1ST_VECTOR_NUM(%edi), %eax
00012a35	8d 48 20	leal	0x20(%eax), %ecx
00012a38	89 ca	movl	%ecx, %edx
00012a3a	83 e2 f0	andl	$-0x10, %edx
00012a3d	83 e1 0f	andl	$0xf, %ecx
00012a40	83 c1 1f	addl	$0x1f, %ecx
00012a43	83 e1 f0	andl	$-0x10, %ecx
00012a46	01 d1	addl	%edx, %ecx
00012a48	39 ca	cmpl	%ecx, %edx
00012a4a	73 08	jae	0x12a54
00012a4c	0f ae 3a	clflush	P24C_SW_1ST_VECTOR_NUM(%edx)
00012a4f	83 c2 10	addl	$0x10, %edx
00012a52	eb f4	jmp	0x12a48
00012a54	0f b7 50 18	movzwl	0x18(%eax), %edx
00012a58	a1 f8 c8 00 00	movl	__ZN17IGMicroController9fInstanceE, %eax ## IGMicroController::fInstance
00012a5d	8b 48 40	movl	0x40(%eax), %ecx
00012a60	e8 51 63 00 00	calll	__ZNK17IGMicroController23getWorkQueueDescAtIndexEt ## IGMicroController::getWorkQueueDescAtIndex(unsigned short) const
00012a65	8b 4f 38	movl	0x38(%edi), %ecx
00012a68	89 08	movl	%ecx, P24C_SW_1ST_VECTOR_NUM(%eax)
00012a6a	89 c1	movl	%eax, %ecx
00012a6c	83 e1 f0	andl	$-0x10, %ecx
00012a6f	83 e0 0f	andl	$0xf, %eax
00012a72	83 c0 4f	addl	$0x4f, %eax
00012a75	83 e0 d0	andl	$-0x30, %eax
00012a78	01 c8	addl	%ecx, %eax
00012a7a	39 c1	cmpl	%eax, %ecx
00012a7c	73 08	jae	0x12a86
00012a7e	0f ae 39	clflush	P24C_SW_1ST_VECTOR_NUM(%ecx)
00012a81	83 c1 10	addl	$0x10, %ecx
00012a84	eb f4	jmp	0x12a7a
00012a86	c7 05 20 c0 e0 ff 01 00 00 00	movl	$0x1, -0x1f3fe0
00012a90	89 f8	movl	%edi, %eax
00012a92	83 e0 f0	andl	$-0x10, %eax
00012a95	83 e7 0f	andl	$0xf, %edi
00012a98	83 c7 4f	addl	$0x4f, %edi
00012a9b	83 e7 d0	andl	$-0x30, %edi
00012a9e	01 c7	addl	%eax, %edi
00012aa0	39 f8	cmpl	%edi, %eax
00012aa2	73 08	jae	0x12aac
00012aa4	0f ae 38	clflush	P24C_SW_1ST_VECTOR_NUM(%eax)
00012aa7	83 c0 10	addl	$0x10, %eax
00012aaa	eb f4	jmp	0x12aa0
00012aac	c7 05 20 c0 e0 ff 01 00 00 00	movl	$0x1, -0x1f3fe0
00012ab6	a1 f8 c8 00 00	movl	__ZN17IGMicroController9fInstanceE, %eax ## IGMicroController::fInstance
00012abb	0f b6 56 24	movzbl	0x24(%esi), %edx
00012abf	8b 48 20	movl	0x20(%eax), %ecx
00012ac2	83 c4 04	addl	$0x4, %esp
00012ac5	5e	popl	%esi
00012ac6	5f	popl	%edi
00012ac7	e9 3c 67 00 00	jmp	__ZN17IGMicroController26updateCSSubmissionsRetiredE10IGHwCsType ## IGMicroController::updateCSSubmissionsRetired(IGHwCsType)
__ZNK21IGCommandStreamerBase19isPreemptionAllowedEv:
00012acc	31 c0	xorl	%eax, %eax
00012ace	c3	retl
00012acf	90	nop
__ZN21IGCommandStreamerBase15allowPreemptionEv:
00012ad0	c3	retl
00012ad1	90	nop
__ZN21IGCommandStreamerBase18disallowPreemptionEv:
00012ad2	c3	retl
00012ad3	90	nop
__ZN10IGUkBitSetILj64EE3setEj:
00012ad4	53	pushl	%ebx
00012ad5	56	pushl	%esi
00012ad6	50	pushl	%eax
00012ad7	89 d3	movl	%edx, %ebx
00012ad9	89 ce	movl	%ecx, %esi
00012adb	89 d1	movl	%edx, %ecx
00012add	e8 16 00 00 00	calll	__ZNK10IGUkBitSetILj64EE12assertBoundsEj ## IGUkBitSet<64u>::assertBounds(unsigned int) const
00012ae2	89 d8	movl	%ebx, %eax
00012ae4	c1 e8 05	shrl	$0x5, %eax
00012ae7	31 d2	xorl	%edx, %edx
00012ae9	42	incl	%edx
00012aea	89 d9	movl	%ebx, %ecx
00012aec	d3 e2	shll	%cl, %edx
00012aee	09 14 86	orl	%edx, P24C_SW_1ST_VECTOR_NUM(%esi,%eax,4)
00012af1	83 c4 04	addl	$0x4, %esp
00012af4	5e	popl	%esi
00012af5	5b	popl	%ebx
00012af6	c3	retl
00012af7	90	nop
__ZNK10IGUkBitSetILj64EE12assertBoundsEj:
00012af8	83 f9 40	cmpl	$0x40, %ecx
00012afb	0f 83 51 f1 ff ff	jae	_assertionFailed
00012b01	c3	retl
__ZNK21IGCommandStreamerBase28getCurrentExecListDumpStatusEPjPiS0_:
00012b02	55	pushl	%ebp
00012b03	53	pushl	%ebx
00012b04	57	pushl	%edi
00012b05	56	pushl	%esi
00012b06	50	pushl	%eax
00012b07	89 14 24	movl	%edx, P24C_SW_1ST_VECTOR_NUM(%esp)
00012b0a	31 c0	xorl	%eax, %eax
00012b0c	8b 5c 24 1c	movl	0x1c(%esp), %ebx
00012b10	8b 7c 24 18	movl	0x18(%esp), %edi
00012b14	83 f8 02	cmpl	$0x2, %eax
00012b17	74 68	je	0x12b81
00012b19	8b 71 20	movl	0x20(%ecx), %esi
00012b1c	8d 34 f1	leal	P24C_SW_1ST_VECTOR_NUM(%ecx,%esi,8), %esi
00012b1f	8b 74 86 0c	movl	0xc(%esi,%eax,4), %esi
00012b23	85 f6	testl	%esi, %esi
00012b25	74 27	je	0x12b4e
00012b27	8b 36	movl	P24C_SW_1ST_VECTOR_NUM(%esi), %esi
00012b29	85 f6	testl	%esi, %esi
00012b2b	74 21	je	0x12b4e
00012b2d	89 da	movl	%ebx, %edx
00012b2f	89 f5	movl	%esi, %ebp
00012b31	83 e5 f0	andl	$-0x10, %ebp
00012b34	89 f3	movl	%esi, %ebx
00012b36	83 e3 0f	andl	$0xf, %ebx
00012b39	83 c3 2f	addl	$0x2f, %ebx
00012b3c	83 e3 f0	andl	$-0x10, %ebx
00012b3f	01 eb	addl	%ebp, %ebx
00012b41	39 dd	cmpl	%ebx, %ebp
00012b43	73 18	jae	0x12b5d
00012b45	0f ae 7d 00	clflush	(%ebp)
00012b49	83 c5 10	addl	$0x10, %ebp
00012b4c	eb f3	jmp	0x12b41
00012b4e	8b 14 24	movl	P24C_SW_1ST_VECTOR_NUM(%esp), %edx
00012b51	83 24 82 00	andl	$0x0, P24C_SW_1ST_VECTOR_NUM(%edx,%eax,4)
00012b55	83 0c 87 ff	orl	$-0x1, P24C_SW_1ST_VECTOR_NUM(%edi,%eax,4)
00012b59	31 f6	xorl	%esi, %esi
00012b5b	eb 1e	jmp	0x12b7b
00012b5d	8b 1e	movl	P24C_SW_1ST_VECTOR_NUM(%esi), %ebx
00012b5f	8b 2c 24	movl	P24C_SW_1ST_VECTOR_NUM(%esp), %ebp
00012b62	89 5c 85 00	movl	%ebx, (%ebp,%eax,4)
00012b66	8b 76 18	movl	0x18(%esi), %esi
00012b69	89 34 87	movl	%esi, P24C_SW_1ST_VECTOR_NUM(%edi,%eax,4)
00012b6c	8b 71 20	movl	0x20(%ecx), %esi
00012b6f	8d 34 f1	leal	P24C_SW_1ST_VECTOR_NUM(%ecx,%esi,8), %esi
00012b72	8b 74 86 0c	movl	0xc(%esi,%eax,4), %esi
00012b76	8b 76 10	movl	0x10(%esi), %esi
00012b79	89 d3	movl	%edx, %ebx
00012b7b	89 34 83	movl	%esi, P24C_SW_1ST_VECTOR_NUM(%ebx,%eax,4)
00012b7e	40	incl	%eax
00012b7f	eb 93	jmp	0x12b14
00012b81	83 c4 04	addl	$0x4, %esp
00012b84	5e	popl	%esi
00012b85	5f	popl	%edi
00012b86	5b	popl	%ebx
00012b87	5d	popl	%ebp
00012b88	c3	retl
00012b89	90	nop
__ZN10IGUkBitSetILj64EEC2ERKS0_:
00012b8a	56	pushl	%esi
00012b8b	6a f8	pushl	$-0x8
00012b8d	58	popl	%eax
00012b8e	85 c0	testl	%eax, %eax
00012b90	74 0d	je	0x12b9f
00012b92	8b 74 02 08	movl	0x8(%edx,%eax), %esi
00012b96	89 74 01 08	movl	%esi, 0x8(%ecx,%eax)
00012b9a	83 c0 04	addl	$0x4, %eax
00012b9d	eb ef	jmp	0x12b8e
00012b9f	5e	popl	%esi
00012ba0	c3	retl
00012ba1	90	nop
__ZN10IGUkBitSetILj64EE5resetEj:
00012ba2	53	pushl	%ebx
00012ba3	56	pushl	%esi
00012ba4	50	pushl	%eax
00012ba5	89 d3	movl	%edx, %ebx
00012ba7	89 ce	movl	%ecx, %esi
00012ba9	89 d1	movl	%edx, %ecx
00012bab	e8 48 ff ff ff	calll	__ZNK10IGUkBitSetILj64EE12assertBoundsEj ## IGUkBitSet<64u>::assertBounds(unsigned int) const
00012bb0	89 d8	movl	%ebx, %eax
00012bb2	c1 e8 05	shrl	$0x5, %eax
00012bb5	6a fe	pushl	$-0x2
00012bb7	5a	popl	%edx
00012bb8	89 d9	movl	%ebx, %ecx
00012bba	d3 c2	roll	%cl, %edx
00012bbc	21 14 86	andl	%edx, P24C_SW_1ST_VECTOR_NUM(%esi,%eax,4)
00012bbf	83 c4 04	addl	$0x4, %esp
00012bc2	5e	popl	%esi
00012bc3	5b	popl	%ebx
00012bc4	c3	retl
00012bc5	90	nop
__ZN10IGUkBitSetILj64EE5resetERKS0_:
00012bc6	56	pushl	%esi
00012bc7	6a f8	pushl	$-0x8
00012bc9	58	popl	%eax
00012bca	85 c0	testl	%eax, %eax
00012bcc	74 0f	je	0x12bdd
00012bce	8b 74 02 08	movl	0x8(%edx,%eax), %esi
00012bd2	f7 d6	notl	%esi
00012bd4	21 74 01 08	andl	%esi, 0x8(%ecx,%eax)
00012bd8	83 c0 04	addl	$0x4, %eax
00012bdb	eb ed	jmp	0x12bca
00012bdd	5e	popl	%esi
00012bde	c3	retl
00012bdf	90	nop
__ZNK10IGUkBitSetILj64EE3anyEv:
00012be0	6a f8	pushl	$-0x8
00012be2	58	popl	%eax
00012be3	8b 4c 24 04	movl	0x4(%esp), %ecx
00012be7	85 c0	testl	%eax, %eax
00012be9	74 0d	je	0x12bf8
00012beb	83 7c 01 08 00	cmpl	$0x0, 0x8(%ecx,%eax)
00012bf0	8d 40 04	leal	0x4(%eax), %eax
00012bf3	74 f2	je	0x12be7
00012bf5	b0 01	movb	$0x1, %al
00012bf7	c3	retl
00012bf8	31 c0	xorl	%eax, %eax
00012bfa	c3	retl
00012bfb	90	nop
__ZN21IGCommandStreamerBase22getFirstWorkQueueIndexERK10IGUkBitSetILj64EEPj:
00012bfc	57	pushl	%edi
00012bfd	56	pushl	%esi
00012bfe	50	pushl	%eax
00012bff	89 d6	movl	%edx, %esi
00012c01	89 cf	movl	%ecx, %edi
00012c03	8b 12	movl	P24C_SW_1ST_VECTOR_NUM(%edx), %edx
00012c05	e8 5c 01 00 00	calll	__ZNK10IGUkBitSetILj64EE4testEj ## IGUkBitSet<64u>::test(unsigned int) const
00012c0a	84 c0	testb	%al, %al
00012c0c	75 0a	jne	0x12c18
00012c0e	89 f9	movl	%edi, %ecx
00012c10	e8 1b 01 00 00	calll	__ZNK10IGUkBitSetILj64EE5beginEv ## IGUkBitSet<64u>::begin() const
00012c15	4a	decl	%edx
00012c16	89 16	movl	%edx, P24C_SW_1ST_VECTOR_NUM(%esi)
00012c18	83 c4 04	addl	$0x4, %esp
00012c1b	5e	popl	%esi
00012c1c	5f	popl	%edi
00012c1d	c3	retl
__ZN21IGCommandStreamerBase17updateContextTailEP12IGUkWorkItem:
00012c1e	56	pushl	%esi
00012c1f	8b 01	movl	P24C_SW_1ST_VECTOR_NUM(%ecx), %eax
00012c21	83 c0 10	addl	$0x10, %eax
00012c24	89 c2	movl	%eax, %edx
00012c26	83 e2 f0	andl	$-0x10, %edx
00012c29	89 c6	movl	%eax, %esi
00012c2b	83 e6 0f	andl	$0xf, %esi
00012c2e	83 c6 1f	addl	$0x1f, %esi
00012c31	83 e6 f0	andl	$-0x10, %esi
00012c34	01 d6	addl	%edx, %esi
00012c36	39 f2	cmpl	%esi, %edx
00012c38	73 08	jae	0x12c42
00012c3a	0f ae 3a	clflush	P24C_SW_1ST_VECTOR_NUM(%edx)
00012c3d	83 c2 10	addl	$0x10, %edx
00012c40	eb f4	jmp	0x12c36
00012c42	8b 00	movl	P24C_SW_1ST_VECTOR_NUM(%eax), %eax
00012c44	83 c1 08	addl	$0x8, %ecx
00012c47	89 ca	movl	%ecx, %edx
00012c49	83 e2 f0	andl	$-0x10, %edx
00012c4c	89 ce	movl	%ecx, %esi
00012c4e	83 e6 0f	andl	$0xf, %esi
00012c51	83 c6 1f	addl	$0x1f, %esi
00012c54	83 e6 f0	andl	$-0x10, %esi
00012c57	01 d6	addl	%edx, %esi
00012c59	39 f2	cmpl	%esi, %edx
00012c5b	73 08	jae	0x12c65
00012c5d	0f ae 3a	clflush	P24C_SW_1ST_VECTOR_NUM(%edx)
00012c60	83 c2 10	addl	$0x10, %edx
00012c63	eb f4	jmp	0x12c59
00012c65	8b 09	movl	P24C_SW_1ST_VECTOR_NUM(%ecx), %ecx
00012c67	89 48 1c	movl	%ecx, 0x1c(%eax)
00012c6a	83 c0 1c	addl	$0x1c, %eax
00012c6d	89 c1	movl	%eax, %ecx
00012c6f	83 e1 f0	andl	$-0x10, %ecx
00012c72	83 e0 0f	andl	$0xf, %eax
00012c75	83 c0 1f	addl	$0x1f, %eax
00012c78	83 e0 f0	andl	$-0x10, %eax
00012c7b	01 c8	addl	%ecx, %eax
00012c7d	39 c1	cmpl	%eax, %ecx
00012c7f	73 08	jae	0x12c89
00012c81	0f ae 39	clflush	P24C_SW_1ST_VECTOR_NUM(%ecx)
00012c84	83 c1 10	addl	$0x10, %ecx
00012c87	eb f4	jmp	0x12c7d
00012c89	c7 05 20 c0 e0 ff 01 00 00 00	movl	$0x1, -0x1f3fe0
00012c93	5e	popl	%esi
00012c94	c3	retl
00012c95	90	nop
__ZN21IGCommandStreamerBase21getNextWorkQueueIndexERK10IGUkBitSetILj64EEPj:
00012c96	53	pushl	%ebx
00012c97	57	pushl	%edi
00012c98	56	pushl	%esi
00012c99	83 ec 10	subl	$0x10, %esp
00012c9c	89 d6	movl	%edx, %esi
00012c9e	89 cf	movl	%ecx, %edi
00012ca0	89 0c 24	movl	%ecx, P24C_SW_1ST_VECTOR_NUM(%esp)
00012ca3	e8 38 ff ff ff	calll	__ZNK10IGUkBitSetILj64EE3anyEv ## IGUkBitSet<64u>::any() const
00012ca8	84 c0	testb	%al, %al
00012caa	74 29	je	0x12cd5
00012cac	8b 1e	movl	P24C_SW_1ST_VECTOR_NUM(%esi), %ebx
00012cae	89 d9	movl	%ebx, %ecx
00012cb0	e8 43 fe ff ff	calll	__ZNK10IGUkBitSetILj64EE12assertBoundsEj ## IGUkBitSet<64u>::assertBounds(unsigned int) const
00012cb5	43	incl	%ebx
00012cb6	8d 4c 24 08	leal	0x8(%esp), %ecx
00012cba	89 59 04	movl	%ebx, 0x4(%ecx)
00012cbd	89 39	movl	%edi, P24C_SW_1ST_VECTOR_NUM(%ecx)
00012cbf	e8 18 00 00 00	calll	__ZN10IGUkBitSetILj64EE13ConstIteratorppEv ## IGUkBitSet<64u>::ConstIterator::operator++()
00012cc4	8b 50 04	movl	0x4(%eax), %edx
00012cc7	85 d2	testl	%edx, %edx
00012cc9	75 07	jne	0x12cd2
00012ccb	89 f9	movl	%edi, %ecx
00012ccd	e8 5e 00 00 00	calll	__ZNK10IGUkBitSetILj64EE5beginEv ## IGUkBitSet<64u>::begin() const
00012cd2	4a	decl	%edx
00012cd3	89 16	movl	%edx, P24C_SW_1ST_VECTOR_NUM(%esi)
00012cd5	83 c4 10	addl	$0x10, %esp
00012cd8	5e	popl	%esi
00012cd9	5f	popl	%edi
00012cda	5b	popl	%ebx
00012cdb	c3	retl
__ZN10IGUkBitSetILj64EE13ConstIteratorppEv:
00012cdc	55	pushl	%ebp
00012cdd	53	pushl	%ebx
00012cde	57	pushl	%edi
00012cdf	56	pushl	%esi
00012ce0	89 c8	movl	%ecx, %eax
00012ce2	8b 49 04	movl	0x4(%ecx), %ecx
00012ce5	83 f9 3f	cmpl	$0x3f, %ecx
00012ce8	77 42	ja	0x12d2c
00012cea	8b 30	movl	P24C_SW_1ST_VECTOR_NUM(%eax), %esi
00012cec	89 ca	movl	%ecx, %edx
00012cee	c1 ea 05	shrl	$0x5, %edx
00012cf1	8b 2c 96	movl	P24C_SW_1ST_VECTOR_NUM(%esi,%edx,4), %ebp
00012cf4	d3 ed	shrl	%cl, %ebp
00012cf6	d3 e5	shll	%cl, %ebp
00012cf8	31 ff	xorl	%edi, %edi
00012cfa	4f	decl	%edi
00012cfb	31 db	xorl	%ebx, %ebx
00012cfd	43	incl	%ebx
00012cfe	85 ed	testl	%ebp, %ebp
00012d00	75 04	jne	0x12d06
00012d02	89 f9	movl	%edi, %ecx
00012d04	eb 03	jmp	0x12d09
00012d06	0f bc cd	bsfl	%ebp, %ecx
00012d09	41	incl	%ecx
00012d0a	89 d5	movl	%edx, %ebp
00012d0c	09 cd	orl	%ecx, %ebp
00012d0e	75 08	jne	0x12d18
00012d10	8b 6c 96 04	movl	0x4(%esi,%edx,4), %ebp
00012d14	89 da	movl	%ebx, %edx
00012d16	eb e6	jmp	0x12cfe
00012d18	85 c9	testl	%ecx, %ecx
00012d1a	74 08	je	0x12d24
00012d1c	42	incl	%edx
00012d1d	c1 e2 05	shll	$0x5, %edx
00012d20	8d 4c 11 e0	leal	-0x20(%ecx,%edx), %ecx
00012d24	89 48 04	movl	%ecx, 0x4(%eax)
00012d27	5e	popl	%esi
00012d28	5f	popl	%edi
00012d29	5b	popl	%ebx
00012d2a	5d	popl	%ebp
00012d2b	c3	retl
00012d2c	31 c9	xorl	%ecx, %ecx
00012d2e	eb f4	jmp	0x12d24
__ZNK10IGUkBitSetILj64EE5beginEv:
00012d30	57	pushl	%edi
00012d31	56	pushl	%esi
00012d32	89 c8	movl	%ecx, %eax
00012d34	31 f6	xorl	%esi, %esi
00012d36	6a e0	pushl	$-0x20
00012d38	59	popl	%ecx
00012d39	31 ff	xorl	%edi, %edi
00012d3b	4f	decl	%edi
00012d3c	31 d2	xorl	%edx, %edx
00012d3e	83 fe 01	cmpl	$0x1, %esi
00012d41	77 19	ja	0x12d5c
00012d43	85 d2	testl	%edx, %edx
00012d45	75 15	jne	0x12d5c
00012d47	8b 14 b0	movl	P24C_SW_1ST_VECTOR_NUM(%eax,%esi,4), %edx
00012d4a	85 d2	testl	%edx, %edx
00012d4c	75 04	jne	0x12d52
00012d4e	89 fa	movl	%edi, %edx
00012d50	eb 03	jmp	0x12d55
00012d52	0f bc d2	bsfl	%edx, %edx
00012d55	46	incl	%esi
00012d56	42	incl	%edx
00012d57	83 c1 20	addl	$0x20, %ecx
00012d5a	eb e2	jmp	0x12d3e
00012d5c	85 d2	testl	%edx, %edx
00012d5e	74 02	je	0x12d62
00012d60	01 ca	addl	%ecx, %edx
00012d62	5e	popl	%esi
00012d63	5f	popl	%edi
00012d64	c3	retl
00012d65	90	nop
__ZNK10IGUkBitSetILj64EE4testEj:
00012d66	57	pushl	%edi
00012d67	56	pushl	%esi
00012d68	50	pushl	%eax
00012d69	89 d6	movl	%edx, %esi
00012d6b	89 cf	movl	%ecx, %edi
00012d6d	89 d1	movl	%edx, %ecx
00012d6f	e8 84 fd ff ff	calll	__ZNK10IGUkBitSetILj64EE12assertBoundsEj ## IGUkBitSet<64u>::assertBounds(unsigned int) const
00012d74	89 f0	movl	%esi, %eax
00012d76	c1 e8 05	shrl	$0x5, %eax
00012d79	8b 04 87	movl	P24C_SW_1ST_VECTOR_NUM(%edi,%eax,4), %eax
00012d7c	0f a3 f0	btl	%esi, %eax
00012d7f	0f 92 c0	setb	%al
00012d82	83 c4 04	addl	$0x4, %esp
00012d85	5e	popl	%esi
00012d86	5f	popl	%edi
00012d87	c3	retl
__ZN23IGRenderCommandStreamer4initE10IGHwCsType:
00012d88	57	pushl	%edi
00012d89	56	pushl	%esi
00012d8a	8a 44 24 10	movb	0x10(%esp), %al
00012d8e	8b 4c 24 0c	movl	0xc(%esp), %ecx
00012d92	88 41 24	movb	%al, 0x24(%ecx)
00012d95	6a 04	pushl	$0x4
00012d97	58	popl	%eax
00012d98	89 81 6c 0a 00 00	movl	%eax, 0xa6c(%ecx)
00012d9e	31 d2	xorl	%edx, %edx
00012da0	42	incl	%edx
00012da1	89 91 74 0a 00 00	movl	%edx, 0xa74(%ecx)
00012da7	6a 03	pushl	$0x3
00012da9	5e	popl	%esi
00012daa	89 b1 90 0a 00 00	movl	%esi, 0xa90(%ecx)
00012db0	6a 02	pushl	$0x2
00012db2	5f	popl	%edi
00012db3	89 b9 98 0a 00 00	movl	%edi, 0xa98(%ecx)
00012db9	89 b9 b4 0a 00 00	movl	%edi, 0xab4(%ecx)
00012dbf	89 b1 bc 0a 00 00	movl	%esi, 0xabc(%ecx)
00012dc5	89 91 d8 0a 00 00	movl	%edx, 0xad8(%ecx)
00012dcb	89 81 e0 0a 00 00	movl	%eax, 0xae0(%ecx)
00012dd1	c6 81 15 0b 00 00 00	movb	$0x0, 0xb15(%ecx)
00012dd8	c7 81 18 0b 00 00 06 00 00 00	movl	$0x6, 0xb18(%ecx)
00012de2	b0 01	movb	$0x1, %al
00012de4	5e	popl	%esi
00012de5	5f	popl	%edi
00012de6	c3	retl
00012de7	90	nop
__ZN23IGRenderCommandStreamer4bindEt:
00012de8	83 ec 0c	subl	$0xc, %esp
00012deb	8b 44 24 10	movl	0x10(%esp), %eax
00012def	8b 0d f8 c8 00 00	movl	__ZN17IGMicroController9fInstanceE, %ecx ## IGMicroController::fInstance
00012df5	f6 41 3c 01	testb	$0x1, 0x3c(%ecx)
00012df9	0f b7 54 24 14	movzwl	0x14(%esp), %edx
00012dfe	75 0e	jne	0x12e0e
00012e00	89 d1	movl	%edx, %ecx
00012e02	c1 e9 02	shrl	$0x2, %ecx
00012e05	0f b6 89 4c 9a 01 00	movzbl	__ZL34kStampIndexPriorityMappingTableRCS(%ecx), %ecx ## kStampIndexPriorityMappingTableRCS
00012e0c	eb 03	jmp	0x12e11
00012e0e	6a 02	pushl	$0x2
00012e10	59	popl	%ecx
00012e11	6b c9 24	imull	$0x24, %ecx, %ecx
00012e14	8d 8c 08 5c 0a 00 00	leal	0xa5c(%eax,%ecx), %ecx
00012e1b	e8 b4 fc ff ff	calll	__ZN10IGUkBitSetILj64EE3setEj ## IGUkBitSet<64u>::set(unsigned int)
00012e20	83 c4 0c	addl	$0xc, %esp
00012e23	e9 bc ee ff ff	jmp	__ZN21IGCommandStreamerBase4bindEt ## IGCommandStreamerBase::bind(unsigned short)
__ZN23IGRenderCommandStreamer6unbindEt:
00012e28	83 ec 0c	subl	$0xc, %esp
00012e2b	8b 44 24 10	movl	0x10(%esp), %eax
00012e2f	8b 0d f8 c8 00 00	movl	__ZN17IGMicroController9fInstanceE, %ecx ## IGMicroController::fInstance
00012e35	f6 41 3c 01	testb	$0x1, 0x3c(%ecx)
00012e39	0f b7 54 24 14	movzwl	0x14(%esp), %edx
00012e3e	75 0e	jne	0x12e4e
00012e40	89 d1	movl	%edx, %ecx
00012e42	c1 e9 02	shrl	$0x2, %ecx
00012e45	0f b6 89 4c 9a 01 00	movzbl	__ZL34kStampIndexPriorityMappingTableRCS(%ecx), %ecx ## kStampIndexPriorityMappingTableRCS
00012e4c	eb 03	jmp	0x12e51
00012e4e	6a 02	pushl	$0x2
00012e50	59	popl	%ecx
00012e51	6b c9 24	imull	$0x24, %ecx, %ecx
00012e54	8d 8c 08 5c 0a 00 00	leal	0xa5c(%eax,%ecx), %ecx
00012e5b	e8 42 fd ff ff	calll	__ZN10IGUkBitSetILj64EE5resetEj ## IGUkBitSet<64u>::reset(unsigned int)
00012e60	83 c4 0c	addl	$0xc, %esp
00012e63	e9 8e ee ff ff	jmp	__ZN21IGCommandStreamerBase6unbindEt ## IGCommandStreamerBase::unbind(unsigned short)
__ZN23IGRenderCommandStreamer20prepareForQueuesEvalEv:
00012e68	55	pushl	%ebp
00012e69	53	pushl	%ebx
00012e6a	57	pushl	%edi
00012e6b	56	pushl	%esi
00012e6c	83 ec 1c	subl	$0x1c, %esp
00012e6f	8b 6c 24 30	movl	0x30(%esp), %ebp
00012e73	8b 45 00	movl	(%ebp), %eax
00012e76	89 2c 24	movl	%ebp, P24C_SW_1ST_VECTOR_NUM(%esp)
00012e79	ff 50 38	calll	*0x38(%eax)
00012e7c	8b 4d 20	movl	0x20(%ebp), %ecx
00012e7f	84 c0	testb	%al, %al
00012e81	74 36	je	0x12eb9
00012e83	8b 44 cd 0c	movl	0xc(%ebp,%ecx,8), %eax
00012e87	85 c0	testl	%eax, %eax
00012e89	74 32	je	0x12ebd
00012e8b	0f b7 50 16	movzwl	0x16(%eax), %edx
00012e8f	83 e2 1f	andl	$0x1f, %edx
00012e92	74 29	je	0x12ebd
00012e94	8b 44 cd 10	movl	0x10(%ebp,%ecx,8), %eax
00012e98	85 c0	testl	%eax, %eax
00012e9a	74 0b	je	0x12ea7
00012e9c	0f b7 78 16	movzwl	0x16(%eax), %edi
00012ea0	83 e7 1f	andl	$0x1f, %edi
00012ea3	39 d7	cmpl	%edx, %edi
00012ea5	72 02	jb	0x12ea9
00012ea7	31 c0	xorl	%eax, %eax
00012ea9	31 d2	xorl	%edx, %edx
00012eab	42	incl	%edx
00012eac	29 ca	subl	%ecx, %edx
00012eae	89 44 d5 0c	movl	%eax, 0xc(%ebp,%edx,8)
00012eb2	83 64 d5 10 00	andl	$0x0, 0x10(%ebp,%edx,8)
00012eb7	eb 15	jmp	0x12ece
00012eb9	8b 44 cd 0c	movl	0xc(%ebp,%ecx,8), %eax
00012ebd	31 d2	xorl	%edx, %edx
00012ebf	42	incl	%edx
00012ec0	29 ca	subl	%ecx, %edx
00012ec2	89 44 d5 0c	movl	%eax, 0xc(%ebp,%edx,8)
00012ec6	8b 44 cd 10	movl	0x10(%ebp,%ecx,8), %eax
00012eca	89 44 d5 10	movl	%eax, 0x10(%ebp,%edx,8)
00012ece	8b 3d f8 c8 00 00	movl	__ZN17IGMicroController9fInstanceE, %edi ## IGMicroController::fInstance
00012ed4	8b 47 3c	movl	0x3c(%edi), %eax
00012ed7	a8 10	testb	$0x10, %al
00012ed9	75 3a	jne	0x12f15
00012edb	80 bd 15 0b 00 00 00	cmpb	$0x0, 0xb15(%ebp)
00012ee2	74 7e	je	0x12f62
00012ee4	c7 85 6c 0a 00 00 04 00 00 00	movl	$0x4, 0xa6c(%ebp)
00012eee	c7 85 90 0a 00 00 03 00 00 00	movl	$0x3, 0xa90(%ebp)
00012ef8	c7 85 b4 0a 00 00 02 00 00 00	movl	$P24C_SW_INTR_GRP, 0xab4(%ebp)
00012f02	c7 85 d8 0a 00 00 01 00 00 00	movl	$0x1, 0xad8(%ebp)
00012f0c	c6 85 15 0b 00 00 00	movb	$0x0, 0xb15(%ebp)
00012f13	eb 4d	jmp	0x12f62
00012f15	89 c1	movl	%eax, %ecx
00012f17	c1 e9 08	shrl	$0x8, %ecx
00012f1a	6a 3f	pushl	$0x3f
00012f1c	5a	popl	%edx
00012f1d	21 d1	andl	%edx, %ecx
00012f1f	89 4c 24 0c	movl	%ecx, 0xc(%esp)
00012f23	89 c1	movl	%eax, %ecx
00012f25	c1 e9 0e	shrl	$0xe, %ecx
00012f28	21 d1	andl	%edx, %ecx
00012f2a	89 4c 24 10	movl	%ecx, 0x10(%esp)
00012f2e	89 c1	movl	%eax, %ecx
00012f30	c1 e9 14	shrl	$0x14, %ecx
00012f33	21 d1	andl	%edx, %ecx
00012f35	89 4c 24 14	movl	%ecx, 0x14(%esp)
00012f39	c1 e8 1a	shrl	$0x1a, %eax
00012f3c	89 44 24 18	movl	%eax, 0x18(%esp)
00012f40	8d 85 6c 0a 00 00	leal	0xa6c(%ebp), %eax
00012f46	6a f0	pushl	$-0x10
00012f48	59	popl	%ecx
00012f49	85 c9	testl	%ecx, %ecx
00012f4b	74 0e	je	0x12f5b
00012f4d	8b 54 0c 1c	movl	0x1c(%esp,%ecx), %edx
00012f51	89 10	movl	%edx, P24C_SW_1ST_VECTOR_NUM(%eax)
00012f53	83 c0 24	addl	$0x24, %eax
00012f56	83 c1 04	addl	$0x4, %ecx
00012f59	eb ee	jmp	0x12f49
00012f5b	c6 85 15 0b 00 00 01	movb	$0x1, 0xb15(%ebp)
00012f62	8b 87 64 43 00 00	movl	0x4364(%edi), %eax
00012f68	b9 ff 00 00 00	movl	$SPURIOUS_VECTOR, %ecx
00012f6d	89 c2	movl	%eax, %edx
00012f6f	21 ca	andl	%ecx, %edx
00012f71	89 54 24 0c	movl	%edx, 0xc(%esp)
00012f75	89 c2	movl	%eax, %edx
00012f77	c1 ea 08	shrl	$0x8, %edx
00012f7a	21 ca	andl	%ecx, %edx
00012f7c	89 54 24 10	movl	%edx, 0x10(%esp)
00012f80	89 c2	movl	%eax, %edx
00012f82	c1 ea 10	shrl	$0x10, %edx
00012f85	21 ca	andl	%ecx, %edx
00012f87	89 54 24 14	movl	%edx, 0x14(%esp)
00012f8b	c1 e8 18	shrl	$0x18, %eax
00012f8e	89 44 24 18	movl	%eax, 0x18(%esp)
00012f92	31 c9	xorl	%ecx, %ecx
00012f94	6a dc	pushl	$-0x24
00012f96	5b	popl	%ebx
00012f97	85 db	testl	%ebx, %ebx
00012f99	74 5a	je	0x12ff5
00012f9b	31 c0	xorl	%eax, %eax
00012f9d	40	incl	%eax
00012f9e	d3 e0	shll	%cl, %eax
00012fa0	23 87 68 43 00 00	andl	0x4368(%edi), %eax
00012fa6	a8 0f	testb	$0xf, %al
00012fa8	74 3c	je	0x12fe6
00012faa	6b 84 8d 00 0b 00 00 0a	imull	$0xa, 0xb00(%ebp,%ecx,4), %eax
00012fb2	31 d2	xorl	%edx, %edx
00012fb4	f7 b7 20 04 00 00	divl	0x420(%edi)
00012fba	8b 54 8c 0c	movl	0xc(%esp,%ecx,4), %edx
00012fbe	0f af c2	imull	%edx, %eax
00012fc1	6a 64	pushl	$0x64
00012fc3	5e	popl	%esi
00012fc4	29 d6	subl	%edx, %esi
00012fc6	31 d2	xorl	%edx, %edx
00012fc8	f7 f6	divl	%esi
00012fca	ba a0 86 01 00	movl	$0x186a0, %edx
00012fcf	39 d0	cmpl	%edx, %eax
00012fd1	72 05	jb	0x12fd8
00012fd3	b8 a0 86 01 00	movl	$0x186a0, %eax
00012fd8	89 84 9d 08 0b 00 00	movl	%eax, 0xb08(%ebp,%ebx,4)
00012fdf	85 c0	testl	%eax, %eax
00012fe1	0f 95 c0	setne	%al
00012fe4	eb 02	jmp	0x12fe8
00012fe6	31 c0	xorl	%eax, %eax
00012fe8	88 84 0d ec 0a 00 00	movb	%al, 0xaec(%ebp,%ecx)
00012fef	41	incl	%ecx
00012ff0	83 c3 09	addl	$0x9, %ebx
00012ff3	eb a2	jmp	0x12f97
00012ff5	83 c4 1c	addl	$0x1c, %esp
00012ff8	5e	popl	%esi
00012ff9	5f	popl	%edi
00012ffa	5b	popl	%ebx
00012ffb	5d	popl	%ebp
00012ffc	c3	retl
00012ffd	90	nop
__ZN23IGRenderCommandStreamer15evalReschedItemEPK12IGUkWorkItem:
00012ffe	8b 44 24 04	movl	0x4(%esp), %eax
00013002	8b 4c 24 08	movl	0x8(%esp), %ecx
00013006	8b 09	movl	P24C_SW_1ST_VECTOR_NUM(%ecx), %ecx
00013008	0f b6 49 2c	movzbl	0x2c(%ecx), %ecx
0001300c	80 bc 08 ec 0a 00 00 00	cmpb	$0x0, 0xaec(%eax,%ecx)
00013014	0f 94 c0	sete	%al
00013017	c3	retl
__ZN23IGRenderCommandStreamer14evalWorkQueuesEPjj:
00013018	55	pushl	%ebp
00013019	53	pushl	%ebx
0001301a	57	pushl	%edi
0001301b	56	pushl	%esi
0001301c	81 ec 8c 00 00 00	subl	$0x8c, %esp
00013022	8b 0d f8 c8 00 00	movl	__ZN17IGMicroController9fInstanceE, %ecx ## IGMicroController::fInstance
00013028	f6 41 3c 01	testb	$0x1, 0x3c(%ecx)
0001302c	0f 85 41 08 00 00	jne	0x13873
00013032	8b 9c 24 a8 00 00 00	movl	0xa8(%esp), %ebx
00013039	8b 84 24 a4 00 00 00	movl	0xa4(%esp), %eax
00013040	89 44 24 44	movl	%eax, 0x44(%esp)
00013044	8b b4 24 a0 00 00 00	movl	0xa0(%esp), %esi
0001304b	80 3d e8 c8 00 00 00	cmpb	$0x0, _gPerfLogEnable
00013052	0f 85 af 08 00 00	jne	0x13907
00013058	8b 06	movl	P24C_SW_1ST_VECTOR_NUM(%esi), %eax
0001305a	89 34 24	movl	%esi, P24C_SW_1ST_VECTOR_NUM(%esp)
0001305d	ff 50 38	calll	*0x38(%eax)
00013060	88 44 24 2b	movb	%al, 0x2b(%esp)
00013064	c7 44 24 70 00 00 00 00	movl	$P24C_SW_1ST_VECTOR_NUM, 0x70(%esp)
0001306c	0f ba e3 08	btl	$0x8, %ebx
00013070	73 15	jae	0x13087
00013072	31 c0	xorl	%eax, %eax
00013074	40	incl	%eax
00013075	2b 46 20	subl	0x20(%esi), %eax
00013078	8b 44 c6 0c	movl	0xc(%esi,%eax,8), %eax
0001307c	0f b7 40 16	movzwl	0x16(%eax), %eax
00013080	83 e0 1f	andl	$0x1f, %eax
00013083	89 44 24 70	movl	%eax, 0x70(%esp)
00013087	6a 04	pushl	$0x4
00013089	58	popl	%eax
0001308a	89 44 24 74	movl	%eax, 0x74(%esp)
0001308e	80 7c 24 2b 00	cmpb	$0x0, 0x2b(%esp)
00013093	74 21	je	0x130b6
00013095	8b 46 20	movl	0x20(%esi), %eax
00013098	8b 44 c6 0c	movl	0xc(%esi,%eax,8), %eax
0001309c	85 c0	testl	%eax, %eax
0001309e	74 16	je	0x130b6
000130a0	0f b7 48 16	movzwl	0x16(%eax), %ecx
000130a4	83 e1 1f	andl	$0x1f, %ecx
000130a7	6a 04	pushl	$0x4
000130a9	58	popl	%eax
000130aa	89 4c 24 74	movl	%ecx, 0x74(%esp)
000130ae	39 c1	cmpl	%eax, %ecx
000130b0	72 04	jb	0x130b6
000130b2	89 44 24 74	movl	%eax, 0x74(%esp)
000130b6	89 d8	movl	%ebx, %eax
000130b8	83 e0 20	andl	$0x20, %eax
000130bb	89 44 24 6c	movl	%eax, 0x6c(%esp)
000130bf	81 e3 20 01 00 00	andl	$0x120, %ebx
000130c5	89 5c 24 7c	movl	%ebx, 0x7c(%esp)
000130c9	8d 46 50	leal	0x50(%esi), %eax
000130cc	89 84 24 88 00 00 00	movl	%eax, DB_VECTOR_1(%esp)
000130d3	31 c9	xorl	%ecx, %ecx
000130d5	31 d2	xorl	%edx, %edx
000130d7	42	incl	%edx
000130d8	8b 6c 24 70	movl	0x70(%esp), %ebp
000130dc	31 c0	xorl	%eax, %eax
000130de	c7 44 24 50 00 00 00 00	movl	$P24C_SW_1ST_VECTOR_NUM, 0x50(%esp)
000130e6	31 db	xorl	%ebx, %ebx
000130e8	89 5c 24 18	movl	%ebx, 0x18(%esp)
000130ec	83 e3 08	andl	$0x8, %ebx
000130ef	89 df	movl	%ebx, %edi
000130f1	c1 eb 03	shrl	$0x3, %ebx
000130f4	89 6c 24 58	movl	%ebp, 0x58(%esp)
000130f8	3b 6c 24 74	cmpl	0x74(%esp), %ebp
000130fc	73 0a	jae	0x13108
000130fe	89 fd	movl	%edi, %ebp
00013100	85 ff	testl	%edi, %edi
00013102	0f 84 f3 00 00 00	je	0x131fb
00013108	80 3d e8 c8 00 00 00	cmpb	$0x0, _gPerfLogEnable
0001310f	75 6b	jne	0x1317c
00013111	a8 01	testb	$0x1, %al
00013113	0f 94 c0	sete	%al
00013116	08 d8	orb	%bl, %al
00013118	0f 85 64 07 00 00	jne	0x13882
0001311e	80 7c 24 2b 00	cmpb	$0x0, 0x2b(%esp)
00013123	75 17	jne	0x1313c
00013125	89 d0	movl	%edx, %eax
00013127	2b 46 20	subl	0x20(%esi), %eax
0001312a	83 7c c6 0c 00	cmpl	$0x0, 0xc(%esi,%eax,8)
0001312f	74 0b	je	0x1313c
00013131	83 7c c6 10 00	cmpl	$0x0, 0x10(%esi,%eax,8)
00013136	0f 85 46 07 00 00	jne	0x13882
0001313c	80 3d e8 c8 00 00 00	cmpb	$0x0, _gPerfLogEnable
00013143	0f 85 82 00 00 00	jne	0x131cb
00013149	b8 70 ff ff ff	movl	$0xffffff70, %eax
0001314e	85 c0	testl	%eax, %eax
00013150	74 1d	je	0x1316f
00013152	83 bc 06 f8 0a 00 00 00	cmpl	$0x0, 0xaf8(%esi,%eax)
0001315a	7f 0e	jg	0x1316a
0001315c	8b 8c 06 fc 0a 00 00	movl	0xafc(%esi,%eax), %ecx
00013163	89 8c 06 f8 0a 00 00	movl	%ecx, 0xaf8(%esi,%eax)
0001316a	83 c0 24	addl	$0x24, %eax
0001316d	eb df	jmp	0x1314e
0001316f	31 c9	xorl	%ecx, %ecx
00013171	8b 6c 24 70	movl	0x70(%esp), %ebp
00013175	31 c0	xorl	%eax, %eax
00013177	e9 78 ff ff ff	jmp	0x130f4
0001317c	89 4c 24 3c	movl	%ecx, 0x3c(%esp)
00013180	8b 0d f8 c8 00 00	movl	__ZN17IGMicroController9fInstanceE, %ecx ## IGMicroController::fInstance
00013186	89 44 24 2c	movl	%eax, 0x2c(%esp)
0001318a	8b 86 68 0a 00 00	movl	0xa68(%esi), %eax
00013190	8b 96 8c 0a 00 00	movl	0xa8c(%esi), %edx
00013196	8b ae b0 0a 00 00	movl	0xab0(%esi), %ebp
0001319c	89 6c 24 10	movl	%ebp, 0x10(%esp)
000131a0	89 54 24 0c	movl	%edx, 0xc(%esp)
000131a4	89 44 24 08	movl	%eax, 0x8(%esp)
000131a8	83 64 24 04 00	andl	$0x0, 0x4(%esp)
000131ad	83 24 24 00	andl	$0x0, P24C_SW_1ST_VECTOR_NUM(%esp)
000131b1	ba b4 01 a7 85	movl	$0x85a701b4, %edx
000131b6	e8 81 57 00 00	calll	__ZN17IGMicroController27perfLogAppendKdebugConstantEjyjjj ## IGMicroController::perfLogAppendKdebugConstant(unsigned int, unsigned long long, unsigned int, unsigned int, unsigned int)
000131bb	8b 44 24 2c	movl	0x2c(%esp), %eax
000131bf	8b 4c 24 3c	movl	0x3c(%esp), %ecx
000131c3	31 d2	xorl	%edx, %edx
000131c5	42	incl	%edx
000131c6	e9 46 ff ff ff	jmp	0x13111
000131cb	8b 0d f8 c8 00 00	movl	__ZN17IGMicroController9fInstanceE, %ecx ## IGMicroController::fInstance
000131d1	83 64 24 10 00	andl	$0x0, 0x10(%esp)
000131d6	83 64 24 0c 00	andl	$0x0, 0xc(%esp)
000131db	83 64 24 08 00	andl	$0x0, 0x8(%esp)
000131e0	83 64 24 04 00	andl	$0x0, 0x4(%esp)
000131e5	83 24 24 00	andl	$0x0, P24C_SW_1ST_VECTOR_NUM(%esp)
000131e9	ba b0 01 a7 85	movl	$0x85a701b0, %edx
000131ee	e8 49 57 00 00	calll	__ZN17IGMicroController27perfLogAppendKdebugConstantEjyjjj ## IGMicroController::perfLogAppendKdebugConstant(unsigned int, unsigned long long, unsigned int, unsigned int, unsigned int)
000131f3	31 d2	xorl	%edx, %edx
000131f5	42	incl	%edx
000131f6	e9 4e ff ff ff	jmp	0x13149
000131fb	8b 5c 24 58	movl	0x58(%esp), %ebx
000131ff	80 bc 1e ec 0a 00 00 00	cmpb	$0x0, 0xaec(%esi,%ebx)
00013207	0f 84 90 00 00 00	je	0x1329d
0001320d	89 44 24 2c	movl	%eax, 0x2c(%esp)
00013211	6b c3 24	imull	$0x24, %ebx, %eax
00013214	80 bc 06 7c 0a 00 00 00	cmpb	$0x0, 0xa7c(%esi,%eax)
0001321c	75 76	jne	0x13294
0001321e	89 4c 24 3c	movl	%ecx, 0x3c(%esp)
00013222	89 d1	movl	%edx, %ecx
00013224	2b 4e 20	subl	0x20(%esi), %ecx
00013227	8b 4c ce 0c	movl	0xc(%esi,%ecx,8), %ecx
0001322b	85 c9	testl	%ecx, %ecx
0001322d	74 10	je	0x1323f
0001322f	8b 09	movl	P24C_SW_1ST_VECTOR_NUM(%ecx), %ecx
00013231	0f b6 49 2c	movzbl	0x2c(%ecx), %ecx
00013235	80 bc 0e ec 0a 00 00 00	cmpb	$0x0, 0xaec(%esi,%ecx)
0001323d	75 51	jne	0x13290
0001323f	8d ac 06 7c 0a 00 00	leal	0xa7c(%esi,%eax), %ebp
00013246	b1 01	movb	$0x1, %cl
00013248	88 4d 00	movb	%cl, (%ebp)
0001324b	8b 0d f8 c8 00 00	movl	__ZN17IGMicroController9fInstanceE, %ecx ## IGMicroController::fInstance
00013251	8b 55 f8	movl	-0x8(%ebp), %edx
00013254	8b 3d 80 00 e0 fe	movl	-0x11fff80, %edi
0001325a	c7 05 80 00 e0 fe f0 00 00 00	movl	$0xf0, -0x11fff80
00013264	89 d3	movl	%edx, %ebx
00013266	c1 e3 05	shll	$0x5, %ebx
00013269	b0 01	movb	$0x1, %al
0001326b	88 84 19 e8 02 00 00	movb	%al, 0x2e8(%ecx,%ebx)
00013272	8b 5c 24 58	movl	0x58(%esp), %ebx
00013276	81 c1 d4 02 00 00	addl	$0x2d4, %ecx
0001327c	89 3d 80 00 e0 fe	movl	%edi, -0x11fff80
00013282	8b 45 fc	movl	-0x4(%ebp), %eax
00013285	89 04 24	movl	%eax, P24C_SW_1ST_VECTOR_NUM(%esp)
00013288	e8 45 63 00 00	calll	__ZN17IGGucTimerManager12setTimeoutUSE16IGGucTimerTaskIdjb ## IGGucTimerManager::setTimeoutUS(IGGucTimerTaskId, unsigned int, bool)
0001328d	31 d2	xorl	%edx, %edx
0001328f	42	incl	%edx
00013290	8b 4c 24 3c	movl	0x3c(%esp), %ecx
00013294	8b 44 24 2c	movl	0x2c(%esp), %eax
00013298	e9 ca 05 00 00	jmp	0x13867
0001329d	6b fb 24	imull	$0x24, %ebx, %edi
000132a0	83 bc 3e 68 0a 00 00 00	cmpl	$0x0, 0xa68(%esi,%edi)
000132a8	8d 5c 24 30	leal	0x30(%esp), %ebx
000132ac	0f 84 af 05 00 00	je	0x13861
000132b2	89 44 24 2c	movl	%eax, 0x2c(%esp)
000132b6	89 4c 24 3c	movl	%ecx, 0x3c(%esp)
000132ba	8d 94 3e 5c 0a 00 00	leal	0xa5c(%esi,%edi), %edx
000132c1	89 d9	movl	%ebx, %ecx
000132c3	e8 c2 f8 ff ff	calll	__ZN10IGUkBitSetILj64EEC2ERKS0_ ## IGUkBitSet<64u>::IGUkBitSet(IGUkBitSet<64u> const&)
000132c8	83 7c 24 7c 00	cmpl	$0x0, 0x7c(%esp)
000132cd	74 16	je	0x132e5
000132cf	31 c0	xorl	%eax, %eax
000132d1	40	incl	%eax
000132d2	2b 46 20	subl	0x20(%esi), %eax
000132d5	8b 44 c6 0c	movl	0xc(%esi,%eax,8), %eax
000132d9	8b 00	movl	P24C_SW_1ST_VECTOR_NUM(%eax), %eax
000132db	8b 50 18	movl	0x18(%eax), %edx
000132de	89 d9	movl	%ebx, %ecx
000132e0	e8 bd f8 ff ff	calll	__ZN10IGUkBitSetILj64EE5resetEj ## IGUkBitSet<64u>::reset(unsigned int)
000132e5	80 7c 24 2b 00	cmpb	$0x0, 0x2b(%esp)
000132ea	74 2e	je	0x1331a
000132ec	8b 46 20	movl	0x20(%esi), %eax
000132ef	8b 4c c6 0c	movl	0xc(%esi,%eax,8), %ecx
000132f3	85 c9	testl	%ecx, %ecx
000132f5	74 0f	je	0x13306
000132f7	8b 01	movl	P24C_SW_1ST_VECTOR_NUM(%ecx), %eax
000132f9	8b 50 18	movl	0x18(%eax), %edx
000132fc	89 d9	movl	%ebx, %ecx
000132fe	e8 9f f8 ff ff	calll	__ZN10IGUkBitSetILj64EE5resetEj ## IGUkBitSet<64u>::reset(unsigned int)
00013303	8b 46 20	movl	0x20(%esi), %eax
00013306	8b 44 c6 10	movl	0x10(%esi,%eax,8), %eax
0001330a	85 c0	testl	%eax, %eax
0001330c	74 0c	je	0x1331a
0001330e	8b 00	movl	P24C_SW_1ST_VECTOR_NUM(%eax), %eax
00013310	8b 50 18	movl	0x18(%eax), %edx
00013313	89 d9	movl	%ebx, %ecx
00013315	e8 88 f8 ff ff	calll	__ZN10IGUkBitSetILj64EE5resetEj ## IGUkBitSet<64u>::reset(unsigned int)
0001331a	89 d9	movl	%ebx, %ecx
0001331c	8b 94 24 88 00 00 00	movl	DB_VECTOR_1(%esp), %edx
00013323	e8 9e f8 ff ff	calll	__ZN10IGUkBitSetILj64EE5resetERKS0_ ## IGUkBitSet<64u>::reset(IGUkBitSet<64u> const&)
00013328	89 1c 24	movl	%ebx, P24C_SW_1ST_VECTOR_NUM(%esp)
0001332b	e8 b0 f8 ff ff	calll	__ZNK10IGUkBitSetILj64EE3anyEv ## IGUkBitSet<64u>::any() const
00013330	84 c0	testb	%al, %al
00013332	0f 84 1c 05 00 00	je	0x13854
00013338	8d ac 3e 68 0a 00 00	leal	0xa68(%esi,%edi), %ebp
0001333f	8d 94 3e 64 0a 00 00	leal	0xa64(%esi,%edi), %edx
00013346	89 d9	movl	%ebx, %ecx
00013348	89 54 24 54	movl	%edx, 0x54(%esp)
0001334c	e8 ab f8 ff ff	calll	__ZN21IGCommandStreamerBase22getFirstWorkQueueIndexERK10IGUkBitSetILj64EEPj ## IGCommandStreamerBase::getFirstWorkQueueIndex(IGUkBitSet<64u> const&, unsigned int*)
00013351	8b 44 24 58	movl	0x58(%esp), %eax
00013355	83 e0 1f	andl	$0x1f, %eax
00013358	c1 e0 10	shll	$0x10, %eax
0001335b	89 84 24 84 00 00 00	movl	%eax, 0x84(%esp)
00013362	c7 84 24 80 00 00 00 00 00 00 00	movl	$P24C_SW_1ST_VECTOR_NUM, 0x80(%esp)
0001336d	c7 44 24 78 00 00 00 00	movl	$P24C_SW_1ST_VECTOR_NUM, 0x78(%esp)
00013375	89 6c 24 5c	movl	%ebp, 0x5c(%esp)
00013379	89 1c 24	movl	%ebx, P24C_SW_1ST_VECTOR_NUM(%esp)
0001337c	e8 5f f8 ff ff	calll	__ZNK10IGUkBitSetILj64EE3anyEv ## IGUkBitSet<64u>::any() const
00013381	84 c0	testb	%al, %al
00013383	0f 84 cb 04 00 00	je	0x13854
00013389	8b 44 24 18	movl	0x18(%esp), %eax
0001338d	83 e0 08	andl	$0x8, %eax
00013390	0f 85 be 04 00 00	jne	0x13854
00013396	a1 f8 c8 00 00	movl	__ZN17IGMicroController9fInstanceE, %eax ## IGMicroController::fInstance
0001339b	8b 4c 24 54	movl	0x54(%esp), %ecx
0001339f	0f b7 11	movzwl	P24C_SW_1ST_VECTOR_NUM(%ecx), %edx
000133a2	8b 48 40	movl	0x40(%eax), %ecx
000133a5	e8 0c 5a 00 00	calll	__ZNK17IGMicroController23getWorkQueueDescAtIndexEt ## IGMicroController::getWorkQueueDescAtIndex(unsigned short) const
000133aa	89 c1	movl	%eax, %ecx
000133ac	8b 40 18	movl	0x18(%eax), %eax
000133af	8b 79 40	movl	0x40(%ecx), %edi
000133b2	89 cd	movl	%ecx, %ebp
000133b4	83 e5 f0	andl	$-0x10, %ebp
000133b7	89 cb	movl	%ecx, %ebx
000133b9	83 e3 0f	andl	$0xf, %ebx
000133bc	81 c3 8f 00 00 00	addl	$0x8f, %ebx
000133c2	83 e3 90	andl	$-0x70, %ebx
000133c5	01 eb	addl	%ebp, %ebx
000133c7	31 d2	xorl	%edx, %edx
000133c9	42	incl	%edx
000133ca	89 4c 24 24	movl	%ecx, 0x24(%esp)
000133ce	89 44 24 60	movl	%eax, 0x60(%esp)
000133d2	39 f8	cmpl	%edi, %eax
000133d4	75 1e	jne	0x133f4
000133d6	89 e8	movl	%ebp, %eax
000133d8	39 d8	cmpl	%ebx, %eax
000133da	73 08	jae	0x133e4
000133dc	0f ae 38	clflush	P24C_SW_1ST_VECTOR_NUM(%eax)
000133df	83 c0 10	addl	$0x10, %eax
000133e2	eb f4	jmp	0x133d8
000133e4	8b 79 40	movl	0x40(%ecx), %edi
000133e7	8b 44 24 60	movl	0x60(%esp), %eax
000133eb	39 f8	cmpl	%edi, %eax
000133ed	75 e3	jne	0x133d2
000133ef	e9 84 03 00 00	jmp	0x13778
000133f4	8b 49 04	movl	0x4(%ecx), %ecx
000133f7	c1 e0 06	shll	$0x6, %eax
000133fa	89 4c 24 18	movl	%ecx, 0x18(%esp)
000133fe	89 44 24 40	movl	%eax, 0x40(%esp)
00013402	01 c1	addl	%eax, %ecx
00013404	89 c8	movl	%ecx, %eax
00013406	83 e0 f0	andl	$-0x10, %eax
00013409	89 4c 24 1c	movl	%ecx, 0x1c(%esp)
0001340d	83 e1 0f	andl	$0xf, %ecx
00013410	83 c1 4f	addl	$0x4f, %ecx
00013413	83 e1 d0	andl	$-0x30, %ecx
00013416	01 c1	addl	%eax, %ecx
00013418	39 c8	cmpl	%ecx, %eax
0001341a	73 08	jae	0x13424
0001341c	0f ae 38	clflush	P24C_SW_1ST_VECTOR_NUM(%eax)
0001341f	83 c0 10	addl	$0x10, %eax
00013422	eb f4	jmp	0x13418
00013424	8b 44 24 18	movl	0x18(%esp), %eax
00013428	8b 4c 24 40	movl	0x40(%esp), %ecx
0001342c	f6 44 08 14 10	testb	$0x10, 0x14(%eax,%ecx)
00013431	74 10	je	0x13443
00013433	8b 44 24 60	movl	0x60(%esp), %eax
00013437	40	incl	%eax
00013438	25 ff 01 00 00	andl	$0x1ff, %eax
0001343d	8b 4c 24 24	movl	0x24(%esp), %ecx
00013441	eb 8b	jmp	0x133ce
00013443	8d 4c 08 14	leal	0x14(%eax,%ecx), %ecx
00013447	89 d0	movl	%edx, %eax
00013449	2b 46 20	subl	0x20(%esi), %eax
0001344c	8b 54 c6 10	movl	0x10(%esi,%eax,8), %edx
00013450	85 d2	testl	%edx, %edx
00013452	0f 84 04 01 00 00	je	0x1355c
00013458	89 4c 24 68	movl	%ecx, 0x68(%esp)
0001345c	8b 44 24 1c	movl	0x1c(%esp), %eax
00013460	8b 08	movl	P24C_SW_1ST_VECTOR_NUM(%eax), %ecx
00013462	89 4c 24 4c	movl	%ecx, 0x4c(%esp)
00013466	8b 48 04	movl	0x4(%eax), %ecx
00013469	33 4a 04	xorl	0x4(%edx), %ecx
0001346c	8b 02	movl	P24C_SW_1ST_VECTOR_NUM(%edx), %eax
0001346e	33 44 24 4c	xorl	0x4c(%esp), %eax
00013472	09 c8	orl	%ecx, %eax
00013474	0f 85 97 03 00 00	jne	0x13811
0001347a	8b 44 24 44	movl	0x44(%esp), %eax
0001347e	81 78 04 ff 00 00 00	cmpl	$SPURIOUS_VECTOR, 0x4(%eax)
00013485	0f 87 86 03 00 00	ja	0x13811
0001348b	8b 42 1c	movl	0x1c(%edx), %eax
0001348e	89 44 24 20	movl	%eax, 0x20(%esp)
00013492	89 54 24 64	movl	%edx, 0x64(%esp)
00013496	8b 42 20	movl	0x20(%edx), %eax
00013499	89 44 24 48	movl	%eax, 0x48(%esp)
0001349d	8b 44 24 18	movl	0x18(%esp), %eax
000134a1	8b 4c 24 20	movl	0x20(%esp), %ecx
000134a5	8b 54 24 40	movl	0x40(%esp), %edx
000134a9	33 4c 10 1c	xorl	0x1c(%eax,%edx), %ecx
000134ad	89 4c 24 20	movl	%ecx, 0x20(%esp)
000134b1	8b 44 24 18	movl	0x18(%esp), %eax
000134b5	8b 4c 24 40	movl	0x40(%esp), %ecx
000134b9	8b 54 24 48	movl	0x48(%esp), %edx
000134bd	33 54 08 20	xorl	0x20(%eax,%ecx), %edx
000134c1	0b 54 24 20	orl	0x20(%esp), %edx
000134c5	0f 85 46 03 00 00	jne	0x13811
000134cb	a1 f8 c8 00 00	movl	__ZN17IGMicroController9fInstanceE, %eax ## IGMicroController::fInstance
000134d0	f6 40 3c 02	testb	$0x2, 0x3c(%eax)
000134d4	8b 4c 24 24	movl	0x24(%esp), %ecx
000134d8	0f 85 38 03 00 00	jne	0x13816
000134de	8b 44 24 4c	movl	0x4c(%esp), %eax
000134e2	f6 40 2d 01	testb	$0x1, 0x2d(%eax)
000134e6	0f 85 2a 03 00 00	jne	0x13816
000134ec	89 f1	movl	%esi, %ecx
000134ee	8b 54 24 64	movl	0x64(%esp), %edx
000134f2	e8 77 07 00 00	calll	__ZNK23IGRenderCommandStreamer23isHigherPriorityBlockedEP12IGUkWorkItem ## IGRenderCommandStreamer::isHigherPriorityBlocked(IGUkWorkItem*) const
000134f7	84 c0	testb	%al, %al
000134f9	0f 85 12 03 00 00	jne	0x13811
000134ff	31 d2	xorl	%edx, %edx
00013501	42	incl	%edx
00013502	89 d0	movl	%edx, %eax
00013504	2b 46 20	subl	0x20(%esi), %eax
00013507	8b 4c c6 0c	movl	0xc(%esi,%eax,8), %ecx
0001350b	8b 44 c6 10	movl	0x10(%esi,%eax,8), %eax
0001350f	8b 49 14	movl	0x14(%ecx), %ecx
00013512	8b 40 14	movl	0x14(%eax), %eax
00013515	f6 c1 04	testb	$0x4, %cl
00013518	74 27	je	0x13541
0001351a	c1 e9 10	shrl	$0x10, %ecx
0001351d	6a 1f	pushl	$0x1f
0001351f	5a	popl	%edx
00013520	21 d1	andl	%edx, %ecx
00013522	89 c2	movl	%eax, %edx
00013524	c1 ea 10	shrl	$0x10, %edx
00013527	89 44 24 20	movl	%eax, 0x20(%esp)
0001352b	6a 1f	pushl	$0x1f
0001352d	58	popl	%eax
0001352e	21 c2	andl	%eax, %edx
00013530	8b 44 24 20	movl	0x20(%esp), %eax
00013534	39 d1	cmpl	%edx, %ecx
00013536	ba 01 00 00 00	movl	$0x1, %edx
0001353b	0f 82 e4 02 00 00	jb	0x13825
00013541	83 e0 04	andl	$0x4, %eax
00013544	8b 4c 24 68	movl	0x68(%esp), %ecx
00013548	09 01	orl	%eax, P24C_SW_1ST_VECTOR_NUM(%ecx)
0001354a	89 d0	movl	%edx, %eax
0001354c	2b 46 20	subl	0x20(%esi), %eax
0001354f	8b 4c 24 1c	movl	0x1c(%esp), %ecx
00013553	89 4c c6 10	movl	%ecx, 0x10(%esi,%eax,8)
00013557	e9 5b 01 00 00	jmp	0x136b7
0001355c	8b 54 c6 0c	movl	0xc(%esi,%eax,8), %edx
00013560	85 d2	testl	%edx, %edx
00013562	0f 84 e6 00 00 00	je	0x1364e
00013568	89 4c 24 68	movl	%ecx, 0x68(%esp)
0001356c	8b 4c 24 1c	movl	0x1c(%esp), %ecx
00013570	8b 09	movl	P24C_SW_1ST_VECTOR_NUM(%ecx), %ecx
00013572	89 4c 24 4c	movl	%ecx, 0x4c(%esp)
00013576	8b 0a	movl	P24C_SW_1ST_VECTOR_NUM(%edx), %ecx
00013578	89 4c 24 20	movl	%ecx, 0x20(%esp)
0001357c	89 54 24 48	movl	%edx, 0x48(%esp)
00013580	8b 52 04	movl	0x4(%edx), %edx
00013583	8b 4c 24 1c	movl	0x1c(%esp), %ecx
00013587	33 51 04	xorl	0x4(%ecx), %edx
0001358a	8b 4c 24 4c	movl	0x4c(%esp), %ecx
0001358e	33 4c 24 20	xorl	0x20(%esp), %ecx
00013592	09 d1	orl	%edx, %ecx
00013594	0f 85 c7 00 00 00	jne	0x13661
0001359a	8b 44 24 44	movl	0x44(%esp), %eax
0001359e	81 38 ff 00 00 00	cmpl	$SPURIOUS_VECTOR, P24C_SW_1ST_VECTOR_NUM(%eax)
000135a4	0f 87 84 02 00 00	ja	0x1382e
000135aa	8b 4c 24 48	movl	0x48(%esp), %ecx
000135ae	8b 41 1c	movl	0x1c(%ecx), %eax
000135b1	89 44 24 20	movl	%eax, 0x20(%esp)
000135b5	8b 41 20	movl	0x20(%ecx), %eax
000135b8	89 44 24 64	movl	%eax, 0x64(%esp)
000135bc	8b 54 24 18	movl	0x18(%esp), %edx
000135c0	8b 44 24 40	movl	0x40(%esp), %eax
000135c4	8b 4c 24 20	movl	0x20(%esp), %ecx
000135c8	33 4c 02 1c	xorl	0x1c(%edx,%eax), %ecx
000135cc	89 4c 24 20	movl	%ecx, 0x20(%esp)
000135d0	8b 54 24 18	movl	0x18(%esp), %edx
000135d4	8b 44 24 40	movl	0x40(%esp), %eax
000135d8	8b 4c 24 64	movl	0x64(%esp), %ecx
000135dc	33 4c 02 20	xorl	0x20(%edx,%eax), %ecx
000135e0	0b 4c 24 20	orl	0x20(%esp), %ecx
000135e4	0f 85 44 02 00 00	jne	0x1382e
000135ea	a1 f8 c8 00 00	movl	__ZN17IGMicroController9fInstanceE, %eax ## IGMicroController::fInstance
000135ef	f6 40 3c 02	testb	$0x2, 0x3c(%eax)
000135f3	0f 85 35 02 00 00	jne	0x1382e
000135f9	8b 44 24 4c	movl	0x4c(%esp), %eax
000135fd	f6 40 2d 01	testb	$0x1, 0x2d(%eax)
00013601	8b 54 24 48	movl	0x48(%esp), %edx
00013605	0f 85 23 02 00 00	jne	0x1382e
0001360b	89 f1	movl	%esi, %ecx
0001360d	e8 5c 06 00 00	calll	__ZNK23IGRenderCommandStreamer23isHigherPriorityBlockedEP12IGUkWorkItem ## IGRenderCommandStreamer::isHigherPriorityBlocked(IGUkWorkItem*) const
00013612	84 c0	testb	%al, %al
00013614	0f 85 14 02 00 00	jne	0x1382e
0001361a	31 d2	xorl	%edx, %edx
0001361c	42	incl	%edx
0001361d	89 d0	movl	%edx, %eax
0001361f	2b 46 20	subl	0x20(%esi), %eax
00013622	8b 44 c6 0c	movl	0xc(%esi,%eax,8), %eax
00013626	8b 40 14	movl	0x14(%eax), %eax
00013629	83 e0 04	andl	$0x4, %eax
0001362c	8b 4c 24 68	movl	0x68(%esp), %ecx
00013630	09 01	orl	%eax, P24C_SW_1ST_VECTOR_NUM(%ecx)
00013632	89 d0	movl	%edx, %eax
00013634	2b 46 20	subl	0x20(%esi), %eax
00013637	83 7c 24 6c 00	cmpl	$0x0, 0x6c(%esp)
0001363c	8b 4c 24 1c	movl	0x1c(%esp), %ecx
00013640	89 4c c6 0c	movl	%ecx, 0xc(%esi,%eax,8)
00013644	75 71	jne	0x136b7
00013646	8b 4c 24 5c	movl	0x5c(%esp), %ecx
0001364a	ff 09	decl	P24C_SW_1ST_VECTOR_NUM(%ecx)
0001364c	eb 69	jmp	0x136b7
0001364e	8b 4c 24 1c	movl	0x1c(%esp), %ecx
00013652	89 4c c6 0c	movl	%ecx, 0xc(%esi,%eax,8)
00013656	8b 4c 24 5c	movl	0x5c(%esp), %ecx
0001365a	ff 09	decl	P24C_SW_1ST_VECTOR_NUM(%ecx)
0001365c	31 d2	xorl	%edx, %edx
0001365e	42	incl	%edx
0001365f	eb 56	jmp	0x136b7
00013661	8b 4c 24 20	movl	0x20(%esp), %ecx
00013665	8b 49 18	movl	0x18(%ecx), %ecx
00013668	8b 54 24 54	movl	0x54(%esp), %edx
0001366c	3b 0a	cmpl	P24C_SW_1ST_VECTOR_NUM(%edx), %ecx
0001366e	75 0e	jne	0x1367e
00013670	8b 4c 24 48	movl	0x48(%esp), %ecx
00013674	f6 41 14 04	testb	$0x4, 0x14(%ecx)
00013678	0f 85 b0 01 00 00	jne	0x1382e
0001367e	8b 4c 24 5c	movl	0x5c(%esp), %ecx
00013682	8b 09	movl	P24C_SW_1ST_VECTOR_NUM(%ecx), %ecx
00013684	89 4c 24 20	movl	%ecx, 0x20(%esp)
00013688	85 c9	testl	%ecx, %ecx
0001368a	ba 01 00 00 00	movl	$0x1, %edx
0001368f	0f 8e b0 01 00 00	jle	0x13845
00013695	ff 44 24 50	incl	0x50(%esp)
00013699	8b 4c 24 1c	movl	0x1c(%esp), %ecx
0001369d	89 4c c6 10	movl	%ecx, 0x10(%esi,%eax,8)
000136a1	ff 4c 24 20	decl	0x20(%esp)
000136a5	8b 4c 24 5c	movl	0x5c(%esp), %ecx
000136a9	89 44 24 1c	movl	%eax, 0x1c(%esp)
000136ad	8b 44 24 20	movl	0x20(%esp), %eax
000136b1	89 01	movl	%eax, P24C_SW_1ST_VECTOR_NUM(%ecx)
000136b3	8b 44 24 1c	movl	0x1c(%esp), %eax
000136b7	8d 44 c6 0c	leal	0xc(%esi,%eax,8), %eax
000136bb	8b 4c 24 50	movl	0x50(%esp), %ecx
000136bf	8b 04 88	movl	P24C_SW_1ST_VECTOR_NUM(%eax,%ecx,4), %eax
000136c2	89 44 24 1c	movl	%eax, 0x1c(%esp)
000136c6	8b 48 14	movl	0x14(%eax), %ecx
000136c9	b8 ff ff e0 ff	movl	$0xffe0ffff, %eax
000136ce	21 c1	andl	%eax, %ecx
000136d0	0b 8c 24 84 00 00 00	orl	0x84(%esp), %ecx
000136d7	8b 44 24 1c	movl	0x1c(%esp), %eax
000136db	89 48 14	movl	%ecx, 0x14(%eax)
000136de	89 d0	movl	%edx, %eax
000136e0	2b 46 20	subl	0x20(%esi), %eax
000136e3	8d 44 c6 0c	leal	0xc(%esi,%eax,8), %eax
000136e7	8b 4c 24 50	movl	0x50(%esp), %ecx
000136eb	8b 0c 88	movl	P24C_SW_1ST_VECTOR_NUM(%eax,%ecx,4), %ecx
000136ee	e8 2b f5 ff ff	calll	__ZN21IGCommandStreamerBase17updateContextTailEP12IGUkWorkItem ## IGCommandStreamerBase::updateContextTail(IGUkWorkItem*)
000136f3	8b 54 24 44	movl	0x44(%esp), %edx
000136f7	8b 44 24 50	movl	0x50(%esp), %eax
000136fb	8b 0c 82	movl	P24C_SW_1ST_VECTOR_NUM(%edx,%eax,4), %ecx
000136fe	89 4c 24 1c	movl	%ecx, 0x1c(%esp)
00013702	8b 4c 24 1c	movl	0x1c(%esp), %ecx
00013706	41	incl	%ecx
00013707	89 0c 82	movl	%ecx, P24C_SW_1ST_VECTOR_NUM(%edx,%eax,4)
0001370a	89 c1	movl	%eax, %ecx
0001370c	83 7c 24 1c 00	cmpl	$0x0, 0x1c(%esp)
00013711	74 2d	je	0x13740
00013713	31 c0	xorl	%eax, %eax
00013715	40	incl	%eax
00013716	2b 46 20	subl	0x20(%esi), %eax
00013719	8d 04 c6	leal	P24C_SW_1ST_VECTOR_NUM(%esi,%eax,8), %eax
0001371c	8b 44 88 0c	movl	0xc(%eax,%ecx,4), %eax
00013720	89 44 24 1c	movl	%eax, 0x1c(%esp)
00013724	ff 40 18	incl	0x18(%eax)
00013727	8b 4c 24 78	movl	0x78(%esp), %ecx
0001372b	8b 54 24 18	movl	0x18(%esp), %edx
0001372f	8b 44 24 40	movl	0x40(%esp), %eax
00013733	89 4c 02 0c	movl	%ecx, 0xc(%edx,%eax)
00013737	8b 44 24 1c	movl	0x1c(%esp), %eax
0001373b	31 d2	xorl	%edx, %edx
0001373d	42	incl	%edx
0001373e	eb 1f	jmp	0x1375f
00013740	8b 44 24 18	movl	0x18(%esp), %eax
00013744	8b 54 24 40	movl	0x40(%esp), %edx
00013748	8b 44 10 0c	movl	0xc(%eax,%edx), %eax
0001374c	89 44 24 78	movl	%eax, 0x78(%esp)
00013750	31 d2	xorl	%edx, %edx
00013752	42	incl	%edx
00013753	89 d0	movl	%edx, %eax
00013755	2b 46 20	subl	0x20(%esi), %eax
00013758	8d 04 c6	leal	P24C_SW_1ST_VECTOR_NUM(%esi,%eax,8), %eax
0001375b	8b 44 88 0c	movl	0xc(%eax,%ecx,4), %eax
0001375f	8b 4c 24 60	movl	0x60(%esp), %ecx
00013763	41	incl	%ecx
00013764	81 e1 ff 01 00 00	andl	$0x1ff, %ecx
0001376a	89 48 38	movl	%ecx, 0x38(%eax)
0001376d	89 c8	movl	%ecx, %eax
0001376f	8b 4c 24 24	movl	0x24(%esp), %ecx
00013773	e9 56 fc ff ff	jmp	0x133ce
00013778	83 7c 24 50 01	cmpl	$0x1, 0x50(%esp)
0001377d	6a 08	pushl	$0x8
0001377f	58	popl	%eax
00013780	74 03	je	0x13785
00013782	6a 02	pushl	$0x2
00013784	58	popl	%eax
00013785	89 44 24 18	movl	%eax, 0x18(%esp)
00013789	8d 5c 24 30	leal	0x30(%esp), %ebx
0001378d	8b 44 24 60	movl	0x60(%esp), %eax
00013791	89 41 18	movl	%eax, 0x18(%ecx)
00013794	29 e9	subl	%ebp, %ecx
00013796	83 c1 4f	addl	$0x4f, %ecx
00013799	83 e1 f0	andl	$-0x10, %ecx
0001379c	01 e9	addl	%ebp, %ecx
0001379e	39 cd	cmpl	%ecx, %ebp
000137a0	73 09	jae	0x137ab
000137a2	0f ae 7d 00	clflush	(%ebp)
000137a6	83 c5 10	addl	$0x10, %ebp
000137a9	eb f3	jmp	0x1379e
000137ab	89 15 20 c0 e0 ff	movl	%edx, -0x1f3fe0
000137b1	8b 44 24 18	movl	0x18(%esp), %eax
000137b5	83 e0 0b	andl	$0xb, %eax
000137b8	39 d0	cmpl	%edx, %eax
000137ba	74 0c	je	0x137c8
000137bc	83 f8 02	cmpl	$0x2, %eax
000137bf	75 2a	jne	0x137eb
000137c1	83 64 24 18 f9	andl	$-0x7, 0x18(%esp)
000137c6	eb 23	jmp	0x137eb
000137c8	8b 54 24 18	movl	0x18(%esp), %edx
000137cc	89 d0	movl	%edx, %eax
000137ce	83 e0 fa	andl	$-0x6, %eax
000137d1	c1 ea 04	shrl	$0x4, %edx
000137d4	8b 4c 24 2c	movl	0x2c(%esp), %ecx
000137d8	80 e1 01	andb	$0x1, %cl
000137db	08 d1	orb	%dl, %cl
000137dd	89 4c 24 2c	movl	%ecx, 0x2c(%esp)
000137e1	b1 01	movb	$0x1, %cl
000137e3	89 4c 24 3c	movl	%ecx, 0x3c(%esp)
000137e7	89 44 24 18	movl	%eax, 0x18(%esp)
000137eb	8b 6c 24 54	movl	0x54(%esp), %ebp
000137ef	8b 55 00	movl	(%ebp), %edx
000137f2	89 d9	movl	%ebx, %ecx
000137f4	e8 a9 f3 ff ff	calll	__ZN10IGUkBitSetILj64EE5resetEj ## IGUkBitSet<64u>::reset(unsigned int)
000137f9	f6 84 24 80 00 00 00 10	testb	$0x10, 0x80(%esp)
00013801	75 51	jne	0x13854
00013803	89 d9	movl	%ebx, %ecx
00013805	89 ea	movl	%ebp, %edx
00013807	e8 8a f4 ff ff	calll	__ZN21IGCommandStreamerBase21getNextWorkQueueIndexERK10IGUkBitSetILj64EEPj ## IGCommandStreamerBase::getNextWorkQueueIndex(IGUkBitSet<64u> const&, unsigned int*)
0001380c	e9 68 fb ff ff	jmp	0x13379
00013811	6a 08	pushl	$0x8
00013813	58	popl	%eax
00013814	eb 1b	jmp	0x13831
00013816	6a 08	pushl	$0x8
00013818	58	popl	%eax
00013819	89 44 24 18	movl	%eax, 0x18(%esp)
0001381d	31 d2	xorl	%edx, %edx
0001381f	42	incl	%edx
00013820	e9 64 ff ff ff	jmp	0x13789
00013825	6a 08	pushl	$0x8
00013827	58	popl	%eax
00013828	89 44 24 18	movl	%eax, 0x18(%esp)
0001382c	eb 0a	jmp	0x13838
0001382e	6a 02	pushl	$0x2
00013830	58	popl	%eax
00013831	89 44 24 18	movl	%eax, 0x18(%esp)
00013835	31 d2	xorl	%edx, %edx
00013837	42	incl	%edx
00013838	8d 5c 24 30	leal	0x30(%esp), %ebx
0001383c	8b 4c 24 24	movl	0x24(%esp), %ecx
00013840	e9 48 ff ff ff	jmp	0x1378d
00013845	6a 10	pushl	$0x10
00013847	58	popl	%eax
00013848	89 84 24 80 00 00 00	movl	%eax, 0x80(%esp)
0001384f	6a 11	pushl	$0x11
00013851	58	popl	%eax
00013852	eb d4	jmp	0x13828
00013854	31 d2	xorl	%edx, %edx
00013856	42	incl	%edx
00013857	8b 4c 24 3c	movl	0x3c(%esp), %ecx
0001385b	8b 44 24 2c	movl	0x2c(%esp), %eax
0001385f	eb 02	jmp	0x13863
00013861	b0 01	movb	$0x1, %al
00013863	8b 5c 24 58	movl	0x58(%esp), %ebx
00013867	43	incl	%ebx
00013868	89 dd	movl	%ebx, %ebp
0001386a	8b 5c 24 18	movl	0x18(%esp), %ebx
0001386e	e9 75 f8 ff ff	jmp	0x130e8
00013873	81 c4 8c 00 00 00	addl	$0x8c, %esp
00013879	5e	popl	%esi
0001387a	5f	popl	%edi
0001387b	5b	popl	%ebx
0001387c	5d	popl	%ebp
0001387d	e9 aa e4 ff ff	jmp	__ZN21IGCommandStreamerBase14evalWorkQueuesEPjj ## IGCommandStreamerBase::evalWorkQueues(unsigned int*, unsigned int)
00013882	8b 5c 24 18	movl	0x18(%esp), %ebx
00013886	f6 c3 08	testb	$0x8, %bl
00013889	75 28	jne	0x138b3
0001388b	89 d0	movl	%edx, %eax
0001388d	2b 46 20	subl	0x20(%esi), %eax
00013890	83 7c c6 0c 00	cmpl	$0x0, 0xc(%esi,%eax,8)
00013895	74 18	je	0x138af
00013897	8b 44 24 44	movl	0x44(%esp), %eax
0001389b	8b 7c 24 7c	movl	0x7c(%esp), %edi
0001389f	0b 38	orl	P24C_SW_1ST_VECTOR_NUM(%eax), %edi
000138a1	74 03	je	0x138a6
000138a3	6a 08	pushl	$0x8
000138a5	5b	popl	%ebx
000138a6	f6 c3 08	testb	$0x8, %bl
000138a9	8b 44 24 6c	movl	0x6c(%esp), %eax
000138ad	75 08	jne	0x138b7
000138af	31 c0	xorl	%eax, %eax
000138b1	eb 04	jmp	0x138b7
000138b3	8b 44 24 6c	movl	0x6c(%esp), %eax
000138b7	09 c3	orl	%eax, %ebx
000138b9	b8 00 04 00 00	movl	$0x400, %eax
000138be	f6 c1 01	testb	$0x1, %cl
000138c1	75 2c	jne	0x138ef
000138c3	2b 56 20	subl	0x20(%esi), %edx
000138c6	8b 44 d6 10	movl	0x10(%esi,%edx,8), %eax
000138ca	85 c0	testl	%eax, %eax
000138cc	74 1f	je	0x138ed
000138ce	0f b7 48 16	movzwl	0x16(%eax), %ecx
000138d2	6a 1f	pushl	$0x1f
000138d4	5f	popl	%edi
000138d5	21 f9	andl	%edi, %ecx
000138d7	8b 44 d6 0c	movl	0xc(%esi,%edx,8), %eax
000138db	0f b7 50 16	movzwl	0x16(%eax), %edx
000138df	21 fa	andl	%edi, %edx
000138e1	31 c0	xorl	%eax, %eax
000138e3	39 d1	cmpl	%edx, %ecx
000138e5	0f 92 c0	setb	%al
000138e8	c1 e0 0a	shll	$0xa, %eax
000138eb	eb 02	jmp	0x138ef
000138ed	31 c0	xorl	%eax, %eax
000138ef	09 c3	orl	%eax, %ebx
000138f1	80 3d e8 c8 00 00 00	cmpb	$0x0, _gPerfLogEnable
000138f8	75 40	jne	0x1393a
000138fa	89 d8	movl	%ebx, %eax
000138fc	81 c4 8c 00 00 00	addl	$0x8c, %esp
00013902	5e	popl	%esi
00013903	5f	popl	%edi
00013904	5b	popl	%ebx
00013905	5d	popl	%ebp
00013906	c3	retl
00013907	0f b6 46 24	movzbl	0x24(%esi), %eax
0001390b	8d 14 85 29 01 a7 85	leal	-0x7a58fed7(,%eax,4), %edx
00013912	8b 7c 24 44	movl	0x44(%esp), %edi
00013916	8b 07	movl	P24C_SW_1ST_VECTOR_NUM(%edi), %eax
00013918	8b 7f 04	movl	0x4(%edi), %edi
0001391b	89 7c 24 10	movl	%edi, 0x10(%esp)
0001391f	89 44 24 0c	movl	%eax, 0xc(%esp)
00013923	89 5c 24 08	movl	%ebx, 0x8(%esp)
00013927	83 64 24 04 00	andl	$0x0, 0x4(%esp)
0001392c	83 24 24 00	andl	$0x0, P24C_SW_1ST_VECTOR_NUM(%esp)
00013930	e8 07 50 00 00	calll	__ZN17IGMicroController27perfLogAppendKdebugConstantEjyjjj ## IGMicroController::perfLogAppendKdebugConstant(unsigned int, unsigned long long, unsigned int, unsigned int, unsigned int)
00013935	e9 1e f7 ff ff	jmp	0x13058
0001393a	8b 0d f8 c8 00 00	movl	__ZN17IGMicroController9fInstanceE, %ecx ## IGMicroController::fInstance
00013940	0f b6 46 24	movzbl	0x24(%esi), %eax
00013944	8d 14 85 2a 01 a7 85	leal	-0x7a58fed6(,%eax,4), %edx
0001394b	8b 74 24 44	movl	0x44(%esp), %esi
0001394f	8b 06	movl	P24C_SW_1ST_VECTOR_NUM(%esi), %eax
00013951	8b 76 04	movl	0x4(%esi), %esi
00013954	89 74 24 10	movl	%esi, 0x10(%esp)
00013958	89 44 24 0c	movl	%eax, 0xc(%esp)
0001395c	89 5c 24 08	movl	%ebx, 0x8(%esp)
00013960	83 64 24 04 00	andl	$0x0, 0x4(%esp)
00013965	83 24 24 00	andl	$0x0, P24C_SW_1ST_VECTOR_NUM(%esp)
00013969	e8 ce 4f 00 00	calll	__ZN17IGMicroController27perfLogAppendKdebugConstantEjyjjj ## IGMicroController::perfLogAppendKdebugConstant(unsigned int, unsigned long long, unsigned int, unsigned int, unsigned int)
0001396e	eb 8a	jmp	0x138fa
__ZN23IGRenderCommandStreamer32updateWithContextUtilizationDataEP17IGUkContextSharedPj:
00013970	55	pushl	%ebp
00013971	53	pushl	%ebx
00013972	57	pushl	%edi
00013973	56	pushl	%esi
00013974	83 ec 1c	subl	$0x1c, %esp
00013977	8b 5c 24 30	movl	0x30(%esp), %ebx
0001397b	8b 6c 24 34	movl	0x34(%esp), %ebp
0001397f	8d 74 24 18	leal	0x18(%esp), %esi
00013983	83 26 00	andl	$0x0, P24C_SW_1ST_VECTOR_NUM(%esi)
00013986	89 74 24 08	movl	%esi, 0x8(%esp)
0001398a	89 6c 24 04	movl	%ebp, 0x4(%esp)
0001398e	e8 0d ec ff ff	calll	__ZN21IGCommandStreamerBase32updateWithContextUtilizationDataEP17IGUkContextSharedPj ## IGCommandStreamerBase::updateWithContextUtilizationData(IGUkContextShared*, unsigned int*)
00013993	a1 e8 c3 e0 ff	movl	0xffe0c3e8, %eax
00013998	8b 3d f8 c8 00 00	movl	__ZN17IGMicroController9fInstanceE, %edi ## IGMicroController::fInstance
0001399e	89 c1	movl	%eax, %ecx
000139a0	2b 8f d0 43 00 00	subl	0x43d0(%edi), %ecx
000139a6	8b 36	movl	P24C_SW_1ST_VECTOR_NUM(%esi), %esi
000139a8	39 ce	cmpl	%ecx, %esi
000139aa	89 f2	movl	%esi, %edx
000139ac	72 02	jb	0x139b0
000139ae	89 ca	movl	%ecx, %edx
000139b0	0f b6 4d 2c	movzbl	0x2c(%ebp), %ecx
000139b4	01 94 8b f0 0a 00 00	addl	%edx, 0xaf0(%ebx,%ecx,4)
000139bb	0f b6 4d 2c	movzbl	0x2c(%ebp), %ecx
000139bf	89 b4 8b 00 0b 00 00	movl	%esi, 0xb00(%ebx,%ecx,4)
000139c6	89 83 10 0b 00 00	movl	%eax, 0xb10(%ebx)
000139cc	8b 8b 1c 0b 00 00	movl	0xb1c(%ebx), %ecx
000139d2	81 f9 00 00 00 03	cmpl	$0x3000000, %ecx
000139d8	0f 82 ae 00 00 00	jb	0x13a8c
000139de	89 c8	movl	%ecx, %eax
000139e0	c1 e8 0e	shrl	$0xe, %eax
000139e3	25 ff 01 00 00	andl	$0x1ff, %eax
000139e8	83 f8 06	cmpl	$0x6, %eax
000139eb	0f 82 9b 00 00 00	jb	0x13a8c
000139f1	66 bb 03 00	movw	$0x3, %bx
000139f5	31 d2	xorl	%edx, %edx
000139f7	66 f7 f3	divw	%bx
000139fa	0f b7 d8	movzwl	%ax, %ebx
000139fd	c1 e3 03	shll	$0x3, %ebx
00013a00	bd 00 00 80 01	movl	$0x1800000, %ebp
00013a05	89 c8	movl	%ecx, %eax
00013a07	31 d2	xorl	%edx, %edx
00013a09	f7 f5	divl	%ebp
00013a0b	c1 e0 03	shll	$0x3, %eax
00013a0e	ba 00 f0 ff ff	movl	$0xfffff000, %edx
00013a13	23 57 30	andl	0x30(%edi), %edx
00013a16	09 d3	orl	%edx, %ebx
00013a18	01 b3 b0 04 00 00	addl	%esi, 0x4b0(%ebx)
00013a1e	83 93 b4 04 00 00 00	adcl	$0x0, 0x4b4(%ebx)
00013a25	8d 8b b0 04 00 00	leal	0x4b0(%ebx), %ecx
00013a2b	09 c2	orl	%eax, %edx
00013a2d	01 b2 30 06 00 00	addl	%esi, 0x630(%edx)
00013a33	83 92 34 06 00 00 00	adcl	$0x0, 0x634(%edx)
00013a3a	8d 82 30 06 00 00	leal	0x630(%edx), %eax
00013a40	89 ca	movl	%ecx, %edx
00013a42	83 e2 f0	andl	$-0x10, %edx
00013a45	83 e1 08	andl	$0x8, %ecx
00013a48	83 c1 4f	addl	$0x4f, %ecx
00013a4b	83 e1 d0	andl	$-0x30, %ecx
00013a4e	01 d1	addl	%edx, %ecx
00013a50	39 ca	cmpl	%ecx, %edx
00013a52	73 08	jae	0x13a5c
00013a54	0f ae 3a	clflush	P24C_SW_1ST_VECTOR_NUM(%edx)
00013a57	83 c2 10	addl	$0x10, %edx
00013a5a	eb f4	jmp	0x13a50
00013a5c	c7 05 20 c0 e0 ff 01 00 00 00	movl	$0x1, -0x1f3fe0
00013a66	89 c1	movl	%eax, %ecx
00013a68	83 e1 f0	andl	$-0x10, %ecx
00013a6b	83 e0 0f	andl	$0xf, %eax
00013a6e	83 c0 4f	addl	$0x4f, %eax
00013a71	83 e0 d0	andl	$-0x30, %eax
00013a74	01 c8	addl	%ecx, %eax
00013a76	39 c1	cmpl	%eax, %ecx
00013a78	73 08	jae	0x13a82
00013a7a	0f ae 39	clflush	P24C_SW_1ST_VECTOR_NUM(%ecx)
00013a7d	83 c1 10	addl	$0x10, %ecx
00013a80	eb f4	jmp	0x13a76
00013a82	c7 05 20 c0 e0 ff 01 00 00 00	movl	$0x1, -0x1f3fe0
00013a8c	83 c4 1c	addl	$0x1c, %esp
00013a8f	5e	popl	%esi
00013a90	5f	popl	%edi
00013a91	5b	popl	%ebx
00013a92	5d	popl	%ebp
00013a93	c3	retl
__ZN23IGRenderCommandStreamer24engineWillSubmitExeclistEv:
00013a94	55	pushl	%ebp
00013a95	53	pushl	%ebx
00013a96	57	pushl	%edi
00013a97	56	pushl	%esi
00013a98	50	pushl	%eax
00013a99	8b 54 24 18	movl	0x18(%esp), %edx
00013a9d	8b 0d f8 c8 00 00	movl	__ZN17IGMicroController9fInstanceE, %ecx ## IGMicroController::fInstance
00013aa3	f6 81 4c 43 00 00 01	testb	$0x1, 0x434c(%ecx)
00013aaa	0f 85 80 00 00 00	jne	0x13b30
00013ab0	31 f6	xorl	%esi, %esi
00013ab2	46	incl	%esi
00013ab3	2b 72 20	subl	0x20(%edx), %esi
00013ab6	8b 44 f2 0c	movl	0xc(%edx,%esi,8), %eax
00013aba	8b 00	movl	P24C_SW_1ST_VECTOR_NUM(%eax), %eax
00013abc	0f b6 58 2c	movzbl	0x2c(%eax), %ebx
00013ac0	88 9a 14 0b 00 00	movb	%bl, 0xb14(%edx)
00013ac6	8b 84 99 50 43 00 00	movl	0x4350(%ecx,%ebx,4), %eax
00013acd	89 82 1c 0b 00 00	movl	%eax, 0xb1c(%edx)
00013ad3	83 a2 20 0b 00 00 00	andl	$0x0, 0xb20(%edx)
00013ada	8b 7c f2 10	movl	0x10(%edx,%esi,8), %edi
00013ade	85 ff	testl	%edi, %edi
00013ae0	0f 84 d7 00 00 00	je	0x13bbd
00013ae6	89 04 24	movl	%eax, P24C_SW_1ST_VECTOR_NUM(%esp)
00013ae9	8b 2f	movl	P24C_SW_1ST_VECTOR_NUM(%edi), %ebp
00013aeb	0f b6 45 2c	movzbl	0x2c(%ebp), %eax
00013aef	38 d8	cmpb	%bl, %al
00013af1	74 57	je	0x13b4a
00013af3	83 7f 0c 00	cmpl	$0x0, 0xc(%edi)
00013af7	74 51	je	0x13b4a
00013af9	8b 84 81 50 43 00 00	movl	0x4350(%ecx,%eax,4), %eax
00013b00	89 82 20 0b 00 00	movl	%eax, 0xb20(%edx)
00013b06	8b 4c f2 10	movl	0x10(%edx,%esi,8), %ecx
00013b0a	8b 11	movl	P24C_SW_1ST_VECTOR_NUM(%ecx), %edx
00013b0c	6a 10	pushl	$0x10
00013b0e	5e	popl	%esi
00013b0f	01 d6	addl	%edx, %esi
00013b11	8b 52 10	movl	0x10(%edx), %edx
00013b14	89 f7	movl	%esi, %edi
00013b16	83 e7 f0	andl	$-0x10, %edi
00013b19	83 e6 0f	andl	$0xf, %esi
00013b1c	83 c6 1f	addl	$0x1f, %esi
00013b1f	83 e6 f0	andl	$-0x10, %esi
00013b22	01 fe	addl	%edi, %esi
00013b24	39 f7	cmpl	%esi, %edi
00013b26	73 2d	jae	0x13b55
00013b28	0f ae 3f	clflush	P24C_SW_1ST_VECTOR_NUM(%edi)
00013b2b	83 c7 10	addl	$0x10, %edi
00013b2e	eb f4	jmp	0x13b24
00013b30	8b 81 50 43 00 00	movl	0x4350(%ecx), %eax
00013b36	89 82 20 0b 00 00	movl	%eax, 0xb20(%edx)
00013b3c	89 82 1c 0b 00 00	movl	%eax, 0xb1c(%edx)
00013b42	83 c4 04	addl	$0x4, %esp
00013b45	5e	popl	%esi
00013b46	5f	popl	%edi
00013b47	5b	popl	%ebx
00013b48	5d	popl	%ebp
00013b49	c3	retl
00013b4a	8b 04 24	movl	P24C_SW_1ST_VECTOR_NUM(%esp), %eax
00013b4d	89 82 20 0b 00 00	movl	%eax, 0xb20(%edx)
00013b53	eb 68	jmp	0x13bbd
00013b55	83 c2 24	addl	$0x24, %edx
00013b58	89 d6	movl	%edx, %esi
00013b5a	83 e6 f0	andl	$-0x10, %esi
00013b5d	89 d7	movl	%edx, %edi
00013b5f	83 e7 0f	andl	$0xf, %edi
00013b62	83 c7 1f	addl	$0x1f, %edi
00013b65	83 e7 f0	andl	$-0x10, %edi
00013b68	01 f7	addl	%esi, %edi
00013b6a	39 fe	cmpl	%edi, %esi
00013b6c	73 08	jae	0x13b76
00013b6e	0f ae 3e	clflush	P24C_SW_1ST_VECTOR_NUM(%esi)
00013b71	83 c6 10	addl	$0x10, %esi
00013b74	eb f4	jmp	0x13b6a
00013b76	8b 12	movl	P24C_SW_1ST_VECTOR_NUM(%edx), %edx
00013b78	8b 71 0c	movl	0xc(%ecx), %esi
00013b7b	8d 0c 16	leal	P24C_SW_1ST_VECTOR_NUM(%esi,%edx), %ecx
00013b7e	c7 04 16 01 00 00 11	movl	$0x11000001, P24C_SW_1ST_VECTOR_NUM(%esi,%edx)
00013b85	c7 44 16 04 08 a0 00 00	movl	$0xa008, 0x4(%esi,%edx)
00013b8d	89 44 16 08	movl	%eax, 0x8(%esi,%edx)
00013b91	89 c8	movl	%ecx, %eax
00013b93	83 e0 f0	andl	$-0x10, %eax
00013b96	83 e1 0f	andl	$0xf, %ecx
00013b99	83 c1 1f	addl	$0x1f, %ecx
00013b9c	83 e1 f0	andl	$-0x10, %ecx
00013b9f	01 c1	addl	%eax, %ecx
00013ba1	39 c8	cmpl	%ecx, %eax
00013ba3	73 08	jae	0x13bad
00013ba5	0f ae 38	clflush	P24C_SW_1ST_VECTOR_NUM(%eax)
00013ba8	83 c0 10	addl	$0x10, %eax
00013bab	eb f4	jmp	0x13ba1
00013bad	c7 05 20 c0 e0 ff 01 00 00 00	movl	$0x1, -0x1f3fe0
00013bb7	8b 0d f8 c8 00 00	movl	__ZN17IGMicroController9fInstanceE, %ecx ## IGMicroController::fInstance
00013bbd	83 c4 04	addl	$0x4, %esp
00013bc0	5e	popl	%esi
00013bc1	5f	popl	%edi
00013bc2	5b	popl	%ebx
00013bc3	5d	popl	%ebp
00013bc4	e9 ab 57 00 00	jmp	__ZN17IGMicroController46setGTFrequencyMMIOAndStartChangeFrequencyTimerEv ## IGMicroController::setGTFrequencyMMIOAndStartChangeFrequencyTimer()
00013bc9	90	nop
__ZN23IGRenderCommandStreamer28engineProcessContextCompleteEv:
00013bca	8b 44 24 04	movl	0x4(%esp), %eax
00013bce	83 a0 1c 0b 00 00 00	andl	$0x0, 0xb1c(%eax)
00013bd5	83 a0 20 0b 00 00 00	andl	$0x0, 0xb20(%eax)
00013bdc	c3	retl
00013bdd	90	nop
__ZN23IGRenderCommandStreamer26engineProcessElementSwitchEv:
00013bde	53	pushl	%ebx
00013bdf	56	pushl	%esi
00013be0	8b 44 24 0c	movl	0xc(%esp), %eax
00013be4	8b 88 20 0b 00 00	movl	0xb20(%eax), %ecx
00013bea	89 88 1c 0b 00 00	movl	%ecx, 0xb1c(%eax)
00013bf0	83 a0 20 0b 00 00 00	andl	$0x0, 0xb20(%eax)
00013bf7	8b 0d f8 c8 00 00	movl	__ZN17IGMicroController9fInstanceE, %ecx ## IGMicroController::fInstance
00013bfd	f6 81 4c 43 00 00 01	testb	$0x1, 0x434c(%ecx)
00013c04	75 1b	jne	0x13c21
00013c06	8b 50 20	movl	0x20(%eax), %edx
00013c09	8b 74 d0 10	movl	0x10(%eax,%edx,8), %esi
00013c0d	85 f6	testl	%esi, %esi
00013c0f	74 10	je	0x13c21
00013c11	8b 36	movl	P24C_SW_1ST_VECTOR_NUM(%esi), %esi
00013c13	8a 5e 2c	movb	0x2c(%esi), %bl
00013c16	8b 54 d0 0c	movl	0xc(%eax,%edx,8), %edx
00013c1a	8b 12	movl	P24C_SW_1ST_VECTOR_NUM(%edx), %edx
00013c1c	3a 5a 2c	cmpb	0x2c(%edx), %bl
00013c1f	75 03	jne	0x13c24
00013c21	5e	popl	%esi
00013c22	5b	popl	%ebx
00013c23	c3	retl
00013c24	0f b6 d3	movzbl	%bl, %edx
00013c27	88 98 14 0b 00 00	movb	%bl, 0xb14(%eax)
00013c2d	8b 94 91 50 43 00 00	movl	0x4350(%ecx,%edx,4), %edx
00013c34	5e	popl	%esi
00013c35	5b	popl	%ebx
00013c36	e9 e5 57 00 00	jmp	__ZN17IGMicroController25startChangeFrequencyTimerEj ## IGMicroController::startChangeFrequencyTimer(unsigned int)
00013c3b	90	nop
__ZNK23IGRenderCommandStreamer19isPreemptionAllowedEv:
00013c3c	8b 44 24 04	movl	0x4(%esp), %eax
00013c40	8a 80 16 0b 00 00	movb	0xb16(%eax), %al
00013c46	c3	retl
00013c47	90	nop
__ZN23IGRenderCommandStreamer15allowPreemptionEv:
00013c48	8b 44 24 04	movl	0x4(%esp), %eax
00013c4c	8b 0d f8 c8 00 00	movl	__ZN17IGMicroController9fInstanceE, %ecx ## IGMicroController::fInstance
00013c52	8a 49 3c	movb	0x3c(%ecx), %cl
00013c55	c0 e9 03	shrb	$0x3, %cl
00013c58	80 e1 01	andb	$0x1, %cl
00013c5b	88 88 16 0b 00 00	movb	%cl, 0xb16(%eax)
00013c61	c3	retl
__ZN23IGRenderCommandStreamer18disallowPreemptionEv:
00013c62	8b 44 24 04	movl	0x4(%esp), %eax
00013c66	c6 80 16 0b 00 00 00	movb	$0x0, 0xb16(%eax)
00013c6d	c3	retl
__ZNK23IGRenderCommandStreamer23isHigherPriorityBlockedEP12IGUkWorkItem:
00013c6e	57	pushl	%edi
00013c6f	56	pushl	%esi
00013c70	83 ec 14	subl	$0x14, %esp
00013c73	0f b7 42 16	movzwl	0x16(%edx), %eax
00013c77	83 e0 1f	andl	$0x1f, %eax
00013c7a	74 22	je	0x13c9e
00013c7c	0f b6 80 48 9a 01 00	movzbl	__ZL27kStampIndexPriorityMinTable(%eax), %eax ## kStampIndexPriorityMinTable
00013c83	8b 32	movl	P24C_SW_1ST_VECTOR_NUM(%edx), %esi
00013c85	8b 7a 10	movl	0x10(%edx), %edi
00013c88	8b 56 18	movl	0x18(%esi), %edx
00013c8b	89 44 24 08	movl	%eax, 0x8(%esp)
00013c8f	89 3c 24	movl	%edi, P24C_SW_1ST_VECTOR_NUM(%esp)
00013c92	83 64 24 04 00	andl	$0x0, 0x4(%esp)
00013c97	e8 0a 00 00 00	calll	__ZNK21IGCommandStreamerBase12checkUnblockEijij ## IGCommandStreamerBase::checkUnblock(int, unsigned int, int, unsigned int) const
00013c9c	eb 02	jmp	0x13ca0
00013c9e	31 c0	xorl	%eax, %eax
00013ca0	83 c4 14	addl	$0x14, %esp
00013ca3	5e	popl	%esi
00013ca4	5f	popl	%edi
00013ca5	c3	retl
__ZNK21IGCommandStreamerBase12checkUnblockEijij:
00013ca6	55	pushl	%ebp
00013ca7	53	pushl	%ebx
00013ca8	57	pushl	%edi
00013ca9	56	pushl	%esi
00013caa	83 ec 3c	subl	$0x3c, %esp
00013cad	89 d6	movl	%edx, %esi
00013caf	8b 7c 24 58	movl	0x58(%esp), %edi
00013cb3	8b 5c 24 54	movl	0x54(%esp), %ebx
00013cb7	80 3d e8 c8 00 00 00	cmpb	$0x0, _gPerfLogEnable
00013cbe	89 4c 24 18	movl	%ecx, 0x18(%esp)
00013cc2	0f 85 2d 01 00 00	jne	0x13df5
00013cc8	89 74 24 1c	movl	%esi, 0x1c(%esp)
00013ccc	8d 54 f1 58	leal	0x58(%ecx,%esi,8), %edx
00013cd0	8d 4c 24 30	leal	0x30(%esp), %ecx
00013cd4	e8 b1 ee ff ff	calll	__ZN10IGUkBitSetILj64EEC2ERKS0_ ## IGUkBitSet<64u>::IGUkBitSet(IGUkBitSet<64u> const&)
00013cd9	8d 4c 24 20	leal	0x20(%esp), %ecx
00013cdd	e8 a4 01 00 00	calll	__ZN10IGUkBitSetILj64EE5resetEv ## IGUkBitSet<64u>::reset()
00013ce2	8d 4c 3b ff	leal	-0x1(%ebx,%edi), %ecx
00013ce6	e8 0d ee ff ff	calll	__ZNK10IGUkBitSetILj64EE12assertBoundsEj ## IGUkBitSet<64u>::assertBounds(unsigned int) const
00013ceb	6a 20	pushl	$0x20
00013ced	5a	popl	%edx
00013cee	85 ff	testl	%edi, %edi
00013cf0	74 49	je	0x13d3b
00013cf2	89 d8	movl	%ebx, %eax
00013cf4	83 e0 1f	andl	$0x1f, %eax
00013cf7	89 d1	movl	%edx, %ecx
00013cf9	29 c1	subl	%eax, %ecx
00013cfb	39 cf	cmpl	%ecx, %edi
00013cfd	89 7c 24 28	movl	%edi, 0x28(%esp)
00013d01	89 fe	movl	%edi, %esi
00013d03	72 02	jb	0x13d07
00013d05	89 ce	movl	%ecx, %esi
00013d07	89 5c 24 2c	movl	%ebx, 0x2c(%esp)
00013d0b	c1 eb 05	shrl	$0x5, %ebx
00013d0e	8d 0c 06	leal	P24C_SW_1ST_VECTOR_NUM(%esi,%eax), %ecx
00013d11	31 ff	xorl	%edi, %edi
00013d13	4f	decl	%edi
00013d14	89 fd	movl	%edi, %ebp
00013d16	d3 e5	shll	%cl, %ebp
00013d18	39 d1	cmpl	%edx, %ecx
00013d1a	74 07	je	0x13d23
00013d1c	31 c9	xorl	%ecx, %ecx
00013d1e	49	decl	%ecx
00013d1f	31 cd	xorl	%ecx, %ebp
00013d21	89 ef	movl	%ebp, %edi
00013d23	89 c1	movl	%eax, %ecx
00013d25	d3 ef	shrl	%cl, %edi
00013d27	d3 e7	shll	%cl, %edi
00013d29	09 7c 9c 20	orl	%edi, 0x20(%esp,%ebx,4)
00013d2d	8b 5c 24 2c	movl	0x2c(%esp), %ebx
00013d31	01 f3	addl	%esi, %ebx
00013d33	8b 7c 24 28	movl	0x28(%esp), %edi
00013d37	29 f7	subl	%esi, %edi
00013d39	eb b0	jmp	0x13ceb
00013d3b	8d 74 24 30	leal	0x30(%esp), %esi
00013d3f	8d 6c 24 20	leal	0x20(%esp), %ebp
00013d43	89 f1	movl	%esi, %ecx
00013d45	89 ea	movl	%ebp, %edx
00013d47	e8 20 01 00 00	calll	__ZN10IGUkBitSetILj64EEaNERKS0_ ## IGUkBitSet<64u>::operator&=(IGUkBitSet<64u> const&)
00013d4c	8b 44 24 18	movl	0x18(%esp), %eax
00013d50	8d 50 50	leal	0x50(%eax), %edx
00013d53	89 f1	movl	%esi, %ecx
00013d55	e8 12 01 00 00	calll	__ZN10IGUkBitSetILj64EEaNERKS0_ ## IGUkBitSet<64u>::operator&=(IGUkBitSet<64u> const&)
00013d5a	89 f1	movl	%esi, %ecx
00013d5c	e8 cf ef ff ff	calll	__ZNK10IGUkBitSetILj64EE5beginEv ## IGUkBitSet<64u>::begin() const
00013d61	89 d6	movl	%edx, %esi
00013d63	89 55 04	movl	%edx, 0x4(%ebp)
00013d66	89 45 00	movl	%eax, (%ebp)
00013d69	31 d2	xorl	%edx, %edx
00013d6b	8b 7c 24 1c	movl	0x1c(%esp), %edi
00013d6f	85 f6	testl	%esi, %esi
00013d71	74 6c	je	0x13ddf
00013d73	4e	decl	%esi
00013d74	c1 e6 05	shll	$0x5, %esi
00013d77	8b 4c 24 18	movl	0x18(%esp), %ecx
00013d7b	8b 84 31 60 02 00 00	movl	0x260(%ecx,%esi), %eax
00013d82	0f ba e0 11	btl	$0x11, %eax
00013d86	73 29	jae	0x13db1
00013d88	0f b7 c0	movzwl	%ax, %eax
00013d8b	39 f8	cmpl	%edi, %eax
00013d8d	75 3f	jne	0x13dce
00013d8f	8b 44 24 50	movl	0x50(%esp), %eax
00013d93	3b 84 31 64 02 00 00	cmpl	0x264(%ecx,%esi), %eax
00013d9a	b3 01	movb	$0x1, %bl
00013d9c	79 02	jns	0x13da0
00013d9e	89 d3	movl	%edx, %ebx
00013da0	79 3b	jns	0x13ddd
00013da2	89 e9	movl	%ebp, %ecx
00013da4	e8 33 ef ff ff	calll	__ZN10IGUkBitSetILj64EE13ConstIteratorppEv ## IGUkBitSet<64u>::ConstIterator::operator++()
00013da9	8b 74 24 24	movl	0x24(%esp), %esi
00013dad	89 da	movl	%ebx, %edx
00013daf	eb be	jmp	0x13d6f
00013db1	8d bc 31 60 02 00 00	leal	0x260(%ecx,%esi), %edi
00013db8	89 d3	movl	%edx, %ebx
00013dba	e8 93 de ff ff	calll	_assertionFailed
00013dbf	89 da	movl	%ebx, %edx
00013dc1	8b 4c 24 18	movl	0x18(%esp), %ecx
00013dc5	0f b7 07	movzwl	P24C_SW_1ST_VECTOR_NUM(%edi), %eax
00013dc8	8b 7c 24 1c	movl	0x1c(%esp), %edi
00013dcc	eb ba	jmp	0x13d88
00013dce	89 d3	movl	%edx, %ebx
00013dd0	e8 7d de ff ff	calll	_assertionFailed
00013dd5	89 da	movl	%ebx, %edx
00013dd7	8b 4c 24 18	movl	0x18(%esp), %ecx
00013ddb	eb b2	jmp	0x13d8f
00013ddd	89 da	movl	%ebx, %edx
00013ddf	80 3d e8 c8 00 00 00	cmpb	$0x0, _gPerfLogEnable
00013de6	75 47	jne	0x13e2f
00013de8	80 e2 01	andb	$0x1, %dl
00013deb	89 d0	movl	%edx, %eax
00013ded	83 c4 3c	addl	$0x3c, %esp
00013df0	5e	popl	%esi
00013df1	5f	popl	%edi
00013df2	5b	popl	%ebx
00013df3	5d	popl	%ebp
00013df4	c3	retl
00013df5	8b 0d f8 c8 00 00	movl	__ZN17IGMicroController9fInstanceE, %ecx ## IGMicroController::fInstance
00013dfb	8b 44 24 18	movl	0x18(%esp), %eax
00013dff	0f b6 40 24	movzbl	0x24(%eax), %eax
00013e03	8d 14 85 75 00 a7 85	leal	-0x7a58ff8b(,%eax,4), %edx
00013e0a	89 74 24 08	movl	%esi, 0x8(%esp)
00013e0e	83 64 24 10 00	andl	$0x0, 0x10(%esp)
00013e13	83 64 24 0c 00	andl	$0x0, 0xc(%esp)
00013e18	83 64 24 04 00	andl	$0x0, 0x4(%esp)
00013e1d	83 24 24 00	andl	$0x0, P24C_SW_1ST_VECTOR_NUM(%esp)
00013e21	e8 16 4b 00 00	calll	__ZN17IGMicroController27perfLogAppendKdebugConstantEjyjjj ## IGMicroController::perfLogAppendKdebugConstant(unsigned int, unsigned long long, unsigned int, unsigned int, unsigned int)
00013e26	8b 4c 24 18	movl	0x18(%esp), %ecx
00013e2a	e9 99 fe ff ff	jmp	0x13cc8
00013e2f	8b 0d f8 c8 00 00	movl	__ZN17IGMicroController9fInstanceE, %ecx ## IGMicroController::fInstance
00013e35	8b 44 24 18	movl	0x18(%esp), %eax
00013e39	0f b6 40 24	movzbl	0x24(%eax), %eax
00013e3d	89 d3	movl	%edx, %ebx
00013e3f	8d 14 85 76 00 a7 85	leal	-0x7a58ff8a(,%eax,4), %edx
00013e46	80 e3 01	andb	$0x1, %bl
00013e49	0f b6 c3	movzbl	%bl, %eax
00013e4c	89 44 24 0c	movl	%eax, 0xc(%esp)
00013e50	89 7c 24 08	movl	%edi, 0x8(%esp)
00013e54	83 64 24 10 00	andl	$0x0, 0x10(%esp)
00013e59	83 64 24 04 00	andl	$0x0, 0x4(%esp)
00013e5e	83 24 24 00	andl	$0x0, P24C_SW_1ST_VECTOR_NUM(%esp)
00013e62	e8 d5 4a 00 00	calll	__ZN17IGMicroController27perfLogAppendKdebugConstantEjyjjj ## IGMicroController::perfLogAppendKdebugConstant(unsigned int, unsigned long long, unsigned int, unsigned int, unsigned int)
00013e67	89 da	movl	%ebx, %edx
00013e69	eb 80	jmp	0x13deb
00013e6b	90	nop
__ZN10IGUkBitSetILj64EEaNERKS0_:
00013e6c	56	pushl	%esi
00013e6d	89 c8	movl	%ecx, %eax
00013e6f	6a f8	pushl	$-0x8
00013e71	59	popl	%ecx
00013e72	85 c9	testl	%ecx, %ecx
00013e74	74 0d	je	0x13e83
00013e76	8b 74 0a 08	movl	0x8(%edx,%ecx), %esi
00013e7a	21 74 08 08	andl	%esi, 0x8(%eax,%ecx)
00013e7e	83 c1 04	addl	$0x4, %ecx
00013e81	eb ef	jmp	0x13e72
00013e83	5e	popl	%esi
00013e84	c3	retl
00013e85	90	nop
__ZN10IGUkBitSetILj64EE5resetEv:
00013e86	6a f8	pushl	$-0x8
00013e88	58	popl	%eax
00013e89	85 c0	testl	%eax, %eax
00013e8b	74 0a	je	0x13e97
00013e8d	83 64 01 08 00	andl	$0x0, 0x8(%ecx,%eax)
00013e92	83 c0 04	addl	$0x4, %eax
00013e95	eb f2	jmp	0x13e89
00013e97	c3	retl
__ZN21IGCommandStreamerBaseC2Ev:
00013e98	53	pushl	%ebx
00013e99	57	pushl	%edi
00013e9a	56	pushl	%esi
00013e9b	89 ce	movl	%ecx, %esi
00013e9d	c7 01 b8 99 01 00	movl	$0x199b8, P24C_SW_1ST_VECTOR_NUM(%ecx)
00013ea3	83 61 04 00	andl	$0x0, 0x4(%ecx)
00013ea7	83 61 08 00	andl	$0x0, 0x8(%ecx)
00013eab	6a f0	pushl	$-0x10
00013ead	58	popl	%eax
00013eae	83 64 06 20 00	andl	$0x0, 0x20(%esi,%eax)
00013eb3	83 64 06 1c 00	andl	$0x0, 0x1c(%esi,%eax)
00013eb8	83 c0 08	addl	$0x8, %eax
00013ebb	75 f1	jne	0x13eae
00013ebd	c6 46 1c 01	movb	$0x1, 0x1c(%esi)
00013ec1	83 66 20 00	andl	$0x0, 0x20(%esi)
00013ec5	c6 46 24 06	movb	$0x6, 0x24(%esi)
00013ec9	8d 46 28	leal	0x28(%esi), %eax
00013ecc	8d 4e 48	leal	0x48(%esi), %ecx
00013ecf	83 20 00	andl	$0x0, P24C_SW_1ST_VECTOR_NUM(%eax)
00013ed2	83 60 04 00	andl	$0x0, 0x4(%eax)
00013ed6	83 c0 08	addl	$0x8, %eax
00013ed9	39 c8	cmpl	%ecx, %eax
00013edb	75 f2	jne	0x13ecf
00013edd	e8 a4 ff ff ff	calll	__ZN10IGUkBitSetILj64EE5resetEv ## IGUkBitSet<64u>::reset()
00013ee2	8d 4e 50	leal	0x50(%esi), %ecx
00013ee5	e8 9c ff ff ff	calll	__ZN10IGUkBitSetILj64EE5resetEv ## IGUkBitSet<64u>::reset()
00013eea	8d 7e 58	leal	0x58(%esi), %edi
00013eed	bb 00 02 00 00	movl	$0x200, %ebx
00013ef2	89 f9	movl	%edi, %ecx
00013ef4	e8 8d ff ff ff	calll	__ZN10IGUkBitSetILj64EE5resetEv ## IGUkBitSet<64u>::reset()
00013ef9	83 c7 08	addl	$0x8, %edi
00013efc	83 c3 f8	addl	$-0x8, %ebx
00013eff	75 f1	jne	0x13ef2
00013f01	8d 86 58 02 00 00	leal	0x258(%esi), %eax
00013f07	8d 8e 58 0a 00 00	leal	0xa58(%esi), %ecx
00013f0d	ba 00 00 f9 ff	movl	$0xfff90000, %edx
00013f12	89 c7	movl	%eax, %edi
00013f14	83 c0 20	addl	$0x20, %eax
00013f17	83 67 04 00	andl	$0x0, 0x4(%edi)
00013f1b	83 27 00	andl	$0x0, P24C_SW_1ST_VECTOR_NUM(%edi)
00013f1e	83 4f 0c ff	orl	$-0x1, 0xc(%edi)
00013f22	8b 5f 08	movl	0x8(%edi), %ebx
00013f25	21 d3	andl	%edx, %ebx
00013f27	81 cb ff ff 00 00	orl	$0xffff, %ebx
00013f2d	89 5f 08	movl	%ebx, 0x8(%edi)
00013f30	83 c7 10	addl	$0x10, %edi
00013f33	39 c7	cmpl	%eax, %edi
00013f35	75 e0	jne	0x13f17
00013f37	39 c8	cmpl	%ecx, %eax
00013f39	75 d7	jne	0x13f12
00013f3b	83 a6 58 0a 00 00 00	andl	$0x0, 0xa58(%esi)
00013f42	c7 46 28 72 3f 01 00	movl	$__ZN21IGCommandStreamerBase22csbProcessIdleToActiveERK17SGfxContextStatus, 0x28(%esi) ## IGCommandStreamerBase::csbProcessIdleToActive(SGfxContextStatus const&)
00013f49	83 66 2c 00	andl	$0x0, 0x2c(%esi)
00013f4d	c7 46 30 b0 41 01 00	movl	$__ZN21IGCommandStreamerBase19csbProcessPreemptedERK17SGfxContextStatus, 0x30(%esi) ## IGCommandStreamerBase::csbProcessPreempted(SGfxContextStatus const&)
00013f54	83 66 34 00	andl	$0x0, 0x34(%esi)
00013f58	c7 46 38 84 44 01 00	movl	$__ZN21IGCommandStreamerBase23csbProcessElementSwitchERK17SGfxContextStatus, 0x38(%esi) ## IGCommandStreamerBase::csbProcessElementSwitch(SGfxContextStatus const&)
00013f5f	83 66 3c 00	andl	$0x0, 0x3c(%esi)
00013f63	c7 46 40 e8 46 01 00	movl	$__ZN21IGCommandStreamerBase22csbProcessActiveToIdleERK17SGfxContextStatus, 0x40(%esi) ## IGCommandStreamerBase::csbProcessActiveToIdle(SGfxContextStatus const&)
00013f6a	83 66 44 00	andl	$0x0, 0x44(%esi)
00013f6e	5e	popl	%esi
00013f6f	5f	popl	%edi
00013f70	5b	popl	%ebx
00013f71	c3	retl
__ZN21IGCommandStreamerBase22csbProcessIdleToActiveERK17SGfxContextStatus:
00013f72	55	pushl	%ebp
00013f73	53	pushl	%ebx
00013f74	57	pushl	%edi
00013f75	56	pushl	%esi
00013f76	83 ec 2c	subl	$0x2c, %esp
00013f79	8b 6c 24 40	movl	0x40(%esp), %ebp
00013f7d	80 3d e8 c8 00 00 00	cmpb	$0x0, _gPerfLogEnable
00013f84	0f 85 47 01 00 00	jne	0x140d1
00013f8a	8b 45 20	movl	0x20(%ebp), %eax
00013f8d	31 c9	xorl	%ecx, %ecx
00013f8f	41	incl	%ecx
00013f90	29 c1	subl	%eax, %ecx
00013f92	89 4d 20	movl	%ecx, 0x20(%ebp)
00013f95	83 64 c5 0c 00	andl	$0x0, 0xc(%ebp,%eax,8)
00013f9a	83 64 c5 10 00	andl	$0x0, 0x10(%ebp,%eax,8)
00013f9f	8b 44 cd 0c	movl	0xc(%ebp,%ecx,8), %eax
00013fa3	85 c0	testl	%eax, %eax
00013fa5	0f 84 08 01 00 00	je	0x140b3
00013fab	8b 00	movl	P24C_SW_1ST_VECTOR_NUM(%eax), %eax
00013fad	8b 38	movl	P24C_SW_1ST_VECTOR_NUM(%eax), %edi
00013faf	8b 70 18	movl	0x18(%eax), %esi
00013fb2	8d 5d 50	leal	0x50(%ebp), %ebx
00013fb5	89 d9	movl	%ebx, %ecx
00013fb7	89 f2	movl	%esi, %edx
00013fb9	e8 a8 ed ff ff	calll	__ZNK10IGUkBitSetILj64EE4testEj ## IGUkBitSet<64u>::test(unsigned int) const
00013fbe	84 c0	testb	%al, %al
00013fc0	0f 84 bc 00 00 00	je	0x14082
00013fc6	89 74 24 28	movl	%esi, 0x28(%esp)
00013fca	c1 e6 05	shll	$0x5, %esi
00013fcd	8d 8c 35 58 02 00 00	leal	0x258(%ebp,%esi), %ecx
00013fd4	8b 41 08	movl	0x8(%ecx), %eax
00013fd7	89 44 24 1c	movl	%eax, 0x1c(%esp)
00013fdb	0f ba e0 11	btl	$0x11, %eax
00013fdf	0f 83 9b 01 00 00	jae	0x14180
00013fe5	89 5c 24 20	movl	%ebx, 0x20(%esp)
00013fe9	8b 01	movl	P24C_SW_1ST_VECTOR_NUM(%ecx), %eax
00013feb	85 c0	testl	%eax, %eax
00013fed	0f 84 9f 01 00 00	je	0x14192
00013ff3	8d 94 35 60 02 00 00	leal	0x260(%ebp,%esi), %edx
00013ffa	89 54 24 24	movl	%edx, 0x24(%esp)
00013ffe	0f b7 54 24 1c	movzwl	0x1c(%esp), %edx
00014003	89 54 24 1c	movl	%edx, 0x1c(%esp)
00014007	8b 18	movl	P24C_SW_1ST_VECTOR_NUM(%eax), %ebx
00014009	33 3b	xorl	P24C_SW_1ST_VECTOR_NUM(%ebx), %edi
0001400b	0b 7b 04	orl	0x4(%ebx), %edi
0001400e	0f 85 8e 01 00 00	jne	0x141a2
00014014	ff 4b 28	decl	0x28(%ebx)
00014017	83 61 04 00	andl	$0x0, 0x4(%ecx)
0001401b	83 21 00	andl	$0x0, P24C_SW_1ST_VECTOR_NUM(%ecx)
0001401e	b8 00 00 f9 ff	movl	$0xfff90000, %eax
00014023	8b 7c 24 24	movl	0x24(%esp), %edi
00014027	8b 0f	movl	P24C_SW_1ST_VECTOR_NUM(%edi), %ecx
00014029	21 c1	andl	%eax, %ecx
0001402b	83 8c 35 64 02 00 00 ff	orl	$-0x1, 0x264(%ebp,%esi)
00014033	ba ff ff 00 00	movl	$0xffff, %edx
00014038	09 d1	orl	%edx, %ecx
0001403a	89 0f	movl	%ecx, P24C_SW_1ST_VECTOR_NUM(%edi)
0001403c	83 a4 35 6c 02 00 00 00	andl	$0x0, 0x26c(%ebp,%esi)
00014044	83 a4 35 68 02 00 00 00	andl	$0x0, 0x268(%ebp,%esi)
0001404c	83 8c 35 74 02 00 00 ff	orl	$-0x1, 0x274(%ebp,%esi)
00014054	23 84 35 70 02 00 00	andl	0x270(%ebp,%esi), %eax
0001405b	09 d0	orl	%edx, %eax
0001405d	89 84 35 70 02 00 00	movl	%eax, 0x270(%ebp,%esi)
00014064	8b 4c 24 20	movl	0x20(%esp), %ecx
00014068	8b 74 24 28	movl	0x28(%esp), %esi
0001406c	89 f2	movl	%esi, %edx
0001406e	e8 2f eb ff ff	calll	__ZN10IGUkBitSetILj64EE5resetEj ## IGUkBitSet<64u>::reset(unsigned int)
00014073	8b 44 24 1c	movl	0x1c(%esp), %eax
00014077	8d 4c c5 58	leal	0x58(%ebp,%eax,8), %ecx
0001407b	89 f2	movl	%esi, %edx
0001407d	e8 20 eb ff ff	calll	__ZN10IGUkBitSetILj64EE5resetEj ## IGUkBitSet<64u>::reset(unsigned int)
00014082	a1 ec c3 e0 ff	movl	0xffe0c3ec, %eax
00014087	8b 0d e8 c3 e0 ff	movl	-0x1f3c18, %ecx
0001408d	3b 05 ec c3 e0 ff	cmpl	-0x1f3c14, %eax
00014093	75 ed	jne	0x14082
00014095	8b 55 20	movl	0x20(%ebp), %edx
00014098	8b 54 d5 0c	movl	0xc(%ebp,%edx,8), %edx
0001409c	8b 72 14	movl	0x14(%edx), %esi
0001409f	6a 08	pushl	$0x8
000140a1	5f	popl	%edi
000140a2	89 f3	movl	%esi, %ebx
000140a4	21 fb	andl	%edi, %ebx
000140a6	89 44 1a 28	movl	%eax, 0x28(%edx,%ebx)
000140aa	89 4c 1a 24	movl	%ecx, 0x24(%edx,%ebx)
000140ae	09 fe	orl	%edi, %esi
000140b0	89 72 14	movl	%esi, 0x14(%edx)
000140b3	c6 45 1c 01	movb	$0x1, 0x1c(%ebp)
000140b7	8b 45 00	movl	(%ebp), %eax
000140ba	89 2c 24	movl	%ebp, P24C_SW_1ST_VECTOR_NUM(%esp)
000140bd	ff 50 3c	calll	*0x3c(%eax)
000140c0	80 3d e8 c8 00 00 00	cmpb	$0x0, _gPerfLogEnable
000140c7	75 7d	jne	0x14146
000140c9	83 c4 2c	addl	$0x2c, %esp
000140cc	5e	popl	%esi
000140cd	5f	popl	%edi
000140ce	5b	popl	%ebx
000140cf	5d	popl	%ebp
000140d0	c3	retl
000140d1	8b 0d f8 c8 00 00	movl	__ZN17IGMicroController9fInstanceE, %ecx ## IGMicroController::fInstance
000140d7	0f b6 45 24	movzbl	0x24(%ebp), %eax
000140db	8d 14 85 b1 00 a7 85	leal	-0x7a58ff4f(,%eax,4), %edx
000140e2	8b 74 24 44	movl	0x44(%esp), %esi
000140e6	8b 06	movl	P24C_SW_1ST_VECTOR_NUM(%esi), %eax
000140e8	8b 76 04	movl	0x4(%esi), %esi
000140eb	89 74 24 0c	movl	%esi, 0xc(%esp)
000140ef	89 44 24 08	movl	%eax, 0x8(%esp)
000140f3	83 64 24 10 00	andl	$0x0, 0x10(%esp)
000140f8	83 64 24 04 00	andl	$0x0, 0x4(%esp)
000140fd	83 24 24 00	andl	$0x0, P24C_SW_1ST_VECTOR_NUM(%esp)
00014101	e8 36 48 00 00	calll	__ZN17IGMicroController27perfLogAppendKdebugConstantEjyjjj ## IGMicroController::perfLogAppendKdebugConstant(unsigned int, unsigned long long, unsigned int, unsigned int, unsigned int)
00014106	80 3d e8 c8 00 00 00	cmpb	$0x0, _gPerfLogEnable
0001410d	0f 84 77 fe ff ff	je	0x13f8a
00014113	8b 0d f8 c8 00 00	movl	__ZN17IGMicroController9fInstanceE, %ecx ## IGMicroController::fInstance
00014119	0f b6 45 24	movzbl	0x24(%ebp), %eax
0001411d	8d 14 85 79 01 a7 85	leal	-0x7a58fe87(,%eax,4), %edx
00014124	83 64 24 10 00	andl	$0x0, 0x10(%esp)
00014129	83 64 24 0c 00	andl	$0x0, 0xc(%esp)
0001412e	83 64 24 08 00	andl	$0x0, 0x8(%esp)
00014133	83 64 24 04 00	andl	$0x0, 0x4(%esp)
00014138	83 24 24 00	andl	$0x0, P24C_SW_1ST_VECTOR_NUM(%esp)
0001413c	e8 fb 47 00 00	calll	__ZN17IGMicroController27perfLogAppendKdebugConstantEjyjjj ## IGMicroController::perfLogAppendKdebugConstant(unsigned int, unsigned long long, unsigned int, unsigned int, unsigned int)
00014141	e9 44 fe ff ff	jmp	0x13f8a
00014146	8b 0d f8 c8 00 00	movl	__ZN17IGMicroController9fInstanceE, %ecx ## IGMicroController::fInstance
0001414c	0f b6 45 24	movzbl	0x24(%ebp), %eax
00014150	8d 14 85 b2 00 a7 85	leal	-0x7a58ff4e(,%eax,4), %edx
00014157	8b 74 24 44	movl	0x44(%esp), %esi
0001415b	8b 06	movl	P24C_SW_1ST_VECTOR_NUM(%esi), %eax
0001415d	8b 76 04	movl	0x4(%esi), %esi
00014160	89 74 24 0c	movl	%esi, 0xc(%esp)
00014164	89 44 24 08	movl	%eax, 0x8(%esp)
00014168	83 64 24 10 00	andl	$0x0, 0x10(%esp)
0001416d	83 64 24 04 00	andl	$0x0, 0x4(%esp)
00014172	83 24 24 00	andl	$0x0, P24C_SW_1ST_VECTOR_NUM(%esp)
00014176	e8 c1 47 00 00	calll	__ZN17IGMicroController27perfLogAppendKdebugConstantEjyjjj ## IGMicroController::perfLogAppendKdebugConstant(unsigned int, unsigned long long, unsigned int, unsigned int, unsigned int)
0001417b	e9 49 ff ff ff	jmp	0x140c9
00014180	89 4c 24 20	movl	%ecx, 0x20(%esp)
00014184	e8 c9 da ff ff	calll	_assertionFailed
00014189	8b 4c 24 20	movl	0x20(%esp), %ecx
0001418d	e9 53 fe ff ff	jmp	0x13fe5
00014192	89 cb	movl	%ecx, %ebx
00014194	e8 b9 da ff ff	calll	_assertionFailed
00014199	89 d9	movl	%ebx, %ecx
0001419b	8b 03	movl	P24C_SW_1ST_VECTOR_NUM(%ebx), %eax
0001419d	e9 51 fe ff ff	jmp	0x13ff3
000141a2	89 cf	movl	%ecx, %edi
000141a4	e8 a9 da ff ff	calll	_assertionFailed
000141a9	89 f9	movl	%edi, %ecx
000141ab	e9 64 fe ff ff	jmp	0x14014
__ZN21IGCommandStreamerBase19csbProcessPreemptedERK17SGfxContextStatus:
000141b0	55	pushl	%ebp
000141b1	53	pushl	%ebx
000141b2	57	pushl	%edi
000141b3	56	pushl	%esi
000141b4	83 ec 1c	subl	$0x1c, %esp
000141b7	8b 74 24 34	movl	0x34(%esp), %esi
000141bb	8b 5c 24 30	movl	0x30(%esp), %ebx
000141bf	80 3d e8 c8 00 00 00	cmpb	$0x0, _gPerfLogEnable
000141c6	0f 85 d0 01 00 00	jne	0x1439c
000141cc	8b 43 20	movl	0x20(%ebx), %eax
000141cf	0f b6 53 24	movzbl	0x24(%ebx), %edx
000141d3	8b 4c c3 0c	movl	0xc(%ebx,%eax,8), %ecx
000141d7	89 14 24	movl	%edx, P24C_SW_1ST_VECTOR_NUM(%esp)
000141da	89 f2	movl	%esi, %edx
000141dc	e8 07 08 00 00	calll	__Z29igContextStatusBufferValidateRK20IGExecListSubmitPortRK17SGfxContextStatus10IGHwCsType ## igContextStatusBufferValidate(IGExecListSubmitPort const&, SGfxContextStatus const&, IGHwCsType)
000141e1	84 c0	testb	%al, %al
000141e3	75 26	jne	0x1420b
000141e5	a1 80 00 e0 fe	movl	0xfee00080, %eax
000141ea	c7 05 80 00 e0 fe f0 00 00 00	movl	$0xf0, -0x11fff80
000141f4	83 0d bc c1 e0 ff 08	orl	$0x8, -0x1f3e44
000141fb	c7 05 00 00 f9 ff 00 80 04 00	movl	$0x48000, -0x70000
00014205	a3 80 00 e0 fe	movl	%eax, 0xfee00080
0001420a	cc	int3
0001420b	8b 43 20	movl	0x20(%ebx), %eax
0001420e	8b 44 c3 0c	movl	0xc(%ebx,%eax,8), %eax
00014212	8b 28	movl	P24C_SW_1ST_VECTOR_NUM(%eax), %ebp
00014214	8b 7d 18	movl	0x18(%ebp), %edi
00014217	6a 20	pushl	$0x20
00014219	58	popl	%eax
0001421a	01 e8	addl	%ebp, %eax
0001421c	89 c1	movl	%eax, %ecx
0001421e	83 e1 f0	andl	$-0x10, %ecx
00014221	83 e0 0f	andl	$0xf, %eax
00014224	83 c0 2f	addl	$0x2f, %eax
00014227	83 e0 f0	andl	$-0x10, %eax
0001422a	01 c8	addl	%ecx, %eax
0001422c	39 c1	cmpl	%eax, %ecx
0001422e	73 08	jae	0x14238
00014230	0f ae 39	clflush	P24C_SW_1ST_VECTOR_NUM(%ecx)
00014233	83 c1 10	addl	$0x10, %ecx
00014236	eb f4	jmp	0x1422c
00014238	8b 03	movl	P24C_SW_1ST_VECTOR_NUM(%ebx), %eax
0001423a	89 6c 24 04	movl	%ebp, 0x4(%esp)
0001423e	89 1c 24	movl	%ebx, P24C_SW_1ST_VECTOR_NUM(%esp)
00014241	83 64 24 08 00	andl	$0x0, 0x8(%esp)
00014246	ff 50 1c	calll	*0x1c(%eax)
00014249	c6 43 1c 01	movb	$0x1, 0x1c(%ebx)
0001424d	8b 03	movl	P24C_SW_1ST_VECTOR_NUM(%ebx), %eax
0001424f	89 1c 24	movl	%ebx, P24C_SW_1ST_VECTOR_NUM(%esp)
00014252	ff 50 3c	calll	*0x3c(%eax)
00014255	8b 06	movl	P24C_SW_1ST_VECTOR_NUM(%esi), %eax
00014257	a8 10	testb	$0x10, %al
00014259	74 39	je	0x14294
0001425b	83 7d 24 01	cmpl	$0x1, 0x24(%ebp)
0001425f	75 1d	jne	0x1427e
00014261	8b 03	movl	P24C_SW_1ST_VECTOR_NUM(%ebx), %eax
00014263	89 1c 24	movl	%ebx, P24C_SW_1ST_VECTOR_NUM(%esp)
00014266	ff 50 24	calll	*0x24(%eax)
00014269	8b 03	movl	P24C_SW_1ST_VECTOR_NUM(%ebx), %eax
0001426b	8b 4b 20	movl	0x20(%ebx), %ecx
0001426e	8b 4c cb 0c	movl	0xc(%ebx,%ecx,8), %ecx
00014272	89 4c 24 04	movl	%ecx, 0x4(%esp)
00014276	89 1c 24	movl	%ebx, P24C_SW_1ST_VECTOR_NUM(%esp)
00014279	ff 50 34	calll	*0x34(%eax)
0001427c	8b 06	movl	P24C_SW_1ST_VECTOR_NUM(%esi), %eax
0001427e	66 85 c0	testw	%ax, %ax
00014281	79 11	jns	0x14294
00014283	a1 f8 c8 00 00	movl	__ZN17IGMicroController9fInstanceE, %eax ## IGMicroController::fInstance
00014288	0f b6 53 24	movzbl	0x24(%ebx), %edx
0001428c	8b 48 20	movl	0x20(%eax), %ecx
0001428f	e8 74 4f 00 00	calll	__ZN17IGMicroController26updateCSSubmissionsRetiredE10IGHwCsType ## IGMicroController::updateCSSubmissionsRetired(IGHwCsType)
00014294	ff 4d 24	decl	0x24(%ebp)
00014297	8b 0d f8 c8 00 00	movl	__ZN17IGMicroController9fInstanceE, %ecx ## IGMicroController::fInstance
0001429d	89 fa	movl	%edi, %edx
0001429f	e8 ac 4e 00 00	calll	__ZN17IGMicroController23schedNotifyAsyncEnginesEi ## IGMicroController::schedNotifyAsyncEngines(int)
000142a4	8b 06	movl	P24C_SW_1ST_VECTOR_NUM(%esi), %eax
000142a6	66 85 c0	testw	%ax, %ax
000142a9	0f 88 91 00 00 00	js	0x14340
000142af	a8 10	testb	$0x10, %al
000142b1	75 2b	jne	0x142de
000142b3	8b 13	movl	P24C_SW_1ST_VECTOR_NUM(%ebx), %edx
000142b5	8b 4b 20	movl	0x20(%ebx), %ecx
000142b8	8b 7c cb 0c	movl	0xc(%ebx,%ecx,8), %edi
000142bc	31 c9	xorl	%ecx, %ecx
000142be	84 c0	testb	%al, %al
000142c0	0f 98 c1	sets	%cl
000142c3	89 7c 24 04	movl	%edi, 0x4(%esp)
000142c7	89 1c 24	movl	%ebx, P24C_SW_1ST_VECTOR_NUM(%esp)
000142ca	89 4c 24 0c	movl	%ecx, 0xc(%esp)
000142ce	c7 44 24 10 01 00 00 00	movl	$0x1, 0x10(%esp)
000142d6	83 64 24 08 00	andl	$0x0, 0x8(%esp)
000142db	ff 52 30	calll	*0x30(%edx)
000142de	8b 43 20	movl	0x20(%ebx), %eax
000142e1	8b 44 c3 10	movl	0x10(%ebx,%eax,8), %eax
000142e5	85 c0	testl	%eax, %eax
000142e7	74 65	je	0x1434e
000142e9	8b 00	movl	P24C_SW_1ST_VECTOR_NUM(%eax), %eax
000142eb	ff 48 24	decl	0x24(%eax)
000142ee	8b 4b 20	movl	0x20(%ebx), %ecx
000142f1	8b 44 cb 10	movl	0x10(%ebx,%ecx,8), %eax
000142f5	31 d2	xorl	%edx, %edx
000142f7	42	incl	%edx
000142f8	29 ca	subl	%ecx, %edx
000142fa	8b 54 d3 0c	movl	0xc(%ebx,%edx,8), %edx
000142fe	8b 08	movl	P24C_SW_1ST_VECTOR_NUM(%eax), %ecx
00014300	8b 78 04	movl	0x4(%eax), %edi
00014303	33 7a 04	xorl	0x4(%edx), %edi
00014306	8b 12	movl	P24C_SW_1ST_VECTOR_NUM(%edx), %edx
00014308	31 ca	xorl	%ecx, %edx
0001430a	09 fa	orl	%edi, %edx
0001430c	74 40	je	0x1434e
0001430e	8b 49 18	movl	0x18(%ecx), %ecx
00014311	c1 e1 05	shll	$0x5, %ecx
00014314	31 d2	xorl	%edx, %edx
00014316	83 bc 0b 58 02 00 00 00	cmpl	$0x0, 0x258(%ebx,%ecx)
0001431e	0f 95 c2	setne	%dl
00014321	8b 0b	movl	P24C_SW_1ST_VECTOR_NUM(%ebx), %ecx
00014323	89 54 24 08	movl	%edx, 0x8(%esp)
00014327	89 44 24 04	movl	%eax, 0x4(%esp)
0001432b	89 1c 24	movl	%ebx, P24C_SW_1ST_VECTOR_NUM(%esp)
0001432e	c7 44 24 10 01 00 00 00	movl	$0x1, 0x10(%esp)
00014336	83 64 24 0c 00	andl	$0x0, 0xc(%esp)
0001433b	ff 51 30	calll	*0x30(%ecx)
0001433e	eb 0e	jmp	0x1434e
00014340	8b 43 20	movl	0x20(%ebx), %eax
00014343	83 7c c3 10 00	cmpl	$0x0, 0x10(%ebx,%eax,8)
00014348	0f 85 2b 01 00 00	jne	0x14479
0001434e	8b 43 20	movl	0x20(%ebx), %eax
00014351	31 ff	xorl	%edi, %edi
00014353	47	incl	%edi
00014354	89 f9	movl	%edi, %ecx
00014356	29 c1	subl	%eax, %ecx
00014358	89 4b 20	movl	%ecx, 0x20(%ebx)
0001435b	80 3d e8 c8 00 00 00	cmpb	$0x0, _gPerfLogEnable
00014362	75 75	jne	0x143d9
00014364	83 64 c3 0c 00	andl	$0x0, 0xc(%ebx,%eax,8)
00014369	83 64 c3 10 00	andl	$0x0, 0x10(%ebx,%eax,8)
0001436e	89 e8	movl	%ebp, %eax
00014370	83 e0 f0	andl	$-0x10, %eax
00014373	83 e5 0f	andl	$0xf, %ebp
00014376	83 c5 4f	addl	$0x4f, %ebp
00014379	83 e5 d0	andl	$-0x30, %ebp
0001437c	01 c5	addl	%eax, %ebp
0001437e	39 e8	cmpl	%ebp, %eax
00014380	73 08	jae	0x1438a
00014382	0f ae 38	clflush	P24C_SW_1ST_VECTOR_NUM(%eax)
00014385	83 c0 10	addl	$0x10, %eax
00014388	eb f4	jmp	0x1437e
0001438a	c7 05 20 c0 e0 ff 01 00 00 00	movl	$0x1, -0x1f3fe0
00014394	83 c4 1c	addl	$0x1c, %esp
00014397	5e	popl	%esi
00014398	5f	popl	%edi
00014399	5b	popl	%ebx
0001439a	5d	popl	%ebp
0001439b	c3	retl
0001439c	8b 0d f8 c8 00 00	movl	__ZN17IGMicroController9fInstanceE, %ecx ## IGMicroController::fInstance
000143a2	0f b6 43 24	movzbl	0x24(%ebx), %eax
000143a6	8d 14 85 c5 00 a7 85	leal	-0x7a58ff3b(,%eax,4), %edx
000143ad	8b 06	movl	P24C_SW_1ST_VECTOR_NUM(%esi), %eax
000143af	8b 7e 04	movl	0x4(%esi), %edi
000143b2	89 c5	movl	%eax, %ebp
000143b4	c1 ed 0f	shrl	$0xf, %ebp
000143b7	83 e5 01	andl	$0x1, %ebp
000143ba	89 6c 24 10	movl	%ebp, 0x10(%esp)
000143be	89 7c 24 0c	movl	%edi, 0xc(%esp)
000143c2	89 44 24 08	movl	%eax, 0x8(%esp)
000143c6	83 64 24 04 00	andl	$0x0, 0x4(%esp)
000143cb	83 24 24 00	andl	$0x0, P24C_SW_1ST_VECTOR_NUM(%esp)
000143cf	e8 68 45 00 00	calll	__ZN17IGMicroController27perfLogAppendKdebugConstantEjyjjj ## IGMicroController::perfLogAppendKdebugConstant(unsigned int, unsigned long long, unsigned int, unsigned int, unsigned int)
000143d4	e9 f3 fd ff ff	jmp	0x141cc
000143d9	8b 44 cb 0c	movl	0xc(%ebx,%ecx,8), %eax
000143dd	8b 00	movl	P24C_SW_1ST_VECTOR_NUM(%eax), %eax
000143df	8b 40 10	movl	0x10(%eax), %eax
000143e2	8b 0d f8 c8 00 00	movl	__ZN17IGMicroController9fInstanceE, %ecx ## IGMicroController::fInstance
000143e8	8b 90 50 f0 ff ff	movl	-0xfb0(%eax), %edx
000143ee	2b 90 48 f0 ff ff	subl	-0xfb8(%eax), %edx
000143f4	6b c2 0a	imull	$0xa, %edx, %eax
000143f7	31 d2	xorl	%edx, %edx
000143f9	f7 b1 20 04 00 00	divl	0x420(%ecx)
000143ff	8b 16	movl	P24C_SW_1ST_VECTOR_NUM(%esi), %edx
00014401	c1 ea 0f	shrl	$0xf, %edx
00014404	21 fa	andl	%edi, %edx
00014406	89 54 24 0c	movl	%edx, 0xc(%esp)
0001440a	89 44 24 08	movl	%eax, 0x8(%esp)
0001440e	83 64 24 10 00	andl	$0x0, 0x10(%esp)
00014413	83 64 24 04 00	andl	$0x0, 0x4(%esp)
00014418	83 24 24 00	andl	$0x0, P24C_SW_1ST_VECTOR_NUM(%esp)
0001441c	ba b8 01 a7 85	movl	$0x85a701b8, %edx
00014421	e8 16 45 00 00	calll	__ZN17IGMicroController27perfLogAppendKdebugConstantEjyjjj ## IGMicroController::perfLogAppendKdebugConstant(unsigned int, unsigned long long, unsigned int, unsigned int, unsigned int)
00014426	a0 e8 c8 00 00	movb	_gPerfLogEnable, %al
0001442b	2b 7b 20	subl	0x20(%ebx), %edi
0001442e	83 64 fb 0c 00	andl	$0x0, 0xc(%ebx,%edi,8)
00014433	83 64 fb 10 00	andl	$0x0, 0x10(%ebx,%edi,8)
00014438	84 c0	testb	%al, %al
0001443a	0f 84 2e ff ff ff	je	0x1436e
00014440	8b 0d f8 c8 00 00	movl	__ZN17IGMicroController9fInstanceE, %ecx ## IGMicroController::fInstance
00014446	0f b6 43 24	movzbl	0x24(%ebx), %eax
0001444a	8d 14 85 c6 00 a7 85	leal	-0x7a58ff3a(,%eax,4), %edx
00014451	8b 45 24	movl	0x24(%ebp), %eax
00014454	8b 75 00	movl	(%ebp), %esi
00014457	8b 7d 18	movl	0x18(%ebp), %edi
0001445a	89 7c 24 10	movl	%edi, 0x10(%esp)
0001445e	89 74 24 0c	movl	%esi, 0xc(%esp)
00014462	89 44 24 08	movl	%eax, 0x8(%esp)
00014466	83 64 24 04 00	andl	$0x0, 0x4(%esp)
0001446b	83 24 24 00	andl	$0x0, P24C_SW_1ST_VECTOR_NUM(%esp)
0001446f	e8 c8 44 00 00	calll	__ZN17IGMicroController27perfLogAppendKdebugConstantEjyjjj ## IGMicroController::perfLogAppendKdebugConstant(unsigned int, unsigned long long, unsigned int, unsigned int, unsigned int)
00014474	e9 f5 fe ff ff	jmp	0x1436e
00014479	e8 d4 d7 ff ff	calll	_assertionFailed
0001447e	e9 cb fe ff ff	jmp	0x1434e
00014483	90	nop
__ZN21IGCommandStreamerBase23csbProcessElementSwitchERK17SGfxContextStatus:
00014484	55	pushl	%ebp
00014485	53	pushl	%ebx
00014486	57	pushl	%edi
00014487	56	pushl	%esi
00014488	83 ec 1c	subl	$0x1c, %esp
0001448b	8b 74 24 34	movl	0x34(%esp), %esi
0001448f	8b 7c 24 30	movl	0x30(%esp), %edi
00014493	80 3d e8 c8 00 00 00	cmpb	$0x0, _gPerfLogEnable
0001449a	0f 85 cb 01 00 00	jne	0x1466b
000144a0	8b 47 20	movl	0x20(%edi), %eax
000144a3	0f b6 57 24	movzbl	0x24(%edi), %edx
000144a7	8b 4c c7 0c	movl	0xc(%edi,%eax,8), %ecx
000144ab	89 14 24	movl	%edx, P24C_SW_1ST_VECTOR_NUM(%esp)
000144ae	89 f2	movl	%esi, %edx
000144b0	e8 33 05 00 00	calll	__Z29igContextStatusBufferValidateRK20IGExecListSubmitPortRK17SGfxContextStatus10IGHwCsType ## igContextStatusBufferValidate(IGExecListSubmitPort const&, SGfxContextStatus const&, IGHwCsType)
000144b5	84 c0	testb	%al, %al
000144b7	75 26	jne	0x144df
000144b9	a1 80 00 e0 fe	movl	0xfee00080, %eax
000144be	c7 05 80 00 e0 fe f0 00 00 00	movl	$0xf0, -0x11fff80
000144c8	83 0d bc c1 e0 ff 08	orl	$0x8, -0x1f3e44
000144cf	c7 05 00 00 f9 ff 00 80 04 00	movl	$0x48000, -0x70000
000144d9	a3 80 00 e0 fe	movl	%eax, 0xfee00080
000144de	cc	int3
000144df	8b 47 20	movl	0x20(%edi), %eax
000144e2	8b 44 c7 0c	movl	0xc(%edi,%eax,8), %eax
000144e6	8b 28	movl	P24C_SW_1ST_VECTOR_NUM(%eax), %ebp
000144e8	8d 45 10	leal	0x10(%ebp), %eax
000144eb	89 c1	movl	%eax, %ecx
000144ed	83 e1 f0	andl	$-0x10, %ecx
000144f0	83 e0 0f	andl	$0xf, %eax
000144f3	83 c0 3f	addl	$0x3f, %eax
000144f6	83 e0 f0	andl	$-0x10, %eax
000144f9	01 c8	addl	%ecx, %eax
000144fb	39 c1	cmpl	%eax, %ecx
000144fd	73 08	jae	0x14507
000144ff	0f ae 39	clflush	P24C_SW_1ST_VECTOR_NUM(%ecx)
00014502	83 c1 10	addl	$0x10, %ecx
00014505	eb f4	jmp	0x144fb
00014507	8b 5d 18	movl	0x18(%ebp), %ebx
0001450a	a1 ec c3 e0 ff	movl	0xffe0c3ec, %eax
0001450f	8b 0d e8 c3 e0 ff	movl	-0x1f3c18, %ecx
00014515	3b 05 ec c3 e0 ff	cmpl	-0x1f3c14, %eax
0001451b	75 ed	jne	0x1450a
0001451d	8b 57 20	movl	0x20(%edi), %edx
00014520	8b 54 d7 0c	movl	0xc(%edi,%edx,8), %edx
00014524	89 42 30	movl	%eax, 0x30(%edx)
00014527	89 4a 2c	movl	%ecx, 0x2c(%edx)
0001452a	8b 07	movl	P24C_SW_1ST_VECTOR_NUM(%edi), %eax
0001452c	89 6c 24 04	movl	%ebp, 0x4(%esp)
00014530	89 3c 24	movl	%edi, P24C_SW_1ST_VECTOR_NUM(%esp)
00014533	83 64 24 08 00	andl	$0x0, 0x8(%esp)
00014538	ff 50 1c	calll	*0x1c(%eax)
0001453b	80 3e 00	cmpb	$0x0, P24C_SW_1ST_VECTOR_NUM(%esi)
0001453e	78 1f	js	0x1455f
00014540	83 7d 24 01	cmpl	$0x1, 0x24(%ebp)
00014544	0f 85 94 01 00 00	jne	0x146de
0001454a	8b 07	movl	P24C_SW_1ST_VECTOR_NUM(%edi), %eax
0001454c	8b 4f 20	movl	0x20(%edi), %ecx
0001454f	8b 4c cf 0c	movl	0xc(%edi,%ecx,8), %ecx
00014553	89 4c 24 04	movl	%ecx, 0x4(%esp)
00014557	89 3c 24	movl	%edi, P24C_SW_1ST_VECTOR_NUM(%esp)
0001455a	ff 50 34	calll	*0x34(%eax)
0001455d	eb 25	jmp	0x14584
0001455f	8b 07	movl	P24C_SW_1ST_VECTOR_NUM(%edi), %eax
00014561	8b 4f 20	movl	0x20(%edi), %ecx
00014564	8b 4c cf 0c	movl	0xc(%edi,%ecx,8), %ecx
00014568	89 4c 24 04	movl	%ecx, 0x4(%esp)
0001456c	89 3c 24	movl	%edi, P24C_SW_1ST_VECTOR_NUM(%esp)
0001456f	83 64 24 10 00	andl	$0x0, 0x10(%esp)
00014574	c7 44 24 0c 01 00 00 00	movl	$0x1, 0xc(%esp)
0001457c	83 64 24 08 00	andl	$0x0, 0x8(%esp)
00014581	ff 50 30	calll	*0x30(%eax)
00014584	8b 0d f8 c8 00 00	movl	__ZN17IGMicroController9fInstanceE, %ecx ## IGMicroController::fInstance
0001458a	89 da	movl	%ebx, %edx
0001458c	e8 bf 4b 00 00	calll	__ZN17IGMicroController23schedNotifyAsyncEnginesEi ## IGMicroController::schedNotifyAsyncEngines(int)
00014591	8b 07	movl	P24C_SW_1ST_VECTOR_NUM(%edi), %eax
00014593	89 3c 24	movl	%edi, P24C_SW_1ST_VECTOR_NUM(%esp)
00014596	ff 50 28	calll	*0x28(%eax)
00014599	8b 45 24	movl	0x24(%ebp), %eax
0001459c	83 f8 01	cmpl	$0x1, %eax
0001459f	75 0b	jne	0x145ac
000145a1	8b 07	movl	P24C_SW_1ST_VECTOR_NUM(%edi), %eax
000145a3	89 3c 24	movl	%edi, P24C_SW_1ST_VECTOR_NUM(%esp)
000145a6	ff 50 24	calll	*0x24(%eax)
000145a9	8b 45 24	movl	0x24(%ebp), %eax
000145ac	48	decl	%eax
000145ad	89 45 24	movl	%eax, 0x24(%ebp)
000145b0	8b 4f 20	movl	0x20(%edi), %ecx
000145b3	8b 44 cf 10	movl	0x10(%edi,%ecx,8), %eax
000145b7	89 44 cf 0c	movl	%eax, 0xc(%edi,%ecx,8)
000145bb	8b 0d ec c3 e0 ff	movl	-0x1f3c14, %ecx
000145c1	8b 15 e8 c3 e0 ff	movl	-0x1f3c18, %edx
000145c7	3b 0d ec c3 e0 ff	cmpl	-0x1f3c14, %ecx
000145cd	75 ec	jne	0x145bb
000145cf	8b 78 14	movl	0x14(%eax), %edi
000145d2	6a 08	pushl	$0x8
000145d4	5e	popl	%esi
000145d5	89 fb	movl	%edi, %ebx
000145d7	21 f3	andl	%esi, %ebx
000145d9	89 4c 18 28	movl	%ecx, 0x28(%eax,%ebx)
000145dd	89 54 18 24	movl	%edx, 0x24(%eax,%ebx)
000145e1	09 f7	orl	%esi, %edi
000145e3	89 78 14	movl	%edi, 0x14(%eax)
000145e6	8b 7c 24 30	movl	0x30(%esp), %edi
000145ea	8b 47 20	movl	0x20(%edi), %eax
000145ed	83 64 c7 10 00	andl	$0x0, 0x10(%edi,%eax,8)
000145f2	31 c9	xorl	%ecx, %ecx
000145f4	39 4c c7 0c	cmpl	%ecx, 0xc(%edi,%eax,8)
000145f8	0f 84 a3 00 00 00	je	0x146a1
000145fe	a1 f8 c8 00 00	movl	__ZN17IGMicroController9fInstanceE, %eax ## IGMicroController::fInstance
00014603	b9 00 f0 ff ff	movl	$0xfffff000, %ecx
00014608	23 48 34	andl	0x34(%eax), %ecx
0001460b	0f b6 47 24	movzbl	0x24(%edi), %eax
0001460f	6b c0 18	imull	$0x18, %eax, %eax
00014612	8d 54 01 14	leal	0x14(%ecx,%eax), %edx
00014616	8d 34 01	leal	P24C_SW_1ST_VECTOR_NUM(%ecx,%eax), %esi
00014619	8d 44 01 1c	leal	0x1c(%ecx,%eax), %eax
0001461d	6a 24	pushl	$0x24
0001461f	59	popl	%ecx
00014620	01 f1	addl	%esi, %ecx
00014622	89 04 24	movl	%eax, P24C_SW_1ST_VECTOR_NUM(%esp)
00014625	89 4c 24 04	movl	%ecx, 0x4(%esp)
00014629	89 f9	movl	%edi, %ecx
0001462b	e8 d2 e4 ff ff	calll	__ZNK21IGCommandStreamerBase28getCurrentExecListDumpStatusEPjPiS0_ ## IGCommandStreamerBase::getCurrentExecListDumpStatus(unsigned int*, int*, unsigned int*) const
00014630	89 e8	movl	%ebp, %eax
00014632	83 e0 f0	andl	$-0x10, %eax
00014635	83 e5 0f	andl	$0xf, %ebp
00014638	83 c5 4f	addl	$0x4f, %ebp
0001463b	83 e5 d0	andl	$-0x30, %ebp
0001463e	01 c5	addl	%eax, %ebp
00014640	8b 74 24 34	movl	0x34(%esp), %esi
00014644	39 e8	cmpl	%ebp, %eax
00014646	73 08	jae	0x14650
00014648	0f ae 38	clflush	P24C_SW_1ST_VECTOR_NUM(%eax)
0001464b	83 c0 10	addl	$0x10, %eax
0001464e	eb f4	jmp	0x14644
00014650	c7 05 20 c0 e0 ff 01 00 00 00	movl	$0x1, -0x1f3fe0
0001465a	80 3d e8 c8 00 00 00	cmpb	$0x0, _gPerfLogEnable
00014661	75 48	jne	0x146ab
00014663	83 c4 1c	addl	$0x1c, %esp
00014666	5e	popl	%esi
00014667	5f	popl	%edi
00014668	5b	popl	%ebx
00014669	5d	popl	%ebp
0001466a	c3	retl
0001466b	8b 0d f8 c8 00 00	movl	__ZN17IGMicroController9fInstanceE, %ecx ## IGMicroController::fInstance
00014671	0f b6 47 24	movzbl	0x24(%edi), %eax
00014675	8d 14 85 d9 00 a7 85	leal	-0x7a58ff27(,%eax,4), %edx
0001467c	8b 06	movl	P24C_SW_1ST_VECTOR_NUM(%esi), %eax
0001467e	8b 5e 04	movl	0x4(%esi), %ebx
00014681	89 5c 24 0c	movl	%ebx, 0xc(%esp)
00014685	89 44 24 08	movl	%eax, 0x8(%esp)
00014689	83 64 24 10 00	andl	$0x0, 0x10(%esp)
0001468e	83 64 24 04 00	andl	$0x0, 0x4(%esp)
00014693	83 24 24 00	andl	$0x0, P24C_SW_1ST_VECTOR_NUM(%esp)
00014697	e8 a0 42 00 00	calll	__ZN17IGMicroController27perfLogAppendKdebugConstantEjyjjj ## IGMicroController::perfLogAppendKdebugConstant(unsigned int, unsigned long long, unsigned int, unsigned int, unsigned int)
0001469c	e9 ff fd ff ff	jmp	0x144a0
000146a1	e8 ac d5 ff ff	calll	_assertionFailed
000146a6	e9 53 ff ff ff	jmp	0x145fe
000146ab	8b 0d f8 c8 00 00	movl	__ZN17IGMicroController9fInstanceE, %ecx ## IGMicroController::fInstance
000146b1	0f b6 47 24	movzbl	0x24(%edi), %eax
000146b5	8d 14 85 da 00 a7 85	leal	-0x7a58ff26(,%eax,4), %edx
000146bc	8b 06	movl	P24C_SW_1ST_VECTOR_NUM(%esi), %eax
000146be	8b 76 04	movl	0x4(%esi), %esi
000146c1	89 74 24 0c	movl	%esi, 0xc(%esp)
000146c5	89 44 24 08	movl	%eax, 0x8(%esp)
000146c9	83 64 24 10 00	andl	$0x0, 0x10(%esp)
000146ce	83 64 24 04 00	andl	$0x0, 0x4(%esp)
000146d3	83 24 24 00	andl	$0x0, P24C_SW_1ST_VECTOR_NUM(%esp)
000146d7	e8 60 42 00 00	calll	__ZN17IGMicroController27perfLogAppendKdebugConstantEjyjjj ## IGMicroController::perfLogAppendKdebugConstant(unsigned int, unsigned long long, unsigned int, unsigned int, unsigned int)
000146dc	eb 85	jmp	0x14663
000146de	e8 6f d5 ff ff	calll	_assertionFailed
000146e3	e9 62 fe ff ff	jmp	0x1454a
__ZN21IGCommandStreamerBase22csbProcessActiveToIdleERK17SGfxContextStatus:
000146e8	55	pushl	%ebp
000146e9	53	pushl	%ebx
000146ea	57	pushl	%edi
000146eb	56	pushl	%esi
000146ec	83 ec 1c	subl	$0x1c, %esp
000146ef	8b 5c 24 34	movl	0x34(%esp), %ebx
000146f3	8b 7c 24 30	movl	0x30(%esp), %edi
000146f7	80 3d e8 c8 00 00 00	cmpb	$0x0, _gPerfLogEnable
000146fe	0f 85 45 02 00 00	jne	0x14949
00014704	8b 47 20	movl	0x20(%edi), %eax
00014707	0f b6 57 24	movzbl	0x24(%edi), %edx
0001470b	8b 4c c7 0c	movl	0xc(%edi,%eax,8), %ecx
0001470f	89 14 24	movl	%edx, P24C_SW_1ST_VECTOR_NUM(%esp)
00014712	89 da	movl	%ebx, %edx
00014714	e8 cf 02 00 00	calll	__Z29igContextStatusBufferValidateRK20IGExecListSubmitPortRK17SGfxContextStatus10IGHwCsType ## igContextStatusBufferValidate(IGExecListSubmitPort const&, SGfxContextStatus const&, IGHwCsType)
00014719	84 c0	testb	%al, %al
0001471b	75 26	jne	0x14743
0001471d	a1 80 00 e0 fe	movl	0xfee00080, %eax
00014722	c7 05 80 00 e0 fe f0 00 00 00	movl	$0xf0, -0x11fff80
0001472c	83 0d bc c1 e0 ff 08	orl	$0x8, -0x1f3e44
00014733	c7 05 00 00 f9 ff 00 80 04 00	movl	$0x48000, -0x70000
0001473d	a3 80 00 e0 fe	movl	%eax, 0xfee00080
00014742	cc	int3
00014743	80 3d e8 c8 00 00 00	cmpb	$0x0, _gPerfLogEnable
0001474a	0f 85 2f 02 00 00	jne	0x1497f
00014750	8b 47 20	movl	0x20(%edi), %eax
00014753	8b 44 c7 0c	movl	0xc(%edi,%eax,8), %eax
00014757	8b 28	movl	P24C_SW_1ST_VECTOR_NUM(%eax), %ebp
00014759	8d 45 10	leal	0x10(%ebp), %eax
0001475c	89 c1	movl	%eax, %ecx
0001475e	83 e1 f0	andl	$-0x10, %ecx
00014761	83 e0 0f	andl	$0xf, %eax
00014764	83 c0 3f	addl	$0x3f, %eax
00014767	83 e0 f0	andl	$-0x10, %eax
0001476a	01 c8	addl	%ecx, %eax
0001476c	39 c1	cmpl	%eax, %ecx
0001476e	73 08	jae	0x14778
00014770	0f ae 39	clflush	P24C_SW_1ST_VECTOR_NUM(%ecx)
00014773	83 c1 10	addl	$0x10, %ecx
00014776	eb f4	jmp	0x1476c
00014778	8b 75 18	movl	0x18(%ebp), %esi
0001477b	a1 ec c3 e0 ff	movl	0xffe0c3ec, %eax
00014780	8b 0d e8 c3 e0 ff	movl	-0x1f3c18, %ecx
00014786	3b 05 ec c3 e0 ff	cmpl	-0x1f3c14, %eax
0001478c	75 ed	jne	0x1477b
0001478e	8b 57 20	movl	0x20(%edi), %edx
00014791	8b 54 d7 0c	movl	0xc(%edi,%edx,8), %edx
00014795	89 42 30	movl	%eax, 0x30(%edx)
00014798	89 4a 2c	movl	%ecx, 0x2c(%edx)
0001479b	8b 07	movl	P24C_SW_1ST_VECTOR_NUM(%edi), %eax
0001479d	89 6c 24 04	movl	%ebp, 0x4(%esp)
000147a1	89 3c 24	movl	%edi, P24C_SW_1ST_VECTOR_NUM(%esp)
000147a4	83 64 24 08 00	andl	$0x0, 0x8(%esp)
000147a9	ff 50 1c	calll	*0x1c(%eax)
000147ac	80 3b 00	cmpb	$0x0, P24C_SW_1ST_VECTOR_NUM(%ebx)
000147af	8b 47 20	movl	0x20(%edi), %eax
000147b2	8b 44 c7 0c	movl	0xc(%edi,%eax,8), %eax
000147b6	78 0e	js	0x147c6
000147b8	8b 0f	movl	P24C_SW_1ST_VECTOR_NUM(%edi), %ecx
000147ba	89 44 24 04	movl	%eax, 0x4(%esp)
000147be	89 3c 24	movl	%edi, P24C_SW_1ST_VECTOR_NUM(%esp)
000147c1	ff 51 34	calll	*0x34(%ecx)
000147c4	eb 1e	jmp	0x147e4
000147c6	8b 0f	movl	P24C_SW_1ST_VECTOR_NUM(%edi), %ecx
000147c8	89 44 24 04	movl	%eax, 0x4(%esp)
000147cc	89 3c 24	movl	%edi, P24C_SW_1ST_VECTOR_NUM(%esp)
000147cf	83 64 24 10 00	andl	$0x0, 0x10(%esp)
000147d4	c7 44 24 0c 01 00 00 00	movl	$0x1, 0xc(%esp)
000147dc	83 64 24 08 00	andl	$0x0, 0x8(%esp)
000147e1	ff 51 30	calll	*0x30(%ecx)
000147e4	8b 0d f8 c8 00 00	movl	__ZN17IGMicroController9fInstanceE, %ecx ## IGMicroController::fInstance
000147ea	f6 41 3c 40	testb	$0x40, 0x3c(%ecx)
000147ee	0f 84 ab 00 00 00	je	0x1489f
000147f4	8b 47 20	movl	0x20(%edi), %eax
000147f7	8b 44 c7 10	movl	0x10(%edi,%eax,8), %eax
000147fb	85 c0	testl	%eax, %eax
000147fd	0f 84 9c 00 00 00	je	0x1489f
00014803	89 74 24 18	movl	%esi, 0x18(%esp)
00014807	8b 30	movl	P24C_SW_1ST_VECTOR_NUM(%eax), %esi
00014809	8d 46 10	leal	0x10(%esi), %eax
0001480c	89 c1	movl	%eax, %ecx
0001480e	83 e1 f0	andl	$-0x10, %ecx
00014811	83 e0 0f	andl	$0xf, %eax
00014814	83 c0 1f	addl	$0x1f, %eax
00014817	83 e0 f0	andl	$-0x10, %eax
0001481a	01 c8	addl	%ecx, %eax
0001481c	39 c1	cmpl	%eax, %ecx
0001481e	73 08	jae	0x14828
00014820	0f ae 39	clflush	P24C_SW_1ST_VECTOR_NUM(%ecx)
00014823	83 c1 10	addl	$0x10, %ecx
00014826	eb f4	jmp	0x1481c
00014828	ff 4e 24	decl	0x24(%esi)
0001482b	8b 47 20	movl	0x20(%edi), %eax
0001482e	31 c9	xorl	%ecx, %ecx
00014830	41	incl	%ecx
00014831	29 c1	subl	%eax, %ecx
00014833	8b 4c cf 0c	movl	0xc(%edi,%ecx,8), %ecx
00014837	85 c9	testl	%ecx, %ecx
00014839	8b 44 c7 10	movl	0x10(%edi,%eax,8), %eax
0001483d	74 12	je	0x14851
0001483f	8b 10	movl	P24C_SW_1ST_VECTOR_NUM(%eax), %edx
00014841	8b 58 04	movl	0x4(%eax), %ebx
00014844	33 59 04	xorl	0x4(%ecx), %ebx
00014847	33 11	xorl	P24C_SW_1ST_VECTOR_NUM(%ecx), %edx
00014849	09 da	orl	%ebx, %edx
0001484b	8b 5c 24 34	movl	0x34(%esp), %ebx
0001484f	74 1e	je	0x1486f
00014851	8b 0f	movl	P24C_SW_1ST_VECTOR_NUM(%edi), %ecx
00014853	89 44 24 04	movl	%eax, 0x4(%esp)
00014857	89 3c 24	movl	%edi, P24C_SW_1ST_VECTOR_NUM(%esp)
0001485a	c7 44 24 10 01 00 00 00	movl	$0x1, 0x10(%esp)
00014862	83 64 24 0c 00	andl	$0x0, 0xc(%esp)
00014867	83 64 24 08 00	andl	$0x0, 0x8(%esp)
0001486c	ff 51 30	calll	*0x30(%ecx)
0001486f	89 f0	movl	%esi, %eax
00014871	83 e0 f0	andl	$-0x10, %eax
00014874	83 e6 0f	andl	$0xf, %esi
00014877	83 c6 4f	addl	$0x4f, %esi
0001487a	83 e6 d0	andl	$-0x30, %esi
0001487d	01 c6	addl	%eax, %esi
0001487f	39 f0	cmpl	%esi, %eax
00014881	73 08	jae	0x1488b
00014883	0f ae 38	clflush	P24C_SW_1ST_VECTOR_NUM(%eax)
00014886	83 c0 10	addl	$0x10, %eax
00014889	eb f4	jmp	0x1487f
0001488b	c7 05 20 c0 e0 ff 01 00 00 00	movl	$0x1, -0x1f3fe0
00014895	8b 0d f8 c8 00 00	movl	__ZN17IGMicroController9fInstanceE, %ecx ## IGMicroController::fInstance
0001489b	8b 74 24 18	movl	0x18(%esp), %esi
0001489f	89 f2	movl	%esi, %edx
000148a1	e8 aa 48 00 00	calll	__ZN17IGMicroController23schedNotifyAsyncEnginesEi ## IGMicroController::schedNotifyAsyncEngines(int)
000148a6	83 7d 24 01	cmpl	$0x1, 0x24(%ebp)
000148aa	75 24	jne	0x148d0
000148ac	8b 07	movl	P24C_SW_1ST_VECTOR_NUM(%edi), %eax
000148ae	89 3c 24	movl	%edi, P24C_SW_1ST_VECTOR_NUM(%esp)
000148b1	ff 50 24	calll	*0x24(%eax)
000148b4	80 7f 1c 00	cmpb	$0x0, 0x1c(%edi)
000148b8	74 16	je	0x148d0
000148ba	8b 0d f8 c8 00 00	movl	__ZN17IGMicroController9fInstanceE, %ecx ## IGMicroController::fInstance
000148c0	0f b6 57 24	movzbl	0x24(%edi), %edx
000148c4	c7 04 24 01 00 00 00	movl	$0x1, P24C_SW_1ST_VECTOR_NUM(%esp)
000148cb	e8 6c 49 00 00	calll	__ZN17IGMicroController15updateIdleStateE10IGHwCsTypeb ## IGMicroController::updateIdleState(IGHwCsType, bool)
000148d0	ff 4d 24	decl	0x24(%ebp)
000148d3	8b 47 20	movl	0x20(%edi), %eax
000148d6	83 64 c7 0c 00	andl	$0x0, 0xc(%edi,%eax,8)
000148db	83 64 c7 10 00	andl	$0x0, 0x10(%edi,%eax,8)
000148e0	a1 f8 c8 00 00	movl	__ZN17IGMicroController9fInstanceE, %eax ## IGMicroController::fInstance
000148e5	b9 00 f0 ff ff	movl	$0xfffff000, %ecx
000148ea	23 48 34	andl	0x34(%eax), %ecx
000148ed	0f b6 47 24	movzbl	0x24(%edi), %eax
000148f1	6b c0 18	imull	$0x18, %eax, %eax
000148f4	8d 54 01 14	leal	0x14(%ecx,%eax), %edx
000148f8	8d 34 01	leal	P24C_SW_1ST_VECTOR_NUM(%ecx,%eax), %esi
000148fb	8d 44 01 1c	leal	0x1c(%ecx,%eax), %eax
000148ff	6a 24	pushl	$0x24
00014901	59	popl	%ecx
00014902	01 f1	addl	%esi, %ecx
00014904	89 4c 24 04	movl	%ecx, 0x4(%esp)
00014908	89 04 24	movl	%eax, P24C_SW_1ST_VECTOR_NUM(%esp)
0001490b	89 f9	movl	%edi, %ecx
0001490d	e8 f0 e1 ff ff	calll	__ZNK21IGCommandStreamerBase28getCurrentExecListDumpStatusEPjPiS0_ ## IGCommandStreamerBase::getCurrentExecListDumpStatus(unsigned int*, int*, unsigned int*) const
00014912	89 e8	movl	%ebp, %eax
00014914	83 e0 f0	andl	$-0x10, %eax
00014917	83 e5 0f	andl	$0xf, %ebp
0001491a	83 c5 4f	addl	$0x4f, %ebp
0001491d	83 e5 d0	andl	$-0x30, %ebp
00014920	01 c5	addl	%eax, %ebp
00014922	39 e8	cmpl	%ebp, %eax
00014924	73 08	jae	0x1492e
00014926	0f ae 38	clflush	P24C_SW_1ST_VECTOR_NUM(%eax)
00014929	83 c0 10	addl	$0x10, %eax
0001492c	eb f4	jmp	0x14922
0001492e	c7 05 20 c0 e0 ff 01 00 00 00	movl	$0x1, -0x1f3fe0
00014938	80 3d e8 c8 00 00 00	cmpb	$0x0, _gPerfLogEnable
0001493f	75 71	jne	0x149b2
00014941	83 c4 1c	addl	$0x1c, %esp
00014944	5e	popl	%esi
00014945	5f	popl	%edi
00014946	5b	popl	%ebx
00014947	5d	popl	%ebp
00014948	c3	retl
00014949	8b 0d f8 c8 00 00	movl	__ZN17IGMicroController9fInstanceE, %ecx ## IGMicroController::fInstance
0001494f	0f b6 47 24	movzbl	0x24(%edi), %eax
00014953	8d 14 85 ed 00 a7 85	leal	-0x7a58ff13(,%eax,4), %edx
0001495a	8b 03	movl	P24C_SW_1ST_VECTOR_NUM(%ebx), %eax
0001495c	8b 73 04	movl	0x4(%ebx), %esi
0001495f	89 74 24 0c	movl	%esi, 0xc(%esp)
00014963	89 44 24 08	movl	%eax, 0x8(%esp)
00014967	83 64 24 10 00	andl	$0x0, 0x10(%esp)
0001496c	83 64 24 04 00	andl	$0x0, 0x4(%esp)
00014971	83 24 24 00	andl	$0x0, P24C_SW_1ST_VECTOR_NUM(%esp)
00014975	e8 c2 3f 00 00	calll	__ZN17IGMicroController27perfLogAppendKdebugConstantEjyjjj ## IGMicroController::perfLogAppendKdebugConstant(unsigned int, unsigned long long, unsigned int, unsigned int, unsigned int)
0001497a	e9 85 fd ff ff	jmp	0x14704
0001497f	8b 0d f8 c8 00 00	movl	__ZN17IGMicroController9fInstanceE, %ecx ## IGMicroController::fInstance
00014985	0f b6 47 24	movzbl	0x24(%edi), %eax
00014989	8d 14 85 7a 01 a7 85	leal	-0x7a58fe86(,%eax,4), %edx
00014990	83 64 24 10 00	andl	$0x0, 0x10(%esp)
00014995	83 64 24 0c 00	andl	$0x0, 0xc(%esp)
0001499a	83 64 24 08 00	andl	$0x0, 0x8(%esp)
0001499f	83 64 24 04 00	andl	$0x0, 0x4(%esp)
000149a4	83 24 24 00	andl	$0x0, P24C_SW_1ST_VECTOR_NUM(%esp)
000149a8	e8 8f 3f 00 00	calll	__ZN17IGMicroController27perfLogAppendKdebugConstantEjyjjj ## IGMicroController::perfLogAppendKdebugConstant(unsigned int, unsigned long long, unsigned int, unsigned int, unsigned int)
000149ad	e9 9e fd ff ff	jmp	0x14750
000149b2	8b 0d f8 c8 00 00	movl	__ZN17IGMicroController9fInstanceE, %ecx ## IGMicroController::fInstance
000149b8	0f b6 47 24	movzbl	0x24(%edi), %eax
000149bc	8d 14 85 ee 00 a7 85	leal	-0x7a58ff12(,%eax,4), %edx
000149c3	8b 03	movl	P24C_SW_1ST_VECTOR_NUM(%ebx), %eax
000149c5	8b 73 04	movl	0x4(%ebx), %esi
000149c8	89 74 24 0c	movl	%esi, 0xc(%esp)
000149cc	89 44 24 08	movl	%eax, 0x8(%esp)
000149d0	83 64 24 10 00	andl	$0x0, 0x10(%esp)
000149d5	83 64 24 04 00	andl	$0x0, 0x4(%esp)
000149da	83 24 24 00	andl	$0x0, P24C_SW_1ST_VECTOR_NUM(%esp)
000149de	e8 59 3f 00 00	calll	__ZN17IGMicroController27perfLogAppendKdebugConstantEjyjjj ## IGMicroController::perfLogAppendKdebugConstant(unsigned int, unsigned long long, unsigned int, unsigned int, unsigned int)
000149e3	e9 59 ff ff ff	jmp	0x14941
__Z29igContextStatusBufferValidateRK20IGExecListSubmitPortRK17SGfxContextStatus10IGHwCsType:
000149e8	53	pushl	%ebx
000149e9	56	pushl	%esi
000149ea	83 ec 14	subl	$0x14, %esp
000149ed	8a 5c 24 20	movb	0x20(%esp), %bl
000149f1	85 c9	testl	%ecx, %ecx
000149f3	74 70	je	0x14a65
000149f5	8b 31	movl	P24C_SW_1ST_VECTOR_NUM(%ecx), %esi
000149f7	8b 4a 04	movl	0x4(%edx), %ecx
000149fa	c1 e9 05	shrl	$0x5, %ecx
000149fd	81 e1 ff 07 00 00	andl	$0x7ff, %ecx
00014a03	33 0e	xorl	P24C_SW_1ST_VECTOR_NUM(%esi), %ecx
00014a05	b0 01	movb	$0x1, %al
00014a07	0b 4e 04	orl	0x4(%esi), %ecx
00014a0a	0f 84 8c 00 00 00	je	0x14a9c
00014a10	0f b6 c3	movzbl	%bl, %eax
00014a13	a3 84 c1 e0 ff	movl	%eax, 0xffe0c184
00014a18	8b 0e	movl	P24C_SW_1ST_VECTOR_NUM(%esi), %ecx
00014a1a	89 0d 88 c1 e0 ff	movl	%ecx, -0x1f3e78
00014a20	8b 4a 04	movl	0x4(%edx), %ecx
00014a23	c1 e9 05	shrl	$0x5, %ecx
00014a26	81 e1 ff 07 00 00	andl	$0x7ff, %ecx
00014a2c	89 0d 8c c1 e0 ff	movl	%ecx, -0x1f3e74
00014a32	8b 0a	movl	P24C_SW_1ST_VECTOR_NUM(%edx), %ecx
00014a34	89 0d 90 c1 e0 ff	movl	%ecx, -0x1f3e70
00014a3a	80 3d e8 c8 00 00 00	cmpb	$0x0, _gPerfLogEnable
00014a41	74 57	je	0x14a9a
00014a43	8b 0d f8 c8 00 00	movl	__ZN17IGMicroController9fInstanceE, %ecx ## IGMicroController::fInstance
00014a49	8b 36	movl	P24C_SW_1ST_VECTOR_NUM(%esi), %esi
00014a4b	8b 52 04	movl	0x4(%edx), %edx
00014a4e	c1 ea 05	shrl	$0x5, %edx
00014a51	81 e2 ff 07 00 00	andl	$0x7ff, %edx
00014a57	89 54 24 10	movl	%edx, 0x10(%esp)
00014a5b	89 74 24 0c	movl	%esi, 0xc(%esp)
00014a5f	89 44 24 08	movl	%eax, 0x8(%esp)
00014a63	eb 5c	jmp	0x14ac1
00014a65	0f b6 c3	movzbl	%bl, %eax
00014a68	a3 84 c1 e0 ff	movl	%eax, 0xffe0c184
00014a6d	c7 05 88 c1 e0 ff ff ff ff ff	movl	$0xffffffff, -0x1f3e78
00014a77	8b 4a 04	movl	0x4(%edx), %ecx
00014a7a	c1 e9 05	shrl	$0x5, %ecx
00014a7d	81 e1 ff 07 00 00	andl	$0x7ff, %ecx
00014a83	89 0d 8c c1 e0 ff	movl	%ecx, -0x1f3e74
00014a89	8b 0a	movl	P24C_SW_1ST_VECTOR_NUM(%edx), %ecx
00014a8b	89 0d 90 c1 e0 ff	movl	%ecx, -0x1f3e70
00014a91	80 3d e8 c8 00 00 00	cmpb	$0x0, _gPerfLogEnable
00014a98	75 08	jne	0x14aa2
00014a9a	31 c0	xorl	%eax, %eax
00014a9c	83 c4 14	addl	$0x14, %esp
00014a9f	5e	popl	%esi
00014aa0	5b	popl	%ebx
00014aa1	c3	retl
00014aa2	8b 0d f8 c8 00 00	movl	__ZN17IGMicroController9fInstanceE, %ecx ## IGMicroController::fInstance
00014aa8	8b 52 04	movl	0x4(%edx), %edx
00014aab	c1 ea 05	shrl	$0x5, %edx
00014aae	81 e2 ff 07 00 00	andl	$0x7ff, %edx
00014ab4	89 54 24 10	movl	%edx, 0x10(%esp)
00014ab8	89 44 24 08	movl	%eax, 0x8(%esp)
00014abc	83 4c 24 0c ff	orl	$-0x1, 0xc(%esp)
00014ac1	83 64 24 04 00	andl	$0x0, 0x4(%esp)
00014ac6	83 24 24 00	andl	$0x0, P24C_SW_1ST_VECTOR_NUM(%esp)
00014aca	ba 44 00 a7 85	movl	$0x85a70044, %edx
00014acf	e8 68 3e 00 00	calll	__ZN17IGMicroController27perfLogAppendKdebugConstantEjyjjj ## IGMicroController::perfLogAppendKdebugConstant(unsigned int, unsigned long long, unsigned int, unsigned int, unsigned int)
00014ad4	eb c4	jmp	0x14a9a
__ZN21IGCommandStreamerBase26processContextStatusBufferEv:
00014ad6	55	pushl	%ebp
00014ad7	53	pushl	%ebx
00014ad8	57	pushl	%edi
00014ad9	56	pushl	%esi
00014ada	83 ec 4c	subl	$0x4c, %esp
00014add	89 ce	movl	%ecx, %esi
00014adf	80 3d e8 c8 00 00 00	cmpb	$0x0, _gPerfLogEnable
00014ae6	0f 85 14 02 00 00	jne	0x14d00
00014aec	0f b6 46 24	movzbl	0x24(%esi), %eax
00014af0	6b c0 5d	imull	$0x5d, %eax, %eax
00014af3	8d 80 59 9c 01 00	leal	0x19c59(%eax), %eax
00014af9	89 44 24 3c	movl	%eax, 0x3c(%esp)
00014afd	8b 40 04	movl	0x4(%eax), %eax
00014b00	89 44 24 34	movl	%eax, 0x34(%esp)
00014b04	c7 44 24 20 00 00 00 00	movl	$P24C_SW_1ST_VECTOR_NUM, 0x20(%esp)
00014b0c	bb 00 80 ff 03	movl	$0x3ff8000, %ebx
00014b11	89 74 24 40	movl	%esi, 0x40(%esp)
00014b15	8b 44 24 34	movl	0x34(%esp), %eax
00014b19	8b 80 00 00 e0 ff	movl	-0x200000(%eax), %eax
00014b1f	85 c0	testl	%eax, %eax
00014b21	0f 89 c8 01 00 00	jns	0x14cef
00014b27	0f b6 c0	movzbl	%al, %eax
00014b2a	89 44 24 38	movl	%eax, 0x38(%esp)
00014b2e	89 c5	movl	%eax, %ebp
00014b30	85 ed	testl	%ebp, %ebp
00014b32	0f 84 aa 01 00 00	je	0x14ce2
00014b38	83 64 24 28 00	andl	$0x0, 0x28(%esp)
00014b3d	83 64 24 2c 00	andl	$0x0, 0x2c(%esp)
00014b42	8b 44 24 3c	movl	0x3c(%esp), %eax
00014b46	8b 00	movl	P24C_SW_1ST_VECTOR_NUM(%eax), %eax
00014b48	8b 90 00 00 e0 ff	movl	-0x200000(%eax), %edx
00014b4e	8b 80 00 00 e0 ff	movl	-0x200000(%eax), %eax
00014b54	89 c6	movl	%eax, %esi
00014b56	21 d8	andl	%ebx, %eax
00014b58	89 d1	movl	%edx, %ecx
00014b5a	21 d9	andl	%ebx, %ecx
00014b5c	31 ff	xorl	%edi, %edi
00014b5e	39 d8	cmpl	%ebx, %eax
00014b60	89 54 24 1c	movl	%edx, 0x1c(%esp)
00014b64	75 0a	jne	0x14b70
00014b66	c7 44 24 18 00 00 00 00	movl	$P24C_SW_1ST_VECTOR_NUM, 0x18(%esp)
00014b6e	eb 15	jmp	0x14b85
00014b70	8d 3c d5 00 00 00 00	leal	P24C_SW_1ST_VECTOR_NUM(,%edx,8), %edi
00014b77	31 d2	xorl	%edx, %edx
00014b79	4a	decl	%edx
00014b7a	31 d7	xorl	%edx, %edi
00014b7c	83 e7 08	andl	$0x8, %edi
00014b7f	89 7c 24 18	movl	%edi, 0x18(%esp)
00014b83	31 ff	xorl	%edi, %edi
00014b85	39 d9	cmpl	%ebx, %ecx
00014b87	0f 95 c5	setne	%ch
00014b8a	89 6c 24 24	movl	%ebp, 0x24(%esp)
00014b8e	75 04	jne	0x14b94
00014b90	31 d2	xorl	%edx, %edx
00014b92	eb 1d	jmp	0x14bb1
00014b94	8b 54 24 1c	movl	0x1c(%esp), %edx
00014b98	8d 14 95 00 00 00 00	leal	P24C_SW_1ST_VECTOR_NUM(,%edx,4), %edx
00014b9f	31 ed	xorl	%ebp, %ebp
00014ba1	4d	decl	%ebp
00014ba2	31 ea	xorl	%ebp, %edx
00014ba4	6a 04	pushl	$0x4
00014ba6	5d	popl	%ebp
00014ba7	21 ea	andl	%ebp, %edx
00014ba9	c7 44 24 18 00 00 00 00	movl	$P24C_SW_1ST_VECTOR_NUM, 0x18(%esp)
00014bb1	39 d8	cmpl	%ebx, %eax
00014bb3	0f 95 c1	setne	%cl
00014bb6	0f 94 c0	sete	%al
00014bb9	75 02	jne	0x14bbd
00014bbb	31 d2	xorl	%edx, %edx
00014bbd	89 f5	movl	%esi, %ebp
00014bbf	6a 0f	pushl	$0xf
00014bc1	5b	popl	%ebx
00014bc2	21 dd	andl	%ebx, %ebp
00014bc4	20 c5	andb	%al, %ch
00014bc6	0f b6 c5	movzbl	%ch, %eax
00014bc9	89 f3	movl	%esi, %ebx
00014bcb	33 5c 24 1c	xorl	0x1c(%esp), %ebx
00014bcf	81 fb 00 80 00 00	cmpl	$0x8000, %ebx
00014bd5	0f 92 c5	setb	%ch
00014bd8	72 02	jb	0x14bdc
00014bda	89 d7	movl	%edx, %edi
00014bdc	20 cd	andb	%cl, %ch
00014bde	8b 54 24 18	movl	0x18(%esp), %edx
00014be2	09 c2	orl	%eax, %edx
00014be4	0f b6 c5	movzbl	%ch, %eax
00014be7	c1 e0 0f	shll	$0xf, %eax
00014bea	89 44 24 48	movl	%eax, 0x48(%esp)
00014bee	09 fa	orl	%edi, %edx
00014bf0	89 54 24 18	movl	%edx, 0x18(%esp)
00014bf4	83 fd 05	cmpl	$0x5, %ebp
00014bf7	0f 94 c0	sete	%al
00014bfa	8b 54 24 1c	movl	0x1c(%esp), %edx
00014bfe	20 ca	andb	%cl, %dl
00014c00	08 c2	orb	%al, %dl
00014c02	0f b6 fa	movzbl	%dl, %edi
00014c05	01 ff	addl	%edi, %edi
00014c07	85 ed	testl	%ebp, %ebp
00014c09	0f 94 c0	sete	%al
00014c0c	20 c8	andb	%cl, %al
00014c0e	0f b6 c0	movzbl	%al, %eax
00014c11	c1 e0 04	shll	$0x4, %eax
00014c14	89 44 24 44	movl	%eax, 0x44(%esp)
00014c18	31 c9	xorl	%ecx, %ecx
00014c1a	83 fd 01	cmpl	$0x1, %ebp
00014c1d	0f 94 c1	sete	%cl
00014c20	c1 e1 05	shll	$0x5, %ecx
00014c23	31 d2	xorl	%edx, %edx
00014c25	83 fd 02	cmpl	$0x2, %ebp
00014c28	0f 94 c2	sete	%dl
00014c2b	c1 e2 06	shll	$0x6, %edx
00014c2e	31 db	xorl	%ebx, %ebx
00014c30	6a 04	pushl	$0x4
00014c32	58	popl	%eax
00014c33	39 c5	cmpl	%eax, %ebp
00014c35	0f 94 c3	sete	%bl
00014c38	c1 e3 07	shll	$0x7, %ebx
00014c3b	31 c0	xorl	%eax, %eax
00014c3d	83 fd 03	cmpl	$0x3, %ebp
00014c40	0f 94 c0	sete	%al
00014c43	09 ca	orl	%ecx, %edx
00014c45	09 da	orl	%ebx, %edx
00014c47	c1 e0 08	shll	$0x8, %eax
00014c4a	09 c2	orl	%eax, %edx
00014c4c	03 54 24 44	addl	0x44(%esp), %edx
00014c50	03 54 24 18	addl	0x18(%esp), %edx
00014c54	0b 7c 24 48	orl	0x48(%esp), %edi
00014c58	09 d7	orl	%edx, %edi
00014c5a	8b 4c 24 1c	movl	0x1c(%esp), %ecx
00014c5e	89 c8	movl	%ecx, %eax
00014c60	6a 04	pushl	$0x4
00014c62	5a	popl	%edx
00014c63	21 d0	andl	%edx, %eax
00014c65	c1 e0 09	shll	$0x9, %eax
00014c68	09 f8	orl	%edi, %eax
00014c6a	89 44 24 28	movl	%eax, 0x28(%esp)
00014c6e	89 c8	movl	%ecx, %eax
00014c70	83 e0 f8	andl	$-0x8, %eax
00014c73	c1 e0 1a	shll	$0x1a, %eax
00014c76	c1 e1 0a	shll	$0xa, %ecx
00014c79	81 e1 00 00 3f 00	andl	$0x3f0000, %ecx
00014c7f	09 c1	orl	%eax, %ecx
00014c81	89 f0	movl	%esi, %eax
00014c83	c1 e8 03	shrl	$0x3, %eax
00014c86	25 00 00 80 1f	andl	$0x1f800000, %eax
00014c8b	09 c8	orl	%ecx, %eax
00014c8d	89 f1	movl	%esi, %ecx
00014c8f	c1 e9 0a	shrl	$0xa, %ecx
00014c92	81 e1 e0 ff 00 00	andl	$0xffe0, %ecx
00014c98	09 c1	orl	%eax, %ecx
00014c9a	c1 ee 0c	shrl	$0xc, %esi
00014c9d	83 e6 07	andl	$0x7, %esi
00014ca0	09 ce	orl	%ecx, %esi
00014ca2	89 74 24 2c	movl	%esi, 0x2c(%esp)
00014ca6	6a 0f	pushl	$0xf
00014ca8	58	popl	%eax
00014ca9	21 c7	andl	%eax, %edi
00014cab	0f bc cf	bsfl	%edi, %ecx
00014cae	8b 74 24 40	movl	0x40(%esp), %esi
00014cb2	8b 44 ce 28	movl	0x28(%esi,%ecx,8), %eax
00014cb6	8b 4c ce 2c	movl	0x2c(%esi,%ecx,8), %ecx
00014cba	01 f1	addl	%esi, %ecx
00014cbc	a8 01	testb	$0x1, %al
00014cbe	74 06	je	0x14cc6
00014cc0	8b 11	movl	P24C_SW_1ST_VECTOR_NUM(%ecx), %edx
00014cc2	8b 44 10 ff	movl	-0x1(%eax,%edx), %eax
00014cc6	bb 00 80 ff 03	movl	$0x3ff8000, %ebx
00014ccb	8b 6c 24 24	movl	0x24(%esp), %ebp
00014ccf	8d 54 24 28	leal	0x28(%esp), %edx
00014cd3	89 54 24 04	movl	%edx, 0x4(%esp)
00014cd7	89 0c 24	movl	%ecx, P24C_SW_1ST_VECTOR_NUM(%esp)
00014cda	ff d0	calll	*%eax
00014cdc	4d	decl	%ebp
00014cdd	e9 4e fe ff ff	jmp	0x14b30
00014ce2	8b 44 24 38	movl	0x38(%esp), %eax
00014ce6	01 44 24 20	addl	%eax, 0x20(%esp)
00014cea	e9 26 fe ff ff	jmp	0x14b15
00014cef	80 3d e8 c8 00 00 00	cmpb	$0x0, _gPerfLogEnable
00014cf6	75 3b	jne	0x14d33
00014cf8	83 c4 4c	addl	$0x4c, %esp
00014cfb	5e	popl	%esi
00014cfc	5f	popl	%edi
00014cfd	5b	popl	%ebx
00014cfe	5d	popl	%ebp
00014cff	c3	retl
00014d00	8b 0d f8 c8 00 00	movl	__ZN17IGMicroController9fInstanceE, %ecx ## IGMicroController::fInstance
00014d06	0f b6 46 24	movzbl	0x24(%esi), %eax
00014d0a	8d 14 85 9d 00 a7 85	leal	-0x7a58ff63(,%eax,4), %edx
00014d11	83 64 24 10 00	andl	$0x0, 0x10(%esp)
00014d16	83 64 24 0c 00	andl	$0x0, 0xc(%esp)
00014d1b	83 64 24 08 00	andl	$0x0, 0x8(%esp)
00014d20	83 64 24 04 00	andl	$0x0, 0x4(%esp)
00014d25	83 24 24 00	andl	$0x0, P24C_SW_1ST_VECTOR_NUM(%esp)
00014d29	e8 0e 3c 00 00	calll	__ZN17IGMicroController27perfLogAppendKdebugConstantEjyjjj ## IGMicroController::perfLogAppendKdebugConstant(unsigned int, unsigned long long, unsigned int, unsigned int, unsigned int)
00014d2e	e9 b9 fd ff ff	jmp	0x14aec
00014d33	8b 0d f8 c8 00 00	movl	__ZN17IGMicroController9fInstanceE, %ecx ## IGMicroController::fInstance
00014d39	0f b6 46 24	movzbl	0x24(%esi), %eax
00014d3d	8d 14 85 9e 00 a7 85	leal	-0x7a58ff62(,%eax,4), %edx
00014d44	8b 44 24 20	movl	0x20(%esp), %eax
00014d48	89 44 24 08	movl	%eax, 0x8(%esp)
00014d4c	83 64 24 10 00	andl	$0x0, 0x10(%esp)
00014d51	83 64 24 0c 00	andl	$0x0, 0xc(%esp)
00014d56	83 64 24 04 00	andl	$0x0, 0x4(%esp)
00014d5b	83 24 24 00	andl	$0x0, P24C_SW_1ST_VECTOR_NUM(%esp)
00014d5f	e8 d8 3b 00 00	calll	__ZN17IGMicroController27perfLogAppendKdebugConstantEjyjjj ## IGMicroController::perfLogAppendKdebugConstant(unsigned int, unsigned long long, unsigned int, unsigned int, unsigned int)
00014d64	eb 92	jmp	0x14cf8
__ZN21IGCommandStreamerBase13evalWaitQueueEbb:
00014d66	55	pushl	%ebp
00014d67	53	pushl	%ebx
00014d68	57	pushl	%edi
00014d69	56	pushl	%esi
00014d6a	83 ec 4c	subl	$0x4c, %esp
00014d6d	89 ce	movl	%ecx, %esi
00014d6f	80 3d e8 c8 00 00 00	cmpb	$0x0, _gPerfLogEnable
00014d76	89 54 24 34	movl	%edx, 0x34(%esp)
00014d7a	0f b6 fa	movzbl	%dl, %edi
00014d7d	0f 85 c1 04 00 00	jne	0x15244
00014d83	31 c0	xorl	%eax, %eax
00014d85	40	incl	%eax
00014d86	2b 46 20	subl	0x20(%esi), %eax
00014d89	8b 5c c6 0c	movl	0xc(%esi,%eax,8), %ebx
00014d8d	85 db	testl	%ebx, %ebx
00014d8f	89 5c 24 24	movl	%ebx, 0x24(%esp)
00014d93	74 05	je	0x14d9a
00014d95	c1 e7 08	shll	$0x8, %edi
00014d98	89 fb	movl	%edi, %ebx
00014d9a	8d 7e 50	leal	0x50(%esi), %edi
00014d9d	89 3c 24	movl	%edi, P24C_SW_1ST_VECTOR_NUM(%esp)
00014da0	e8 3b de ff ff	calll	__ZNK10IGUkBitSetILj64EE3anyEv ## IGUkBitSet<64u>::any() const
00014da5	84 c0	testb	%al, %al
00014da7	0f 84 84 04 00 00	je	0x15231
00014dad	89 5c 24 20	movl	%ebx, 0x20(%esp)
00014db1	8d 6c 24 40	leal	0x40(%esp), %ebp
00014db5	89 e9	movl	%ebp, %ecx
00014db7	89 7c 24 2c	movl	%edi, 0x2c(%esp)
00014dbb	89 fa	movl	%edi, %edx
00014dbd	e8 c8 dd ff ff	calll	__ZN10IGUkBitSetILj64EEC2ERKS0_ ## IGUkBitSet<64u>::IGUkBitSet(IGUkBitSet<64u> const&)
00014dc2	8d 56 08	leal	0x8(%esi), %edx
00014dc5	89 e9	movl	%ebp, %ecx
00014dc7	89 54 24 3c	movl	%edx, 0x3c(%esp)
00014dcb	e8 2c de ff ff	calll	__ZN21IGCommandStreamerBase22getFirstWorkQueueIndexERK10IGUkBitSetILj64EEPj ## IGCommandStreamerBase::getFirstWorkQueueIndex(IGUkBitSet<64u> const&, unsigned int*)
00014dd0	89 2c 24	movl	%ebp, P24C_SW_1ST_VECTOR_NUM(%esp)
00014dd3	e8 08 de ff ff	calll	__ZNK10IGUkBitSetILj64EE3anyEv ## IGUkBitSet<64u>::any() const
00014dd8	84 c0	testb	%al, %al
00014dda	8b 5c 24 20	movl	0x20(%esp), %ebx
00014dde	0f 84 3a 04 00 00	je	0x1521e
00014de4	89 d8	movl	%ebx, %eax
00014de6	83 e0 08	andl	$0x8, %eax
00014de9	0f 85 2f 04 00 00	jne	0x1521e
00014def	8b 5e 08	movl	0x8(%esi), %ebx
00014df2	89 e9	movl	%ebp, %ecx
00014df4	89 da	movl	%ebx, %edx
00014df6	e8 a7 dd ff ff	calll	__ZN10IGUkBitSetILj64EE5resetEj ## IGUkBitSet<64u>::reset(unsigned int)
00014dfb	89 e9	movl	%ebp, %ecx
00014dfd	8b 54 24 3c	movl	0x3c(%esp), %edx
00014e01	e8 90 de ff ff	calll	__ZN21IGCommandStreamerBase21getNextWorkQueueIndexERK10IGUkBitSetILj64EEPj ## IGCommandStreamerBase::getNextWorkQueueIndex(IGUkBitSet<64u> const&, unsigned int*)
00014e06	89 d9	movl	%ebx, %ecx
00014e08	c1 e1 05	shll	$0x5, %ecx
00014e0b	83 bc 0e 58 02 00 00 00	cmpl	$0x0, 0x258(%esi,%ecx)
00014e13	0f 84 ed 03 00 00	je	0x15206
00014e19	8d 84 0e 58 02 00 00	leal	0x258(%esi,%ecx), %eax
00014e20	89 44 24 28	movl	%eax, 0x28(%esp)
00014e24	80 7c 24 34 00	cmpb	$0x0, 0x34(%esp)
00014e29	8b 54 24 24	movl	0x24(%esp), %edx
00014e2d	74 38	je	0x14e67
00014e2f	8b 46 20	movl	0x20(%esi), %eax
00014e32	8b 44 c6 0c	movl	0xc(%esi,%eax,8), %eax
00014e36	85 c0	testl	%eax, %eax
00014e38	74 2d	je	0x14e67
00014e3a	89 4c 24 18	movl	%ecx, 0x18(%esp)
00014e3e	8b 4c 24 28	movl	0x28(%esp), %ecx
00014e42	8b 09	movl	P24C_SW_1ST_VECTOR_NUM(%ecx), %ecx
00014e44	0f b7 49 16	movzwl	0x16(%ecx), %ecx
00014e48	89 5c 24 14	movl	%ebx, 0x14(%esp)
00014e4c	6a 1f	pushl	$0x1f
00014e4e	5f	popl	%edi
00014e4f	21 f9	andl	%edi, %ecx
00014e51	0f b7 40 16	movzwl	0x16(%eax), %eax
00014e55	21 f8	andl	%edi, %eax
00014e57	8b 5c 24 14	movl	0x14(%esp), %ebx
00014e5b	39 c1	cmpl	%eax, %ecx
00014e5d	8b 4c 24 18	movl	0x18(%esp), %ecx
00014e61	0f 83 69 ff ff ff	jae	0x14dd0
00014e67	85 d2	testl	%edx, %edx
00014e69	74 2e	je	0x14e99
00014e6b	83 bc 0e 68 02 00 00 00	cmpl	$0x0, 0x268(%esi,%ecx)
00014e73	0f 85 57 ff ff ff	jne	0x14dd0
00014e79	8b 44 24 28	movl	0x28(%esp), %eax
00014e7d	8b 00	movl	P24C_SW_1ST_VECTOR_NUM(%eax), %eax
00014e7f	8b 00	movl	P24C_SW_1ST_VECTOR_NUM(%eax), %eax
00014e81	8b 40 18	movl	0x18(%eax), %eax
00014e84	89 cf	movl	%ecx, %edi
00014e86	8b 0a	movl	P24C_SW_1ST_VECTOR_NUM(%edx), %ecx
00014e88	3b 41 18	cmpl	0x18(%ecx), %eax
00014e8b	89 f9	movl	%edi, %ecx
00014e8d	75 0a	jne	0x14e99
00014e8f	f6 42 14 04	testb	$0x4, 0x14(%edx)
00014e93	0f 85 37 ff ff ff	jne	0x14dd0
00014e99	8d bc 0e 60 02 00 00	leal	0x260(%esi,%ecx), %edi
00014ea0	8b 07	movl	P24C_SW_1ST_VECTOR_NUM(%edi), %eax
00014ea2	0f ba e0 11	btl	$0x11, %eax
00014ea6	89 7c 24 14	movl	%edi, 0x14(%esp)
00014eaa	72 58	jb	0x14f04
00014eac	8b 44 24 28	movl	0x28(%esp), %eax
00014eb0	8b 38	movl	P24C_SW_1ST_VECTOR_NUM(%eax), %edi
00014eb2	80 7c 24 34 00	cmpb	$0x0, 0x34(%esp)
00014eb7	0f 84 2b 01 00 00	je	0x14fe8
00014ebd	85 d2	testl	%edx, %edx
00014ebf	89 4c 24 18	movl	%ecx, 0x18(%esp)
00014ec3	74 14	je	0x14ed9
00014ec5	8b 07	movl	P24C_SW_1ST_VECTOR_NUM(%edi), %eax
00014ec7	8b 40 18	movl	0x18(%eax), %eax
00014eca	8b 0a	movl	P24C_SW_1ST_VECTOR_NUM(%edx), %ecx
00014ecc	3b 41 18	cmpl	0x18(%ecx), %eax
00014ecf	8b 4c 24 18	movl	0x18(%esp), %ecx
00014ed3	0f 85 0f 02 00 00	jne	0x150e8
00014ed9	8b 46 20	movl	0x20(%esi), %eax
00014edc	8b 44 c6 0c	movl	0xc(%esi,%eax,8), %eax
00014ee0	85 c0	testl	%eax, %eax
00014ee2	0f 84 00 01 00 00	je	0x14fe8
00014ee8	0f b7 4f 16	movzwl	0x16(%edi), %ecx
00014eec	6a 1f	pushl	$0x1f
00014eee	5a	popl	%edx
00014eef	21 d1	andl	%edx, %ecx
00014ef1	0f b7 40 16	movzwl	0x16(%eax), %eax
00014ef5	21 d0	andl	%edx, %eax
00014ef7	39 c1	cmpl	%eax, %ecx
00014ef9	0f 83 d1 fe ff ff	jae	0x14dd0
00014eff	e9 f0 00 00 00	jmp	0x14ff4
00014f04	89 4c 24 18	movl	%ecx, 0x18(%esp)
00014f08	85 d2	testl	%edx, %edx
00014f0a	74 43	je	0x14f4f
00014f0c	89 ef	movl	%ebp, %edi
00014f0e	8b 0a	movl	P24C_SW_1ST_VECTOR_NUM(%edx), %ecx
00014f10	89 d5	movl	%edx, %ebp
00014f12	0f b7 d0	movzwl	%ax, %edx
00014f15	c7 44 24 1c 00 00 00 00	movl	$P24C_SW_1ST_VECTOR_NUM, 0x1c(%esp)
00014f1d	39 51 18	cmpl	%edx, 0x18(%ecx)
00014f20	75 25	jne	0x14f47
00014f22	8b 45 10	movl	0x10(%ebp), %eax
00014f25	8b 4c 24 18	movl	0x18(%esp), %ecx
00014f29	3b 84 0e 64 02 00 00	cmpl	0x264(%esi,%ecx), %eax
00014f30	78 15	js	0x14f47
00014f32	8b 44 24 28	movl	0x28(%esp), %eax
00014f36	8b 00	movl	P24C_SW_1ST_VECTOR_NUM(%eax), %eax
00014f38	8b 48 14	movl	0x14(%eax), %ecx
00014f3b	c1 e1 09	shll	$0x9, %ecx
00014f3e	c1 f9 1f	sarl	$0x1f, %ecx
00014f41	21 c1	andl	%eax, %ecx
00014f43	89 4c 24 1c	movl	%ecx, 0x1c(%esp)
00014f47	89 fd	movl	%edi, %ebp
00014f49	8b 7c 24 14	movl	0x14(%esp), %edi
00014f4d	eb 0b	jmp	0x14f5a
00014f4f	0f b7 d0	movzwl	%ax, %edx
00014f52	c7 44 24 1c 00 00 00 00	movl	$P24C_SW_1ST_VECTOR_NUM, 0x1c(%esp)
00014f5a	a1 f8 c8 00 00	movl	__ZN17IGMicroController9fInstanceE, %eax ## IGMicroController::fInstance
00014f5f	8b 48 38	movl	0x38(%eax), %ecx
00014f62	e8 bf 41 00 00	calll	__ZNK17IGMicroController15getStampAtIndexEj ## IGMicroController::getStampAtIndex(unsigned int) const
00014f67	8b 00	movl	P24C_SW_1ST_VECTOR_NUM(%eax), %eax
00014f69	8b 4c 24 18	movl	0x18(%esp), %ecx
00014f6d	3b 84 0e 64 02 00 00	cmpl	0x264(%esi,%ecx), %eax
00014f74	78 08	js	0x14f7e
00014f76	8b 44 24 28	movl	0x28(%esp), %eax
00014f7a	8b 38	movl	P24C_SW_1ST_VECTOR_NUM(%eax), %edi
00014f7c	eb 6a	jmp	0x14fe8
00014f7e	80 7c 24 60 00	cmpb	$0x0, 0x60(%esp)
00014f83	74 5f	je	0x14fe4
00014f85	8b 44 24 28	movl	0x28(%esp), %eax
00014f89	8b 00	movl	P24C_SW_1ST_VECTOR_NUM(%eax), %eax
00014f8b	f6 40 16 40	testb	$0x40, 0x16(%eax)
00014f8f	74 53	je	0x14fe4
00014f91	8b 17	movl	P24C_SW_1ST_VECTOR_NUM(%edi), %edx
00014f93	0f b7 ca	movzwl	%dx, %ecx
00014f96	89 4c 24 30	movl	%ecx, 0x30(%esp)
00014f9a	8b 0d f8 c8 00 00	movl	__ZN17IGMicroController9fInstanceE, %ecx ## IGMicroController::fInstance
00014fa0	89 4c 24 38	movl	%ecx, 0x38(%esp)
00014fa4	f6 41 3c 01	testb	$0x1, 0x3c(%ecx)
00014fa8	74 0c	je	0x14fb6
00014faa	8b 4c 24 30	movl	0x30(%esp), %ecx
00014fae	8d 89 62 9e 01 00	leal	__ZL30IG_STAMP_INDEX_TO_HWCS_LUT_SCI.61(%ecx), %ecx ## IG_STAMP_INDEX_TO_HWCS_LUT_SCI (.61)
00014fb4	eb 0a	jmp	0x14fc0
00014fb6	8b 4c 24 30	movl	0x30(%esp), %ecx
00014fba	8d 89 68 9e 01 00	leal	__ZL26IG_STAMP_INDEX_TO_HWCS_LUT.62(%ecx), %ecx ## IG_STAMP_INDEX_TO_HWCS_LUT (.62)
00014fc0	8a 09	movb	P24C_SW_1ST_VECTOR_NUM(%ecx), %cl
00014fc2	b5 02	movb	$0x2, %ch
00014fc4	84 c9	testb	%cl, %cl
00014fc6	75 0f	jne	0x14fd7
00014fc8	c1 ea 02	shrl	$0x2, %edx
00014fcb	81 e2 ff 3f 00 00	andl	$0x3fff, %edx
00014fd1	8a aa 4c 9a 01 00	movb	__ZL34kStampIndexPriorityMappingTableRCS(%edx), %ch ## kStampIndexPriorityMappingTableRCS
00014fd7	3a 4e 24	cmpb	0x24(%esi), %cl
00014fda	0f 85 cc 00 00 00	jne	0x150ac
00014fe0	8b 4c 24 18	movl	0x18(%esp), %ecx
00014fe4	8b 7c 24 1c	movl	0x1c(%esp), %edi
00014fe8	85 ff	testl	%edi, %edi
00014fea	0f 84 e0 fd ff ff	je	0x14dd0
00014ff0	89 4c 24 18	movl	%ecx, 0x18(%esp)
00014ff4	8b 06	movl	P24C_SW_1ST_VECTOR_NUM(%esi), %eax
00014ff6	89 7c 24 04	movl	%edi, 0x4(%esp)
00014ffa	89 34 24	movl	%esi, P24C_SW_1ST_VECTOR_NUM(%esp)
00014ffd	ff 50 10	calll	*0x10(%eax)
00015000	84 c0	testb	%al, %al
00015002	0f 84 c8 fd ff ff	je	0x14dd0
00015008	83 67 0c 00	andl	$0x0, 0xc(%edi)
0001500c	8b 44 24 14	movl	0x14(%esp), %eax
00015010	f6 40 02 02	testb	$0x2, 0x2(%eax)
00015014	8b 4c 24 24	movl	0x24(%esp), %ecx
00015018	74 4a	je	0x15064
0001501a	8b 47 14	movl	0x14(%edi), %eax
0001501d	89 c1	movl	%eax, %ecx
0001501f	c1 e9 15	shrl	$0x15, %ecx
00015022	6a 03	pushl	$0x3
00015024	5a	popl	%edx
00015025	21 d1	andl	%edx, %ecx
00015027	39 d1	cmpl	%edx, %ecx
00015029	74 04	je	0x1502f
0001502b	85 c9	testl	%ecx, %ecx
0001502d	75 08	jne	0x15037
0001502f	e8 1e cc ff ff	calll	_assertionFailed
00015034	8b 47 14	movl	0x14(%edi), %eax
00015037	ba 00 00 60 00	movl	$0x600000, %edx
0001503c	8d 0c 10	leal	P24C_SW_1ST_VECTOR_NUM(%eax,%edx), %ecx
0001503f	21 d1	andl	%edx, %ecx
00015041	25 ff ff 9f ff	andl	$0xff9fffff, %eax
00015046	09 c8	orl	%ecx, %eax
00015048	89 47 14	movl	%eax, 0x14(%edi)
0001504b	8b 44 24 14	movl	0x14(%esp), %eax
0001504f	0f b7 00	movzwl	P24C_SW_1ST_VECTOR_NUM(%eax), %eax
00015052	8d 4c c6 58	leal	0x58(%esi,%eax,8), %ecx
00015056	8b 07	movl	P24C_SW_1ST_VECTOR_NUM(%edi), %eax
00015058	8b 50 18	movl	0x18(%eax), %edx
0001505b	e8 42 db ff ff	calll	__ZN10IGUkBitSetILj64EE5resetEj ## IGUkBitSet<64u>::reset(unsigned int)
00015060	8b 4c 24 24	movl	0x24(%esp), %ecx
00015064	31 c0	xorl	%eax, %eax
00015066	40	incl	%eax
00015067	2b 46 20	subl	0x20(%esi), %eax
0001506a	85 c9	testl	%ecx, %ecx
0001506c	74 63	je	0x150d1
0001506e	89 7c c6 10	movl	%edi, 0x10(%esi,%eax,8)
00015072	8b 7c 24 14	movl	0x14(%esp), %edi
00015076	8a 47 02	movb	0x2(%edi), %al
00015079	24 04	andb	$0x4, %al
0001507b	c0 e8 02	shrb	$0x2, %al
0001507e	0f b6 c0	movzbl	%al, %eax
00015081	c1 e0 09	shll	$0x9, %eax
00015084	8b 4c 24 20	movl	0x20(%esp), %ecx
00015088	09 c1	orl	%eax, %ecx
0001508a	83 c9 48	orl	$0x48, %ecx
0001508d	89 4c 24 20	movl	%ecx, 0x20(%esp)
00015091	8b 44 24 18	movl	0x18(%esp), %eax
00015095	83 bc 06 68 02 00 00 00	cmpl	$0x0, 0x268(%esi,%eax)
0001509d	0f 85 71 01 00 00	jne	0x15214
000150a3	8b 4c 24 2c	movl	0x2c(%esp), %ecx
000150a7	e9 9c 00 00 00	jmp	0x15148
000150ac	0f b6 cd	movzbl	%ch, %ecx
000150af	6b c9 24	imull	$0x24, %ecx, %ecx
000150b2	8b 54 24 38	movl	0x38(%esp), %edx
000150b6	83 bc 0a d0 0e 00 00 00	cmpl	$0x0, 0xed0(%edx,%ecx)
000150be	8b 4c 24 1c	movl	0x1c(%esp), %ecx
000150c2	74 02	je	0x150c6
000150c4	89 c8	movl	%ecx, %eax
000150c6	89 c7	movl	%eax, %edi
000150c8	8b 4c 24 18	movl	0x18(%esp), %ecx
000150cc	e9 17 ff ff ff	jmp	0x14fe8
000150d1	89 7c c6 0c	movl	%edi, 0xc(%esi,%eax,8)
000150d5	8b 4c 24 14	movl	0x14(%esp), %ecx
000150d9	f6 41 02 04	testb	$0x4, 0x2(%ecx)
000150dd	75 38	jne	0x15117
000150df	6a 20	pushl	$0x20
000150e1	58	popl	%eax
000150e2	89 44 24 20	movl	%eax, 0x20(%esp)
000150e6	eb 54	jmp	0x1513c
000150e8	0f b7 47 16	movzwl	0x16(%edi), %eax
000150ec	6a 1f	pushl	$0x1f
000150ee	59	popl	%ecx
000150ef	21 c8	andl	%ecx, %eax
000150f1	89 44 24 1c	movl	%eax, 0x1c(%esp)
000150f5	0f b7 4a 16	movzwl	0x16(%edx), %ecx
000150f9	6a 1f	pushl	$0x1f
000150fb	58	popl	%eax
000150fc	21 c1	andl	%eax, %ecx
000150fe	39 4c 24 1c	cmpl	%ecx, 0x1c(%esp)
00015102	73 0a	jae	0x1510e
00015104	81 64 24 20 df fe ff ff	andl	$0xfffffedf, 0x20(%esp)
0001510c	31 d2	xorl	%edx, %edx
0001510e	89 54 24 24	movl	%edx, 0x24(%esp)
00015112	e9 dd fe ff ff	jmp	0x14ff4
00015117	8b 4c 24 18	movl	0x18(%esp), %ecx
0001511b	8b 8c 0e 68 02 00 00	movl	0x268(%esi,%ecx), %ecx
00015122	85 c9	testl	%ecx, %ecx
00015124	74 0e	je	0x15134
00015126	89 4c c6 10	movl	%ecx, 0x10(%esi,%eax,8)
0001512a	c7 44 24 20 68 03 00 00	movl	$0x368, 0x20(%esp)
00015132	eb 08	jmp	0x1513c
00015134	c7 44 24 20 20 01 00 00	movl	$0x120, 0x20(%esp)
0001513c	89 7c 24 24	movl	%edi, 0x24(%esp)
00015140	8b 4c 24 2c	movl	0x2c(%esp), %ecx
00015144	8b 7c 24 14	movl	0x14(%esp), %edi
00015148	89 da	movl	%ebx, %edx
0001514a	e8 53 da ff ff	calll	__ZN10IGUkBitSetILj64EE5resetEj ## IGUkBitSet<64u>::reset(unsigned int)
0001514f	8b 44 24 28	movl	0x28(%esp), %eax
00015153	83 60 04 00	andl	$0x0, 0x4(%eax)
00015157	83 20 00	andl	$0x0, P24C_SW_1ST_VECTOR_NUM(%eax)
0001515a	8b 07	movl	P24C_SW_1ST_VECTOR_NUM(%edi), %eax
0001515c	b9 00 00 f9 ff	movl	$0xfff90000, %ecx
00015161	21 c8	andl	%ecx, %eax
00015163	89 f9	movl	%edi, %ecx
00015165	8b 7c 24 18	movl	0x18(%esp), %edi
00015169	83 8c 3e 64 02 00 00 ff	orl	$-0x1, 0x264(%esi,%edi)
00015171	ba ff ff 00 00	movl	$0xffff, %edx
00015176	09 d0	orl	%edx, %eax
00015178	89 01	movl	%eax, P24C_SW_1ST_VECTOR_NUM(%ecx)
0001517a	83 a4 3e 6c 02 00 00 00	andl	$0x0, 0x26c(%esi,%edi)
00015182	83 a4 3e 68 02 00 00 00	andl	$0x0, 0x268(%esi,%edi)
0001518a	83 8c 3e 74 02 00 00 ff	orl	$-0x1, 0x274(%esi,%edi)
00015192	8b 84 3e 70 02 00 00	movl	0x270(%esi,%edi), %eax
00015199	b9 00 00 f9 ff	movl	$0xfff90000, %ecx
0001519e	21 c8	andl	%ecx, %eax
000151a0	09 d0	orl	%edx, %eax
000151a2	89 84 3e 70 02 00 00	movl	%eax, 0x270(%esi,%edi)
000151a9	a1 f8 c8 00 00	movl	__ZN17IGMicroController9fInstanceE, %eax ## IGMicroController::fInstance
000151ae	8b 40 34	movl	0x34(%eax), %eax
000151b1	b9 00 f0 ff ff	movl	$0xfffff000, %ecx
000151b6	21 c8	andl	%ecx, %eax
000151b8	6b cb 1d	imull	$0x1d, %ebx, %ecx
000151bb	83 a4 08 a8 00 00 00 00	andl	$0x0, 0xa8(%eax,%ecx)
000151c3	83 a4 08 a4 00 00 00 00	andl	$0x0, 0xa4(%eax,%ecx)
000151cb	83 a4 08 ac 00 00 00 00	andl	$0x0, 0xac(%eax,%ecx)
000151d3	83 a4 08 b0 00 00 00 00	andl	$0x0, SEMAPHORE_VECTOR_2(%eax,%ecx)
000151db	83 8c 08 b4 00 00 00 ff	orl	$-0x1, SEMAPHORE_VECTOR_6(%eax,%ecx)
000151e3	83 a4 08 b8 00 00 00 00	andl	$0x0, 0xb8(%eax,%ecx)
000151eb	c6 84 08 bc 00 00 00 00	movb	$0x0, 0xbc(%eax,%ecx)
000151f3	6a fe	pushl	$-0x2
000151f5	5a	popl	%edx
000151f6	89 d9	movl	%ebx, %ecx
000151f8	d3 c2	roll	%cl, %edx
000151fa	c1 eb 05	shrl	$0x5, %ebx
000151fd	21 54 98 04	andl	%edx, 0x4(%eax,%ebx,4)
00015201	e9 ca fb ff ff	jmp	0x14dd0
00015206	89 cf	movl	%ecx, %edi
00015208	e8 45 ca ff ff	calll	_assertionFailed
0001520d	89 f9	movl	%edi, %ecx
0001520f	e9 05 fc ff ff	jmp	0x14e19
00015214	e8 39 ca ff ff	calll	_assertionFailed
00015219	e9 85 fe ff ff	jmp	0x150a3
0001521e	89 d8	movl	%ebx, %eax
00015220	80 7c 24 60 00	cmpb	$0x0, 0x60(%esp)
00015225	74 03	je	0x1522a
00015227	83 c8 08	orl	$0x8, %eax
0001522a	f6 c3 60	testb	$0x60, %bl
0001522d	74 02	je	0x15231
0001522f	89 c3	movl	%eax, %ebx
00015231	80 3d e8 c8 00 00 00	cmpb	$0x0, _gPerfLogEnable
00015238	75 3c	jne	0x15276
0001523a	89 d8	movl	%ebx, %eax
0001523c	83 c4 4c	addl	$0x4c, %esp
0001523f	5e	popl	%esi
00015240	5f	popl	%edi
00015241	5b	popl	%ebx
00015242	5d	popl	%ebp
00015243	c3	retl
00015244	8b 0d f8 c8 00 00	movl	__ZN17IGMicroController9fInstanceE, %ecx ## IGMicroController::fInstance
0001524a	0f b6 46 24	movzbl	0x24(%esi), %eax
0001524e	8d 14 85 15 01 a7 85	leal	-0x7a58feeb(,%eax,4), %edx
00015255	89 7c 24 08	movl	%edi, 0x8(%esp)
00015259	83 64 24 10 00	andl	$0x0, 0x10(%esp)
0001525e	83 64 24 0c 00	andl	$0x0, 0xc(%esp)
00015263	83 64 24 04 00	andl	$0x0, 0x4(%esp)
00015268	83 24 24 00	andl	$0x0, P24C_SW_1ST_VECTOR_NUM(%esp)
0001526c	e8 cb 36 00 00	calll	__ZN17IGMicroController27perfLogAppendKdebugConstantEjyjjj ## IGMicroController::perfLogAppendKdebugConstant(unsigned int, unsigned long long, unsigned int, unsigned int, unsigned int)
00015271	e9 0d fb ff ff	jmp	0x14d83
00015276	8b 0d f8 c8 00 00	movl	__ZN17IGMicroController9fInstanceE, %ecx ## IGMicroController::fInstance
0001527c	0f b6 46 24	movzbl	0x24(%esi), %eax
00015280	8d 14 85 16 01 a7 85	leal	-0x7a58feea(,%eax,4), %edx
00015287	89 5c 24 08	movl	%ebx, 0x8(%esp)
0001528b	83 64 24 10 00	andl	$0x0, 0x10(%esp)
00015290	83 64 24 0c 00	andl	$0x0, 0xc(%esp)
00015295	83 64 24 04 00	andl	$0x0, 0x4(%esp)
0001529a	83 24 24 00	andl	$0x0, P24C_SW_1ST_VECTOR_NUM(%esp)
0001529e	e8 99 36 00 00	calll	__ZN17IGMicroController27perfLogAppendKdebugConstantEjyjjj ## IGMicroController::perfLogAppendKdebugConstant(unsigned int, unsigned long long, unsigned int, unsigned int, unsigned int)
000152a3	eb 95	jmp	0x1523a
000152a5	90	nop
__ZN18IGInterruptHandler28handleContextSwitchInterruptE10IGHwCsType:
000152a6	56	pushl	%esi
000152a7	83 ec 18	subl	$0x18, %esp
000152aa	8a 44 24 20	movb	0x20(%esp), %al
000152ae	80 3d e8 c8 00 00 00	cmpb	$0x0, _gPerfLogEnable
000152b5	75 1b	jne	0x152d2
000152b7	0f b6 f0	movzbl	%al, %esi
000152ba	8b 0d f8 c8 00 00	movl	__ZN17IGMicroController9fInstanceE, %ecx ## IGMicroController::fInstance
000152c0	6b c6 5d	imull	$0x5d, %esi, %eax
000152c3	8b 90 35 9c 01 00	movl	0x19c35(%eax), %edx
000152c9	83 c4 18	addl	$0x18, %esp
000152cc	5e	popl	%esi
000152cd	e9 da 3d 00 00	jmp	__ZN17IGMicroController11schedNotifyEj ## IGMicroController::schedNotify(unsigned int)
000152d2	8b 0d f8 c8 00 00	movl	__ZN17IGMicroController9fInstanceE, %ecx ## IGMicroController::fInstance
000152d8	0f b6 f0	movzbl	%al, %esi
000152db	89 74 24 08	movl	%esi, 0x8(%esp)
000152df	83 64 24 10 00	andl	$0x0, 0x10(%esp)
000152e4	83 64 24 0c 00	andl	$0x0, 0xc(%esp)
000152e9	83 64 24 04 00	andl	$0x0, 0x4(%esp)
000152ee	83 24 24 00	andl	$0x0, P24C_SW_1ST_VECTOR_NUM(%esp)
000152f2	ba 3c 00 a7 85	movl	$0x85a7003c, %edx
000152f7	e8 40 36 00 00	calll	__ZN17IGMicroController27perfLogAppendKdebugConstantEjyjjj ## IGMicroController::perfLogAppendKdebugConstant(unsigned int, unsigned long long, unsigned int, unsigned int, unsigned int)
000152fc	eb bc	jmp	0x152ba
__ZN18IGInterruptHandler19handleAratInterruptE10IGHwCsType:
000152fe	55	pushl	%ebp
000152ff	53	pushl	%ebx
00015300	57	pushl	%edi
00015301	56	pushl	%esi
00015302	83 ec 1c	subl	$0x1c, %esp
00015305	80 3d e8 c8 00 00 00	cmpb	$0x0, _gPerfLogEnable
0001530c	0f 85 9d 00 00 00	jne	0x153af
00015312	8b 1d f8 c8 00 00	movl	__ZN17IGMicroController9fInstanceE, %ebx ## IGMicroController::fInstance
00015318	8b bb 38 04 00 00	movl	0x438(%ebx), %edi
0001531e	85 ff	testl	%edi, %edi
00015320	0f 84 81 00 00 00	je	0x153a7
00015326	8d 83 d4 02 00 00	leal	0x2d4(%ebx), %eax
0001532c	89 44 24 14	movl	%eax, 0x14(%esp)
00015330	8b 2d e8 c3 e0 ff	movl	-0x1f3c18, %ebp
00015336	89 6c 24 18	movl	%ebp, 0x18(%esp)
0001533a	2b ab 2c 04 00 00	subl	0x42c(%ebx), %ebp
00015340	85 ff	testl	%edi, %edi
00015342	74 38	je	0x1537c
00015344	8b 47 10	movl	0x10(%edi), %eax
00015347	29 e8	subl	%ebp, %eax
00015349	77 24	ja	0x1536f
0001534b	8b 77 18	movl	0x18(%edi), %esi
0001534e	89 f9	movl	%edi, %ecx
00015350	31 d2	xorl	%edx, %edx
00015352	e8 5d 41 00 00	calll	__ZN21IGGucTimerEventSource12checkForWorkEj ## IGGucTimerEventSource::checkForWork(unsigned int)
00015357	09 83 18 04 00 00	orl	%eax, 0x418(%ebx)
0001535d	2b 6f 10	subl	0x10(%edi), %ebp
00015360	8b 17	movl	P24C_SW_1ST_VECTOR_NUM(%edi), %edx
00015362	8b 4c 24 14	movl	0x14(%esp), %ecx
00015366	e8 59 44 00 00	calll	__ZN17IGGucTimerManager27timerEventSourceQueueRemoveE16IGGucTimerTaskId ## IGGucTimerManager::timerEventSourceQueueRemove(IGGucTimerTaskId)
0001536b	89 f7	movl	%esi, %edi
0001536d	eb d1	jmp	0x15340
0001536f	8b 4c 24 18	movl	0x18(%esp), %ecx
00015373	89 8b 2c 04 00 00	movl	%ecx, 0x42c(%ebx)
00015379	89 47 10	movl	%eax, 0x10(%edi)
0001537c	83 bb 38 04 00 00 00	cmpl	$0x0, 0x438(%ebx)
00015383	74 16	je	0x1539b
00015385	8b 15 e8 c3 e0 ff	movl	-0x1f3c18, %edx
0001538b	8b 4c 24 14	movl	0x14(%esp), %ecx
0001538f	83 c4 1c	addl	$0x1c, %esp
00015392	5e	popl	%esi
00015393	5f	popl	%edi
00015394	5b	popl	%ebx
00015395	5d	popl	%ebp
00015396	e9 cb 43 00 00	jmp	__ZN17IGGucTimerManager31timerEventSourceQueueArmHwTimerEj ## IGGucTimerManager::timerEventSourceQueueArmHwTimer(unsigned int)
0001539b	31 c0	xorl	%eax, %eax
0001539d	a3 70 a1 e0 ff	movl	%eax, 0xffe0a170
000153a2	a3 74 a1 e0 ff	movl	%eax, 0xffe0a174
000153a7	83 c4 1c	addl	$0x1c, %esp
000153aa	5e	popl	%esi
000153ab	5f	popl	%edi
000153ac	5b	popl	%ebx
000153ad	5d	popl	%ebp
000153ae	c3	retl
000153af	8b 0d f8 c8 00 00	movl	__ZN17IGMicroController9fInstanceE, %ecx ## IGMicroController::fInstance
000153b5	83 64 24 10 00	andl	$0x0, 0x10(%esp)
000153ba	83 64 24 0c 00	andl	$0x0, 0xc(%esp)
000153bf	83 64 24 08 00	andl	$0x0, 0x8(%esp)
000153c4	83 64 24 04 00	andl	$0x0, 0x4(%esp)
000153c9	83 24 24 00	andl	$0x0, P24C_SW_1ST_VECTOR_NUM(%esp)
000153cd	ba 0c 00 a7 85	movl	$0x85a7000c, %edx
000153d2	e8 65 35 00 00	calll	__ZN17IGMicroController27perfLogAppendKdebugConstantEjyjjj ## IGMicroController::perfLogAppendKdebugConstant(unsigned int, unsigned long long, unsigned int, unsigned int, unsigned int)
000153d7	e9 36 ff ff ff	jmp	0x15312
__ZN18IGInterruptHandler27handlePAVPTeardownInterruptE10IGHwCsType:
000153dc	c7 05 b8 25 e3 ff 01 00 00 00	movl	$0x1, -0x1cda48
000153e6	c3	retl
000153e7	90	nop
__ZZN18IGInterruptHandler4execEjENK3$_0clEjjjRA32_NS_16DispatchMapEntryE:
000153e8	55	pushl	%ebp
000153e9	53	pushl	%ebx
000153ea	57	pushl	%edi
000153eb	56	pushl	%esi
000153ec	83 ec 1c	subl	$0x1c, %esp
000153ef	89 54 24 18	movl	%edx, 0x18(%esp)
000153f3	8b 6c 24 34	movl	0x34(%esp), %ebp
000153f7	8b 74 24 30	movl	0x30(%esp), %esi
000153fb	89 4c 24 10	movl	%ecx, 0x10(%esp)
000153ff	8b 89 00 00 e0 ff	movl	-0x200000(%ecx), %ecx
00015405	c7 44 24 0c 00 00 00 00	movl	$P24C_SW_1ST_VECTOR_NUM, 0xc(%esp)
0001540d	85 c9	testl	%ecx, %ecx
0001540f	74 63	je	0x15474
00015411	89 ca	movl	%ecx, %edx
00015413	0f bc d9	bsfl	%ecx, %ebx
00015416	31 ff	xorl	%edi, %edi
00015418	47	incl	%edi
00015419	89 d9	movl	%ebx, %ecx
0001541b	d3 e7	shll	%cl, %edi
0001541d	8b 44 24 18	movl	0x18(%esp), %eax
00015421	89 b8 00 00 e0 ff	movl	%edi, -0x200000(%eax)
00015427	8b 86 00 00 e0 ff	movl	-0x200000(%esi), %eax
0001542d	85 c0	testl	%eax, %eax
0001542f	79 f6	jns	0x15427
00015431	89 d1	movl	%edx, %ecx
00015433	31 f9	xorl	%edi, %ecx
00015435	09 7c 24 0c	orl	%edi, 0xc(%esp)
00015439	89 86 00 00 e0 ff	movl	%eax, -0x200000(%esi)
0001543f	83 7c dd 04 00	cmpl	$0x0, 0x4(%ebp,%ebx,8)
00015444	74 c7	je	0x1540d
00015446	89 4c 24 14	movl	%ecx, 0x14(%esp)
0001544a	0f b7 f8	movzwl	%ax, %edi
0001544d	85 ff	testl	%edi, %edi
0001544f	74 1d	je	0x1546e
00015451	0f bc cf	bsfl	%edi, %ecx
00015454	8b 44 dd 04	movl	0x4(%ebp,%ebx,8), %eax
00015458	8b 04 88	movl	P24C_SW_1ST_VECTOR_NUM(%eax,%ecx,4), %eax
0001545b	0f bb cf	btcl	%ecx, %edi
0001545e	85 c0	testl	%eax, %eax
00015460	74 eb	je	0x1544d
00015462	0f b6 4c dd 00	movzbl	(%ebp,%ebx,8), %ecx
00015467	89 0c 24	movl	%ecx, P24C_SW_1ST_VECTOR_NUM(%esp)
0001546a	ff d0	calll	*%eax
0001546c	eb df	jmp	0x1544d
0001546e	8b 4c 24 14	movl	0x14(%esp), %ecx
00015472	eb 99	jmp	0x1540d
00015474	8b 44 24 10	movl	0x10(%esp), %eax
00015478	8b 4c 24 0c	movl	0xc(%esp), %ecx
0001547c	89 88 00 00 e0 ff	movl	%ecx, -0x200000(%eax)
00015482	83 c4 1c	addl	$0x1c, %esp
00015485	5e	popl	%esi
00015486	5f	popl	%edi
00015487	5b	popl	%ebx
00015488	5d	popl	%ebp
00015489	c3	retl
__ZN18IGInterruptHandler34handleCheckFrequencyTimerInterruptEPvP21IGGucTimerEventSource:
0001548a	55	pushl	%ebp
0001548b	53	pushl	%ebx
0001548c	57	pushl	%edi
0001548d	56	pushl	%esi
0001548e	81 ec dc 01 00 00	subl	$0x1dc, %esp
00015494	8b 35 f8 c8 00 00	movl	__ZN17IGMicroController9fInstanceE, %esi ## IGMicroController::fInstance
0001549a	80 3d e8 c8 00 00 00	cmpb	$0x0, _gPerfLogEnable
000154a1	0f 85 22 03 00 00	jne	0x157c9
000154a7	8d 84 24 98 00 00 00	leal	0x98(%esp), %eax
000154ae	89 04 24	movl	%eax, P24C_SW_1ST_VECTOR_NUM(%esp)
000154b1	c7 44 24 04 40 01 00 00	movl	$0x140, 0x4(%esp)
000154b9	e8 5e c5 ff ff	calll	___bzero
000154be	b8 00 f0 ff ff	movl	$0xfffff000, %eax
000154c3	23 46 30	andl	0x30(%esi), %eax
000154c6	89 44 24 18	movl	%eax, 0x18(%esp)
000154ca	31 c0	xorl	%eax, %eax
000154cc	f6 86 4c 43 00 00 01	testb	$0x1, 0x434c(%esi)
000154d3	0f 94 c0	sete	%al
000154d6	31 ff	xorl	%edi, %edi
000154d8	47	incl	%edi
000154d9	89 7c 24 04	movl	%edi, 0x4(%esp)
000154dd	89 04 24	movl	%eax, P24C_SW_1ST_VECTOR_NUM(%esp)
000154e0	8d 54 24 58	leal	0x58(%esp), %edx
000154e4	89 f1	movl	%esi, %ecx
000154e6	e8 d3 39 00 00	calll	__ZN17IGMicroController14compilePmStatsEP16IGUkPmStatisticsbb ## IGMicroController::compilePmStats(IGUkPmStatistics*, bool, bool)
000154eb	84 c0	testb	%al, %al
000154ed	74 2c	je	0x1551b
000154ef	83 a4 24 98 00 00 00 00	andl	$0x0, 0x98(%esp)
000154f7	8b 44 24 58	movl	0x58(%esp), %eax
000154fb	c1 e8 18	shrl	$0x18, %eax
000154fe	8b 8e 6c 43 00 00	movl	0x436c(%esi), %ecx
00015504	c1 e9 04	shrl	$0x4, %ecx
00015507	0f b6 c9	movzbl	%cl, %ecx
0001550a	39 c8	cmpl	%ecx, %eax
0001550c	76 2d	jbe	0x1553b
0001550e	c7 84 24 98 00 00 00 04 00 00 00	movl	$0x4, 0x98(%esp)
00015519	eb 3a	jmp	0x15555
0001551b	80 3d e8 c8 00 00 00	cmpb	$0x0, _gPerfLogEnable
00015522	0f 84 96 02 00 00	je	0x157be
00015528	8b 0d f8 c8 00 00	movl	__ZN17IGMicroController9fInstanceE, %ecx ## IGMicroController::fInstance
0001552e	c7 44 24 10 fe 00 00 00	movl	$IOMMU_VECTOR_2, 0x10(%esp)
00015536	e9 ca 02 00 00	jmp	0x15805
0001553b	8b 8e 74 43 00 00	movl	0x4374(%esi), %ecx
00015541	c1 e9 04	shrl	$0x4, %ecx
00015544	0f b6 c9	movzbl	%cl, %ecx
00015547	31 db	xorl	%ebx, %ebx
00015549	39 c8	cmpl	%ecx, %eax
0001554b	73 0a	jae	0x15557
0001554d	83 a4 24 98 00 00 00 00	andl	$0x0, 0x98(%esp)
00015555	89 fb	movl	%edi, %ebx
00015557	f6 86 4c 43 00 00 01	testb	$0x1, 0x434c(%esi)
0001555e	0f 85 ce 00 00 00	jne	0x15632
00015564	8b 8e 70 43 00 00	movl	0x4370(%esi), %ecx
0001556a	b8 ff 00 00 00	movl	$SPURIOUS_VECTOR, %eax
0001556f	89 ca	movl	%ecx, %edx
00015571	21 c2	andl	%eax, %edx
00015573	89 54 24 48	movl	%edx, 0x48(%esp)
00015577	89 ca	movl	%ecx, %edx
00015579	c1 ea 08	shrl	$0x8, %edx
0001557c	21 c2	andl	%eax, %edx
0001557e	89 54 24 4c	movl	%edx, 0x4c(%esp)
00015582	89 ca	movl	%ecx, %edx
00015584	c1 ea 10	shrl	$0x10, %edx
00015587	21 c2	andl	%eax, %edx
00015589	89 54 24 50	movl	%edx, 0x50(%esp)
0001558d	c1 e9 18	shrl	$0x18, %ecx
00015590	89 4c 24 54	movl	%ecx, 0x54(%esp)
00015594	8b 8e 78 43 00 00	movl	0x4378(%esi), %ecx
0001559a	89 ca	movl	%ecx, %edx
0001559c	21 c2	andl	%eax, %edx
0001559e	89 54 24 38	movl	%edx, 0x38(%esp)
000155a2	89 ca	movl	%ecx, %edx
000155a4	c1 ea 08	shrl	$0x8, %edx
000155a7	21 c2	andl	%eax, %edx
000155a9	89 54 24 3c	movl	%edx, 0x3c(%esp)
000155ad	89 ca	movl	%ecx, %edx
000155af	c1 ea 10	shrl	$0x10, %edx
000155b2	21 c2	andl	%eax, %edx
000155b4	89 54 24 40	movl	%edx, 0x40(%esp)
000155b8	c1 e9 18	shrl	$0x18, %ecx
000155bb	89 4c 24 44	movl	%ecx, 0x44(%esp)
000155bf	8b 4c 24 5c	movl	0x5c(%esp), %ecx
000155c3	89 ca	movl	%ecx, %edx
000155c5	21 c2	andl	%eax, %edx
000155c7	89 54 24 28	movl	%edx, 0x28(%esp)
000155cb	89 ca	movl	%ecx, %edx
000155cd	c1 ea 08	shrl	$0x8, %edx
000155d0	21 c2	andl	%eax, %edx
000155d2	89 54 24 2c	movl	%edx, 0x2c(%esp)
000155d6	89 ca	movl	%ecx, %edx
000155d8	c1 ea 10	shrl	$0x10, %edx
000155db	21 c2	andl	%eax, %edx
000155dd	89 54 24 30	movl	%edx, 0x30(%esp)
000155e1	c1 e9 18	shrl	$0x18, %ecx
000155e4	89 4c 24 34	movl	%ecx, 0x34(%esp)
000155e8	6a f0	pushl	$-0x10
000155ea	58	popl	%eax
000155eb	85 c0	testl	%eax, %eax
000155ed	74 43	je	0x15632
000155ef	89 d9	movl	%ebx, %ecx
000155f1	c1 e1 06	shll	$0x6, %ecx
000155f4	83 a4 0c 98 00 00 00 00	andl	$0x0, 0x98(%esp,%ecx)
000155fc	8b 54 04 38	movl	0x38(%esp,%eax), %edx
00015600	3b 54 04 58	cmpl	0x58(%esp,%eax), %edx
00015604	76 0e	jbe	0x15614
00015606	8b 90 c0 9e 01 00	movl	0x19ec0(%eax), %edx
0001560c	83 e2 03	andl	$0x3, %edx
0001560f	83 ca 04	orl	$0x4, %edx
00015612	eb 0f	jmp	0x15623
00015614	3b 54 04 48	cmpl	0x48(%esp,%eax), %edx
00015618	73 13	jae	0x1562d
0001561a	8b 90 c0 9e 01 00	movl	0x19ec0(%eax), %edx
00015620	83 e2 03	andl	$0x3, %edx
00015623	8d 8c 0c 98 00 00 00	leal	0x98(%esp,%ecx), %ecx
0001562a	89 11	movl	%edx, P24C_SW_1ST_VECTOR_NUM(%ecx)
0001562c	43	incl	%ebx
0001562d	83 c0 04	addl	$0x4, %eax
00015630	eb b9	jmp	0x155eb
00015632	85 db	testl	%ebx, %ebx
00015634	0f 84 7b 01 00 00	je	0x157b5
0001563a	89 5c 24 20	movl	%ebx, 0x20(%esp)
0001563e	8b 44 24 18	movl	0x18(%esp), %eax
00015642	8d a8 80 03 00 00	leal	0x380(%eax), %ebp
00015648	89 eb	movl	%ebp, %ebx
0001564a	83 cb 40	orl	$0x40, %ebx
0001564d	89 e8	movl	%ebp, %eax
0001564f	39 d8	cmpl	%ebx, %eax
00015651	73 08	jae	0x1565b
00015653	0f ae 38	clflush	P24C_SW_1ST_VECTOR_NUM(%eax)
00015656	83 c0 10	addl	$0x10, %eax
00015659	eb f4	jmp	0x1564f
0001565b	8b 44 24 18	movl	0x18(%esp), %eax
0001565f	8b 80 80 03 00 00	movl	0x380(%eax), %eax
00015665	40	incl	%eax
00015666	31 c9	xorl	%ecx, %ecx
00015668	83 f8 03	cmpl	$0x3, %eax
0001566b	77 02	ja	0x1566f
0001566d	89 c1	movl	%eax, %ecx
0001566f	89 4c 24 1c	movl	%ecx, 0x1c(%esp)
00015673	89 c8	movl	%ecx, %eax
00015675	c1 e0 06	shll	$0x6, %eax
00015678	8b 4c 24 18	movl	0x18(%esp), %ecx
0001567c	8d 14 01	leal	P24C_SW_1ST_VECTOR_NUM(%ecx,%eax), %edx
0001567f	8d 84 01 c0 03 00 00	leal	0x3c0(%ecx,%eax), %eax
00015686	6a 10	pushl	$0x10
00015688	59	popl	%ecx
00015689	8d 74 24 58	leal	0x58(%esp), %esi
0001568d	89 c7	movl	%eax, %edi
0001568f	f3 a5	rep		movsl	(%esi), %es:(%edi)
00015691	89 c1	movl	%eax, %ecx
00015693	83 c9 0f	orl	$0xf, %ecx
00015696	29 c1	subl	%eax, %ecx
00015698	83 c1 40	addl	$0x40, %ecx
0001569b	83 e1 f0	andl	$-0x10, %ecx
0001569e	8d 8c 11 c0 03 00 00	leal	0x3c0(%ecx,%edx), %ecx
000156a5	39 c8	cmpl	%ecx, %eax
000156a7	73 08	jae	0x156b1
000156a9	0f ae 38	clflush	P24C_SW_1ST_VECTOR_NUM(%eax)
000156ac	83 c0 10	addl	$0x10, %eax
000156af	eb f4	jmp	0x156a5
000156b1	c7 05 20 c0 e0 ff 01 00 00 00	movl	$0x1, -0x1f3fe0
000156bb	8b 44 24 1c	movl	0x1c(%esp), %eax
000156bf	89 45 00	movl	%eax, (%ebp)
000156c2	39 dd	cmpl	%ebx, %ebp
000156c4	73 09	jae	0x156cf
000156c6	0f ae 7d 00	clflush	(%ebp)
000156ca	83 c5 10	addl	$0x10, %ebp
000156cd	eb f3	jmp	0x156c2
000156cf	c7 05 20 c0 e0 ff 01 00 00 00	movl	$0x1, -0x1f3fe0
000156d9	8b 44 24 18	movl	0x18(%esp), %eax
000156dd	05 00 01 00 00	addl	$0x100, %eax
000156e2	89 c6	movl	%eax, %esi
000156e4	83 ce 40	orl	$0x40, %esi
000156e7	89 c2	movl	%eax, %edx
000156e9	8b 4c 24 20	movl	0x20(%esp), %ecx
000156ed	39 f2	cmpl	%esi, %edx
000156ef	73 08	jae	0x156f9
000156f1	0f ae 3a	clflush	P24C_SW_1ST_VECTOR_NUM(%edx)
000156f4	83 c2 10	addl	$0x10, %edx
000156f7	eb f4	jmp	0x156ed
000156f9	89 74 24 24	movl	%esi, 0x24(%esp)
000156fd	c7 05 20 c0 e0 ff 01 00 00 00	movl	$0x1, -0x1f3fe0
00015707	8b 28	movl	P24C_SW_1ST_VECTOR_NUM(%eax), %ebp
00015709	8b 54 24 1c	movl	0x1c(%esp), %edx
0001570d	c1 e2 04	shll	$0x4, %edx
00015710	0f b6 d2	movzbl	%dl, %edx
00015713	89 54 24 1c	movl	%edx, 0x1c(%esp)
00015717	31 ff	xorl	%edi, %edi
00015719	39 cf	cmpl	%ecx, %edi
0001571b	74 72	je	0x1578f
0001571d	89 fb	movl	%edi, %ebx
0001571f	c1 e3 06	shll	$0x6, %ebx
00015722	8b 94 1c 98 00 00 00	movl	0x98(%esp,%ebx), %edx
00015729	b9 0f ff ff ff	movl	$0xffffff0f, %ecx
0001572e	21 ca	andl	%ecx, %edx
00015730	0b 54 24 1c	orl	0x1c(%esp), %edx
00015734	89 94 1c 98 00 00 00	movl	%edx, 0x98(%esp,%ebx)
0001573b	45	incl	%ebp
0001573c	31 db	xorl	%ebx, %ebx
0001573e	83 fd 07	cmpl	$0x7, %ebp
00015741	77 02	ja	0x15745
00015743	89 eb	movl	%ebp, %ebx
00015745	89 dd	movl	%ebx, %ebp
00015747	c1 e5 06	shll	$0x6, %ebp
0001574a	8b 4c 24 18	movl	0x18(%esp), %ecx
0001574e	8d 34 29	leal	P24C_SW_1ST_VECTOR_NUM(%ecx,%ebp), %esi
00015751	8d ac 29 40 01 00 00	leal	0x140(%ecx,%ebp), %ebp
00015758	89 55 00	movl	%edx, (%ebp)
0001575b	89 ea	movl	%ebp, %edx
0001575d	83 ca 0f	orl	$0xf, %edx
00015760	29 ea	subl	%ebp, %edx
00015762	83 c2 40	addl	$0x40, %edx
00015765	83 e2 f0	andl	$-0x10, %edx
00015768	8d 94 32 40 01 00 00	leal	0x140(%edx,%esi), %edx
0001576f	39 d5	cmpl	%edx, %ebp
00015771	73 09	jae	0x1577c
00015773	0f ae 7d 00	clflush	(%ebp)
00015777	83 c5 10	addl	$0x10, %ebp
0001577a	eb f3	jmp	0x1576f
0001577c	c7 05 20 c0 e0 ff 01 00 00 00	movl	$0x1, -0x1f3fe0
00015786	47	incl	%edi
00015787	89 dd	movl	%ebx, %ebp
00015789	8b 4c 24 20	movl	0x20(%esp), %ecx
0001578d	eb 8a	jmp	0x15719
0001578f	89 28	movl	%ebp, P24C_SW_1ST_VECTOR_NUM(%eax)
00015791	8b 4c 24 24	movl	0x24(%esp), %ecx
00015795	39 c8	cmpl	%ecx, %eax
00015797	73 08	jae	0x157a1
00015799	0f ae 38	clflush	P24C_SW_1ST_VECTOR_NUM(%eax)
0001579c	83 c0 10	addl	$0x10, %eax
0001579f	eb f4	jmp	0x15795
000157a1	c7 05 20 c0 e0 ff 01 00 00 00	movl	$0x1, -0x1f3fe0
000157ab	c7 05 b8 c4 e0 ff 40 00 00 00	movl	$0x40, -0x1f3b48
000157b5	80 3d e8 c8 00 00 00	cmpb	$0x0, _gPerfLogEnable
000157bc	75 3c	jne	0x157fa
000157be	81 c4 dc 01 00 00	addl	$0x1dc, %esp
000157c4	5e	popl	%esi
000157c5	5f	popl	%edi
000157c6	5b	popl	%ebx
000157c7	5d	popl	%ebp
000157c8	c3	retl
000157c9	8b 86 4c 43 00 00	movl	0x434c(%esi), %eax
000157cf	83 e0 01	andl	$0x1, %eax
000157d2	89 44 24 08	movl	%eax, 0x8(%esp)
000157d6	83 64 24 10 00	andl	$0x0, 0x10(%esp)
000157db	83 64 24 0c 00	andl	$0x0, 0xc(%esp)
000157e0	83 64 24 04 00	andl	$0x0, 0x4(%esp)
000157e5	83 24 24 00	andl	$0x0, P24C_SW_1ST_VECTOR_NUM(%esp)
000157e9	89 f1	movl	%esi, %ecx
000157eb	ba 11 00 a7 85	movl	$0x85a70011, %edx
000157f0	e8 47 31 00 00	calll	__ZN17IGMicroController27perfLogAppendKdebugConstantEjyjjj ## IGMicroController::perfLogAppendKdebugConstant(unsigned int, unsigned long long, unsigned int, unsigned int, unsigned int)
000157f5	e9 ad fc ff ff	jmp	0x154a7
000157fa	8b 0d f8 c8 00 00	movl	__ZN17IGMicroController9fInstanceE, %ecx ## IGMicroController::fInstance
00015800	83 64 24 10 00	andl	$0x0, 0x10(%esp)
00015805	83 64 24 0c 00	andl	$0x0, 0xc(%esp)
0001580a	83 64 24 08 00	andl	$0x0, 0x8(%esp)
0001580f	83 64 24 04 00	andl	$0x0, 0x4(%esp)
00015814	83 24 24 00	andl	$0x0, P24C_SW_1ST_VECTOR_NUM(%esp)
00015818	ba 12 00 a7 85	movl	$0x85a70012, %edx
0001581d	e8 1a 31 00 00	calll	__ZN17IGMicroController27perfLogAppendKdebugConstantEjyjjj ## IGMicroController::perfLogAppendKdebugConstant(unsigned int, unsigned long long, unsigned int, unsigned int, unsigned int)
00015822	eb 9a	jmp	0x157be
__ZN18IGInterruptHandler32handleThrottleHighTimerInterruptEPvP21IGGucTimerEventSource:
00015824	83 ec 1c	subl	$0x1c, %esp
00015827	80 3d e8 c8 00 00 00	cmpb	$0x0, _gPerfLogEnable
0001582e	75 1a	jne	0x1584a
00015830	8b 0d f8 c8 00 00	movl	__ZN17IGMicroController9fInstanceE, %ecx ## IGMicroController::fInstance
00015836	31 d2	xorl	%edx, %edx
00015838	e8 5b 3c 00 00	calll	__ZN17IGMicroController36handleThrottlePriorityTimerInterruptEh ## IGMicroController::handleThrottlePriorityTimerInterrupt(unsigned char)
0001583d	80 3d e8 c8 00 00 00	cmpb	$0x0, _gPerfLogEnable
00015844	75 2e	jne	0x15874
00015846	83 c4 1c	addl	$0x1c, %esp
00015849	c3	retl
0001584a	8b 0d f8 c8 00 00	movl	__ZN17IGMicroController9fInstanceE, %ecx ## IGMicroController::fInstance
00015850	83 64 24 10 00	andl	$0x0, 0x10(%esp)
00015855	83 64 24 0c 00	andl	$0x0, 0xc(%esp)
0001585a	83 64 24 08 00	andl	$0x0, 0x8(%esp)
0001585f	83 64 24 04 00	andl	$0x0, 0x4(%esp)
00015864	83 24 24 00	andl	$0x0, P24C_SW_1ST_VECTOR_NUM(%esp)
00015868	ba 19 00 a7 85	movl	$0x85a70019, %edx
0001586d	e8 ca 30 00 00	calll	__ZN17IGMicroController27perfLogAppendKdebugConstantEjyjjj ## IGMicroController::perfLogAppendKdebugConstant(unsigned int, unsigned long long, unsigned int, unsigned int, unsigned int)
00015872	eb bc	jmp	0x15830
00015874	8b 0d f8 c8 00 00	movl	__ZN17IGMicroController9fInstanceE, %ecx ## IGMicroController::fInstance
0001587a	83 64 24 10 00	andl	$0x0, 0x10(%esp)
0001587f	83 64 24 0c 00	andl	$0x0, 0xc(%esp)
00015884	83 64 24 08 00	andl	$0x0, 0x8(%esp)
00015889	83 64 24 04 00	andl	$0x0, 0x4(%esp)
0001588e	83 24 24 00	andl	$0x0, P24C_SW_1ST_VECTOR_NUM(%esp)
00015892	ba 1a 00 a7 85	movl	$0x85a7001a, %edx
00015897	e8 a0 30 00 00	calll	__ZN17IGMicroController27perfLogAppendKdebugConstantEjyjjj ## IGMicroController::perfLogAppendKdebugConstant(unsigned int, unsigned long long, unsigned int, unsigned int, unsigned int)
0001589c	eb a8	jmp	0x15846
__ZN18IGInterruptHandler38handleThrottleNormalHighTimerInterruptEPvP21IGGucTimerEventSource:
0001589e	83 ec 1c	subl	$0x1c, %esp
000158a1	80 3d e8 c8 00 00 00	cmpb	$0x0, _gPerfLogEnable
000158a8	75 1b	jne	0x158c5
000158aa	8b 0d f8 c8 00 00	movl	__ZN17IGMicroController9fInstanceE, %ecx ## IGMicroController::fInstance
000158b0	31 d2	xorl	%edx, %edx
000158b2	42	incl	%edx
000158b3	e8 e0 3b 00 00	calll	__ZN17IGMicroController36handleThrottlePriorityTimerInterruptEh ## IGMicroController::handleThrottlePriorityTimerInterrupt(unsigned char)
000158b8	80 3d e8 c8 00 00 00	cmpb	$0x0, _gPerfLogEnable
000158bf	75 2e	jne	0x158ef
000158c1	83 c4 1c	addl	$0x1c, %esp
000158c4	c3	retl
000158c5	8b 0d f8 c8 00 00	movl	__ZN17IGMicroController9fInstanceE, %ecx ## IGMicroController::fInstance
000158cb	83 64 24 10 00	andl	$0x0, 0x10(%esp)
000158d0	83 64 24 0c 00	andl	$0x0, 0xc(%esp)
000158d5	83 64 24 08 00	andl	$0x0, 0x8(%esp)
000158da	83 64 24 04 00	andl	$0x0, 0x4(%esp)
000158df	83 24 24 00	andl	$0x0, P24C_SW_1ST_VECTOR_NUM(%esp)
000158e3	ba 1d 00 a7 85	movl	$0x85a7001d, %edx
000158e8	e8 4f 30 00 00	calll	__ZN17IGMicroController27perfLogAppendKdebugConstantEjyjjj ## IGMicroController::perfLogAppendKdebugConstant(unsigned int, unsigned long long, unsigned int, unsigned int, unsigned int)
000158ed	eb bb	jmp	0x158aa
000158ef	8b 0d f8 c8 00 00	movl	__ZN17IGMicroController9fInstanceE, %ecx ## IGMicroController::fInstance
000158f5	83 64 24 10 00	andl	$0x0, 0x10(%esp)
000158fa	83 64 24 0c 00	andl	$0x0, 0xc(%esp)
000158ff	83 64 24 08 00	andl	$0x0, 0x8(%esp)
00015904	83 64 24 04 00	andl	$0x0, 0x4(%esp)
00015909	83 24 24 00	andl	$0x0, P24C_SW_1ST_VECTOR_NUM(%esp)
0001590d	ba 1e 00 a7 85	movl	$0x85a7001e, %edx
00015912	e8 25 30 00 00	calll	__ZN17IGMicroController27perfLogAppendKdebugConstantEjyjjj ## IGMicroController::perfLogAppendKdebugConstant(unsigned int, unsigned long long, unsigned int, unsigned int, unsigned int)
00015917	eb a8	jmp	0x158c1
00015919	90	nop
__ZN18IGInterruptHandler34handleThrottleNormalTimerInterruptEPvP21IGGucTimerEventSource:
0001591a	83 ec 1c	subl	$0x1c, %esp
0001591d	80 3d e8 c8 00 00 00	cmpb	$0x0, _gPerfLogEnable
00015924	75 1b	jne	0x15941
00015926	8b 0d f8 c8 00 00	movl	__ZN17IGMicroController9fInstanceE, %ecx ## IGMicroController::fInstance
0001592c	6a 02	pushl	$0x2
0001592e	5a	popl	%edx
0001592f	e8 64 3b 00 00	calll	__ZN17IGMicroController36handleThrottlePriorityTimerInterruptEh ## IGMicroController::handleThrottlePriorityTimerInterrupt(unsigned char)
00015934	80 3d e8 c8 00 00 00	cmpb	$0x0, _gPerfLogEnable
0001593b	75 2e	jne	0x1596b
0001593d	83 c4 1c	addl	$0x1c, %esp
00015940	c3	retl
00015941	8b 0d f8 c8 00 00	movl	__ZN17IGMicroController9fInstanceE, %ecx ## IGMicroController::fInstance
00015947	83 64 24 10 00	andl	$0x0, 0x10(%esp)
0001594c	83 64 24 0c 00	andl	$0x0, 0xc(%esp)
00015951	83 64 24 08 00	andl	$0x0, 0x8(%esp)
00015956	83 64 24 04 00	andl	$0x0, 0x4(%esp)
0001595b	83 24 24 00	andl	$0x0, P24C_SW_1ST_VECTOR_NUM(%esp)
0001595f	ba 21 00 a7 85	movl	$0x85a70021, %edx
00015964	e8 d3 2f 00 00	calll	__ZN17IGMicroController27perfLogAppendKdebugConstantEjyjjj ## IGMicroController::perfLogAppendKdebugConstant(unsigned int, unsigned long long, unsigned int, unsigned int, unsigned int)
00015969	eb bb	jmp	0x15926
0001596b	8b 0d f8 c8 00 00	movl	__ZN17IGMicroController9fInstanceE, %ecx ## IGMicroController::fInstance
00015971	83 64 24 10 00	andl	$0x0, 0x10(%esp)
00015976	83 64 24 0c 00	andl	$0x0, 0xc(%esp)
0001597b	83 64 24 08 00	andl	$0x0, 0x8(%esp)
00015980	83 64 24 04 00	andl	$0x0, 0x4(%esp)
00015985	83 24 24 00	andl	$0x0, P24C_SW_1ST_VECTOR_NUM(%esp)
00015989	ba 22 00 a7 85	movl	$0x85a70022, %edx
0001598e	e8 a9 2f 00 00	calll	__ZN17IGMicroController27perfLogAppendKdebugConstantEjyjjj ## IGMicroController::perfLogAppendKdebugConstant(unsigned int, unsigned long long, unsigned int, unsigned int, unsigned int)
00015993	eb a8	jmp	0x1593d
00015995	90	nop
__ZN18IGInterruptHandler31handleThrottleLowTimerInterruptEPvP21IGGucTimerEventSource:
00015996	83 ec 1c	subl	$0x1c, %esp
00015999	80 3d e8 c8 00 00 00	cmpb	$0x0, _gPerfLogEnable
000159a0	75 1b	jne	0x159bd
000159a2	8b 0d f8 c8 00 00	movl	__ZN17IGMicroController9fInstanceE, %ecx ## IGMicroController::fInstance
000159a8	6a 03	pushl	$0x3
000159aa	5a	popl	%edx
000159ab	e8 e8 3a 00 00	calll	__ZN17IGMicroController36handleThrottlePriorityTimerInterruptEh ## IGMicroController::handleThrottlePriorityTimerInterrupt(unsigned char)
000159b0	80 3d e8 c8 00 00 00	cmpb	$0x0, _gPerfLogEnable
000159b7	75 2e	jne	0x159e7
000159b9	83 c4 1c	addl	$0x1c, %esp
000159bc	c3	retl
000159bd	8b 0d f8 c8 00 00	movl	__ZN17IGMicroController9fInstanceE, %ecx ## IGMicroController::fInstance
000159c3	83 64 24 10 00	andl	$0x0, 0x10(%esp)
000159c8	83 64 24 0c 00	andl	$0x0, 0xc(%esp)
000159cd	83 64 24 08 00	andl	$0x0, 0x8(%esp)
000159d2	83 64 24 04 00	andl	$0x0, 0x4(%esp)
000159d7	83 24 24 00	andl	$0x0, P24C_SW_1ST_VECTOR_NUM(%esp)
000159db	ba 25 00 a7 85	movl	$0x85a70025, %edx
000159e0	e8 57 2f 00 00	calll	__ZN17IGMicroController27perfLogAppendKdebugConstantEjyjjj ## IGMicroController::perfLogAppendKdebugConstant(unsigned int, unsigned long long, unsigned int, unsigned int, unsigned int)
000159e5	eb bb	jmp	0x159a2
000159e7	8b 0d f8 c8 00 00	movl	__ZN17IGMicroController9fInstanceE, %ecx ## IGMicroController::fInstance
000159ed	83 64 24 10 00	andl	$0x0, 0x10(%esp)
000159f2	83 64 24 0c 00	andl	$0x0, 0xc(%esp)
000159f7	83 64 24 08 00	andl	$0x0, 0x8(%esp)
000159fc	83 64 24 04 00	andl	$0x0, 0x4(%esp)
00015a01	83 24 24 00	andl	$0x0, P24C_SW_1ST_VECTOR_NUM(%esp)
00015a05	ba 26 00 a7 85	movl	$0x85a70026, %edx
00015a0a	e8 2d 2f 00 00	calll	__ZN17IGMicroController27perfLogAppendKdebugConstantEjyjjj ## IGMicroController::perfLogAppendKdebugConstant(unsigned int, unsigned long long, unsigned int, unsigned int, unsigned int)
00015a0f	eb a8	jmp	0x159b9
00015a11	90	nop
__ZN18IGInterruptHandler35handleChangeFrequencyTimerInterruptEPvP21IGGucTimerEventSource:
00015a12	57	pushl	%edi
00015a13	56	pushl	%esi
00015a14	83 ec 14	subl	$0x14, %esp
00015a17	8b 35 f8 c8 00 00	movl	__ZN17IGMicroController9fInstanceE, %esi ## IGMicroController::fInstance
00015a1d	80 3d e8 c8 00 00 00	cmpb	$0x0, _gPerfLogEnable
00015a24	75 63	jne	0x15a89
00015a26	f6 86 4c 43 00 00 01	testb	$0x1, 0x434c(%esi)
00015a2d	75 4b	jne	0x15a7a
00015a2f	0f b6 86 6c 0f 00 00	movzbl	0xf6c(%esi), %eax
00015a36	8b bc 86 50 43 00 00	movl	0x4350(%esi,%eax,4), %edi
00015a3d	80 3d e8 c8 00 00 00	cmpb	$0x0, _gPerfLogEnable
00015a44	75 74	jne	0x15aba
00015a46	89 f1	movl	%esi, %ecx
00015a48	89 fa	movl	%edi, %edx
00015a4a	e8 97 39 00 00	calll	__ZN17IGMicroController18setGTFrequencyMMIOEj ## IGMicroController::setGTFrequencyMMIO(unsigned int)
00015a4f	80 3d e8 c8 00 00 00	cmpb	$0x0, _gPerfLogEnable
00015a56	74 2b	je	0x15a83
00015a58	8b 0d f8 c8 00 00	movl	__ZN17IGMicroController9fInstanceE, %ecx ## IGMicroController::fInstance
00015a5e	8b 86 4c 43 00 00	movl	0x434c(%esi), %eax
00015a64	83 e0 01	andl	$0x1, %eax
00015a67	89 44 24 08	movl	%eax, 0x8(%esp)
00015a6b	83 64 24 10 00	andl	$0x0, 0x10(%esp)
00015a70	83 64 24 0c 00	andl	$0x0, 0xc(%esp)
00015a75	e9 91 00 00 00	jmp	0x15b0b
00015a7a	80 3d e8 c8 00 00 00	cmpb	$0x0, _gPerfLogEnable
00015a81	75 6d	jne	0x15af0
00015a83	83 c4 14	addl	$0x14, %esp
00015a86	5e	popl	%esi
00015a87	5f	popl	%edi
00015a88	c3	retl
00015a89	8b 86 4c 43 00 00	movl	0x434c(%esi), %eax
00015a8f	83 e0 01	andl	$0x1, %eax
00015a92	89 44 24 08	movl	%eax, 0x8(%esp)
00015a96	83 64 24 10 00	andl	$0x0, 0x10(%esp)
00015a9b	83 64 24 0c 00	andl	$0x0, 0xc(%esp)
00015aa0	83 64 24 04 00	andl	$0x0, 0x4(%esp)
00015aa5	83 24 24 00	andl	$0x0, P24C_SW_1ST_VECTOR_NUM(%esp)
00015aa9	89 f1	movl	%esi, %ecx
00015aab	ba 15 00 a7 85	movl	$0x85a70015, %edx
00015ab0	e8 87 2e 00 00	calll	__ZN17IGMicroController27perfLogAppendKdebugConstantEjyjjj ## IGMicroController::perfLogAppendKdebugConstant(unsigned int, unsigned long long, unsigned int, unsigned int, unsigned int)
00015ab5	e9 6c ff ff ff	jmp	0x15a26
00015aba	89 fa	movl	%edi, %edx
00015abc	c1 ea 0a	shrl	$0xa, %edx
00015abf	81 e2 f0 1f 00 00	andl	$0x1ff0, %edx
00015ac5	8b 0d f8 c8 00 00	movl	__ZN17IGMicroController9fInstanceE, %ecx ## IGMicroController::fInstance
00015acb	89 44 24 10	movl	%eax, 0x10(%esp)
00015acf	89 54 24 08	movl	%edx, 0x8(%esp)
00015ad3	83 64 24 0c 00	andl	$0x0, 0xc(%esp)
00015ad8	83 64 24 04 00	andl	$0x0, 0x4(%esp)
00015add	83 24 24 00	andl	$0x0, P24C_SW_1ST_VECTOR_NUM(%esp)
00015ae1	ba cc 01 a7 85	movl	$0x85a701cc, %edx
00015ae6	e8 51 2e 00 00	calll	__ZN17IGMicroController27perfLogAppendKdebugConstantEjyjjj ## IGMicroController::perfLogAppendKdebugConstant(unsigned int, unsigned long long, unsigned int, unsigned int, unsigned int)
00015aeb	e9 56 ff ff ff	jmp	0x15a46
00015af0	8b 0d f8 c8 00 00	movl	__ZN17IGMicroController9fInstanceE, %ecx ## IGMicroController::fInstance
00015af6	c7 44 24 10 fe 00 00 00	movl	$IOMMU_VECTOR_2, 0x10(%esp)
00015afe	83 64 24 0c 00	andl	$0x0, 0xc(%esp)
00015b03	c7 44 24 08 01 00 00 00	movl	$0x1, 0x8(%esp)
00015b0b	83 64 24 04 00	andl	$0x0, 0x4(%esp)
00015b10	83 24 24 00	andl	$0x0, P24C_SW_1ST_VECTOR_NUM(%esp)
00015b14	ba 16 00 a7 85	movl	$0x85a70016, %edx
00015b19	e8 1e 2e 00 00	calll	__ZN17IGMicroController27perfLogAppendKdebugConstantEjyjjj ## IGMicroController::perfLogAppendKdebugConstant(unsigned int, unsigned long long, unsigned int, unsigned int, unsigned int)
00015b1e	e9 60 ff ff ff	jmp	0x15a83
00015b23	90	nop
__ZN18IGInterruptHandler30handlePreemptionTimerInterruptEPvP21IGGucTimerEventSource:
00015b24	56	pushl	%esi
00015b25	83 ec 18	subl	$0x18, %esp
00015b28	80 3d e8 c8 00 00 00	cmpb	$0x0, _gPerfLogEnable
00015b2f	75 3f	jne	0x15b70
00015b31	8b 35 f8 c8 00 00	movl	__ZN17IGMicroController9fInstanceE, %esi ## IGMicroController::fInstance
00015b37	83 46 18 01	addl	$0x1, 0x18(%esi)
00015b3b	83 56 1c 00	adcl	$0x0, 0x1c(%esi)
00015b3f	c6 86 0a 44 00 00 01	movb	$0x1, 0x440a(%esi)
00015b46	8d 86 58 04 00 00	leal	0x458(%esi), %eax
00015b4c	8b 8e 58 04 00 00	movl	0x458(%esi), %ecx
00015b52	89 04 24	movl	%eax, P24C_SW_1ST_VECTOR_NUM(%esp)
00015b55	ff 51 3c	calll	*0x3c(%ecx)
00015b58	31 d2	xorl	%edx, %edx
00015b5a	42	incl	%edx
00015b5b	89 f1	movl	%esi, %ecx
00015b5d	e8 4a 35 00 00	calll	__ZN17IGMicroController11schedNotifyEj ## IGMicroController::schedNotify(unsigned int)
00015b62	80 3d e8 c8 00 00 00	cmpb	$0x0, _gPerfLogEnable
00015b69	75 2f	jne	0x15b9a
00015b6b	83 c4 18	addl	$0x18, %esp
00015b6e	5e	popl	%esi
00015b6f	c3	retl
00015b70	8b 0d f8 c8 00 00	movl	__ZN17IGMicroController9fInstanceE, %ecx ## IGMicroController::fInstance
00015b76	83 64 24 10 00	andl	$0x0, 0x10(%esp)
00015b7b	83 64 24 0c 00	andl	$0x0, 0xc(%esp)
00015b80	83 64 24 08 00	andl	$0x0, 0x8(%esp)
00015b85	83 64 24 04 00	andl	$0x0, 0x4(%esp)
00015b8a	83 24 24 00	andl	$0x0, P24C_SW_1ST_VECTOR_NUM(%esp)
00015b8e	ba 5d 00 a7 85	movl	$0x85a7005d, %edx
00015b93	e8 a4 2d 00 00	calll	__ZN17IGMicroController27perfLogAppendKdebugConstantEjyjjj ## IGMicroController::perfLogAppendKdebugConstant(unsigned int, unsigned long long, unsigned int, unsigned int, unsigned int)
00015b98	eb 97	jmp	0x15b31
00015b9a	8b 0d f8 c8 00 00	movl	__ZN17IGMicroController9fInstanceE, %ecx ## IGMicroController::fInstance
00015ba0	83 64 24 10 00	andl	$0x0, 0x10(%esp)
00015ba5	83 64 24 0c 00	andl	$0x0, 0xc(%esp)
00015baa	83 64 24 08 00	andl	$0x0, 0x8(%esp)
00015baf	83 64 24 04 00	andl	$0x0, 0x4(%esp)
00015bb4	83 24 24 00	andl	$0x0, P24C_SW_1ST_VECTOR_NUM(%esp)
00015bb8	ba 5e 00 a7 85	movl	$0x85a7005e, %edx
00015bbd	e8 7a 2d 00 00	calll	__ZN17IGMicroController27perfLogAppendKdebugConstantEjyjjj ## IGMicroController::perfLogAppendKdebugConstant(unsigned int, unsigned long long, unsigned int, unsigned int, unsigned int)
00015bc2	eb a7	jmp	0x15b6b
_UkISRHandler:
00015bc4	83 ec 0c	subl	$0xc, %esp
00015bc7	81 0d 00 c0 e0 ff 00 00 04 00	orl	$0x40000, -0x1f4000
00015bd1	8d 44 24 10	leal	0x10(%esp), %eax
00015bd5	8b 48 20	movl	0x20(%eax), %ecx
00015bd8	89 04 24	movl	%eax, P24C_SW_1ST_VECTOR_NUM(%esp)
00015bdb	ff 14 8d 30 99 01 00	calll	*_exception_handlers(,%ecx,4)
00015be2	81 25 00 c0 e0 ff ff ff fb ff	andl	$0xfffbffff, -0x1f4000
00015bec	83 c4 0c	addl	$0xc, %esp
00015bef	c3	retl
_UkDefaultISRHandler:
00015bf0	c7 05 b0 00 e0 fe 00 00 00 00	movl	$P24C_SW_1ST_VECTOR_NUM, -0x11fff50
00015bfa	c3	retl
_UkSpuriousVectorHandler:
00015bfb	c3	retl
_UkDoorbellHandler:
00015bfc	55	pushl	%ebp
00015bfd	53	pushl	%ebx
00015bfe	57	pushl	%edi
00015bff	56	pushl	%esi
00015c00	83 ec 2c	subl	$0x2c, %esp
00015c03	8b 44 24 40	movl	0x40(%esp), %eax
00015c07	89 c7	movl	%eax, %edi
00015c09	83 e7 0f	andl	$0xf, %edi
00015c0c	8b 0c bd f4 9b 01 00	movl	0x19bf4(,%edi,4), %ecx
00015c13	83 c7 f8	addl	$-0x8, %edi
00015c16	89 4c 24 20	movl	%ecx, 0x20(%esp)
00015c1a	8b b1 00 00 e0 ff	movl	-0x200000(%ecx), %esi
00015c20	80 3d e8 c8 00 00 00	cmpb	$0x0, _gPerfLogEnable
00015c27	0f 85 8c 00 00 00	jne	0x15cb9
00015c2d	8b 0d f8 c8 00 00	movl	__ZN17IGMicroController9fInstanceE, %ecx ## IGMicroController::fInstance
00015c33	c1 e7 07	shll	$0x7, %edi
00015c36	81 c7 00 1a 00 00	addl	$0x1a00, %edi
00015c3c	89 f0	movl	%esi, %eax
00015c3e	89 74 24 28	movl	%esi, 0x28(%esp)
00015c42	89 7c 24 24	movl	%edi, 0x24(%esp)
00015c46	85 c0	testl	%eax, %eax
00015c48	74 4c	je	0x15c96
00015c4a	0f bc d0	bsfl	%eax, %edx
00015c4d	8d 34 95 00 00 00 00	leal	P24C_SW_1ST_VECTOR_NUM(,%edx,4), %esi
00015c54	09 fe	orl	%edi, %esi
00015c56	8b ae 00 00 e0 ff	movl	-0x200000(%esi), %ebp
00015c5c	8b bc 91 40 04 00 00	movl	0x440(%ecx,%edx,4), %edi
00015c63	8b b7 58 0a 00 00	movl	0xa58(%edi), %esi
00015c69	39 f5	cmpl	%esi, %ebp
00015c6b	72 04	jb	0x15c71
00015c6d	f7 de	negl	%esi
00015c6f	eb 02	jmp	0x15c73
00015c71	f7 d6	notl	%esi
00015c73	8b 99 b8 00 00 00	movl	0xb8(%ecx), %ebx
00015c79	01 eb	addl	%ebp, %ebx
00015c7b	01 f3	addl	%esi, %ebx
00015c7d	89 99 b8 00 00 00	movl	%ebx, 0xb8(%ecx)
00015c83	89 af 58 0a 00 00	movl	%ebp, 0xa58(%edi)
00015c89	0f b3 d0	btrl	%edx, %eax
00015c8c	8b 74 24 28	movl	0x28(%esp), %esi
00015c90	8b 7c 24 24	movl	0x24(%esp), %edi
00015c94	eb b0	jmp	0x15c46
00015c96	89 f2	movl	%esi, %edx
00015c98	e8 0f 34 00 00	calll	__ZN17IGMicroController11schedNotifyEj ## IGMicroController::schedNotify(unsigned int)
00015c9d	8b 44 24 20	movl	0x20(%esp), %eax
00015ca1	89 b0 00 00 e0 ff	movl	%esi, -0x200000(%eax)
00015ca7	c7 05 b0 00 e0 fe 00 00 00 00	movl	$P24C_SW_1ST_VECTOR_NUM, -0x11fff50
00015cb1	83 c4 2c	addl	$0x2c, %esp
00015cb4	5e	popl	%esi
00015cb5	5f	popl	%edi
00015cb6	5b	popl	%ebx
00015cb7	5d	popl	%ebp
00015cb8	c3	retl
00015cb9	8b 0d f8 c8 00 00	movl	__ZN17IGMicroController9fInstanceE, %ecx ## IGMicroController::fInstance
00015cbf	89 74 24 10	movl	%esi, 0x10(%esp)
00015cc3	89 7c 24 0c	movl	%edi, 0xc(%esp)
00015cc7	89 44 24 08	movl	%eax, 0x8(%esp)
00015ccb	83 64 24 04 00	andl	$0x0, 0x4(%esp)
00015cd0	83 24 24 00	andl	$0x0, P24C_SW_1ST_VECTOR_NUM(%esp)
00015cd4	ba 34 00 a7 85	movl	$0x85a70034, %edx
00015cd9	e8 5e 2c 00 00	calll	__ZN17IGMicroController27perfLogAppendKdebugConstantEjyjjj ## IGMicroController::perfLogAppendKdebugConstant(unsigned int, unsigned long long, unsigned int, unsigned int, unsigned int)
00015cde	e9 4a ff ff ff	jmp	0x15c2d
_UkSemaphoreHandler:
00015ce3	c7 05 b0 00 e0 fe 00 00 00 00	movl	$P24C_SW_1ST_VECTOR_NUM, -0x11fff50
00015ced	c3	retl
_UkIOMMUHandler:
00015cee	57	pushl	%edi
00015cef	56	pushl	%esi
00015cf0	a1 f8 c8 00 00	movl	__ZN17IGMicroController9fInstanceE, %eax ## IGMicroController::fInstance
00015cf5	f6 40 3c 20	testb	$0x20, 0x3c(%eax)
00015cf9	75 1c	jne	0x15d17
00015cfb	8b 44 24 0c	movl	0xc(%esp), %eax
00015cff	3c fd	cmpb	$-0x3, %al
00015d01	74 17	je	0x15d1a
00015d03	3c fe	cmpb	$-0x2, %al
00015d05	74 1f	je	0x15d26
00015d07	3c ff	cmpb	$-0x1, %al
00015d09	75 35	jne	0x15d40
00015d0b	b8 7c c5 e0 ff	movl	$0xffe0c57c, %eax
00015d10	ba 78 c5 e0 ff	movl	$0xffe0c578, %edx
00015d15	eb 19	jmp	0x15d30
00015d17	cc	int3
00015d18	eb 47	jmp	0x15d61
00015d1a	b8 74 c5 e0 ff	movl	$0xffe0c574, %eax
00015d1f	ba 70 c5 e0 ff	movl	$0xffe0c570, %edx
00015d24	eb 0a	jmp	0x15d30
00015d26	b8 84 c5 e0 ff	movl	$0xffe0c584, %eax
00015d2b	ba 80 c5 e0 ff	movl	$0xffe0c580, %edx
00015d30	8b 08	movl	P24C_SW_1ST_VECTOR_NUM(%eax), %ecx
00015d32	89 ce	movl	%ecx, %esi
00015d34	83 e6 0f	andl	$0xf, %esi
00015d37	85 f6	testl	%esi, %esi
00015d39	74 10	je	0x15d4b
00015d3b	8b 3a	movl	P24C_SW_1ST_VECTOR_NUM(%edx), %edi
00015d3d	4e	decl	%esi
00015d3e	eb f7	jmp	0x15d37
00015d40	b8 00 00 e0 ff	movl	$MMIO_BASE_ADDR, %eax
00015d45	8b 0d 00 00 e0 ff	movl	-0x200000, %ecx
00015d4b	31 d2	xorl	%edx, %edx
00015d4d	89 15 c4 ce e0 ff	movl	%edx, -0x1f313c
00015d53	81 c9 00 00 00 01	orl	$0x1000000, %ecx
00015d59	89 08	movl	%ecx, P24C_SW_1ST_VECTOR_NUM(%eax)
00015d5b	89 15 b0 00 e0 fe	movl	%edx, -0x11fff50
00015d61	5e	popl	%esi
00015d62	5f	popl	%edi
00015d63	c3	retl
_UkEngineHandler:
00015d64	53	pushl	%ebx
00015d65	83 ec 18	subl	$0x18, %esp
00015d68	8b 5c 24 20	movl	0x20(%esp), %ebx
00015d6c	80 3d e8 c8 00 00 00	cmpb	$0x0, _gPerfLogEnable
00015d73	75 59	jne	0x15dce
00015d75	a1 f8 c8 00 00	movl	__ZN17IGMicroController9fInstanceE, %eax ## IGMicroController::fInstance
00015d7a	80 fb ce	cmpb	$-0x32, %bl
00015d7d	74 21	je	0x15da0
00015d7f	80 fb cf	cmpb	$-0x31, %bl
00015d82	75 3b	jne	0x15dbf
00015d84	05 d4 00 00 00	addl	$DMA_TIMER_VECTOR_5, %eax
00015d89	89 44 24 04	movl	%eax, 0x4(%esp)
00015d8d	c7 04 24 60 c6 00 00	movl	$0xc660, P24C_SW_1ST_VECTOR_NUM(%esp)
00015d94	b9 20 c6 00 00	movl	$0xc620, %ecx
00015d99	ba 70 c6 00 00	movl	$0xc670, %edx
00015d9e	eb 1a	jmp	0x15dba
00015da0	05 d4 01 00 00	addl	$0x1d4, %eax
00015da5	89 44 24 04	movl	%eax, 0x4(%esp)
00015da9	c7 04 24 64 c6 00 00	movl	$0xc664, P24C_SW_1ST_VECTOR_NUM(%esp)
00015db0	b9 24 c6 00 00	movl	$0xc624, %ecx
00015db5	ba 74 c6 00 00	movl	$0xc674, %edx
00015dba	e8 29 f6 ff ff	calll	__ZZN18IGInterruptHandler4execEjENK3$_0clEjjjRA32_NS_16DispatchMapEntryE ## IGInterruptHandler::exec(unsigned int)::$_0::operator()(unsigned int, unsigned int, unsigned int, IGInterruptHandler::DispatchMapEntry (&) [32]) const
00015dbf	c7 05 b0 00 e0 fe 00 00 00 00	movl	$P24C_SW_1ST_VECTOR_NUM, -0x11fff50
00015dc9	83 c4 18	addl	$0x18, %esp
00015dcc	5b	popl	%ebx
00015dcd	c3	retl
00015dce	8b 0d f8 c8 00 00	movl	__ZN17IGMicroController9fInstanceE, %ecx ## IGMicroController::fInstance
00015dd4	89 5c 24 08	movl	%ebx, 0x8(%esp)
00015dd8	83 64 24 10 00	andl	$0x0, 0x10(%esp)
00015ddd	83 64 24 0c 00	andl	$0x0, 0xc(%esp)
00015de2	83 64 24 04 00	andl	$0x0, 0x4(%esp)
00015de7	83 24 24 00	andl	$0x0, P24C_SW_1ST_VECTOR_NUM(%esp)
00015deb	ba 38 00 a7 85	movl	$0x85a70038, %edx
00015df0	e8 47 2b 00 00	calll	__ZN17IGMicroController27perfLogAppendKdebugConstantEjyjjj ## IGMicroController::perfLogAppendKdebugConstant(unsigned int, unsigned long long, unsigned int, unsigned int, unsigned int)
00015df5	e9 7b ff ff ff	jmp	0x15d75
_UkDisplayEventsHandler:
00015dfa	c3	retl
_UkDMATimerHandler:
00015dfb	c7 05 b0 00 e0 fe 00 00 00 00	movl	$P24C_SW_1ST_VECTOR_NUM, -0x11fff50
00015e05	c3	retl
_UkHostInterruptHandler:
00015e06	55	pushl	%ebp
00015e07	53	pushl	%ebx
00015e08	57	pushl	%edi
00015e09	56	pushl	%esi
00015e0a	83 ec 7c	subl	$0x7c, %esp
00015e0d	80 bc 24 90 00 00 00 ef	cmpb	$-0x11, 0x90(%esp)
00015e15	0f 85 63 10 00 00	jne	0x16e7e
00015e1b	8b 35 f8 c8 00 00	movl	__ZN17IGMicroController9fInstanceE, %esi ## IGMicroController::fInstance
00015e21	a1 80 c1 e0 ff	movl	0xffe0c180, %eax
00015e26	89 44 24 34	movl	%eax, 0x34(%esp)
00015e2a	89 c3	movl	%eax, %ebx
00015e2c	80 3d e8 c8 00 00 00	cmpb	$0x0, _gPerfLogEnable
00015e33	0f 85 ad 0f 00 00	jne	0x16de6
00015e39	89 74 24 1c	movl	%esi, 0x1c(%esp)
00015e3d	80 c3 fe	addb	$-0x2, %bl
00015e40	80 fb 11	cmpb	$0x11, %bl
00015e43	0f 87 10 10 00 00	ja	0x16e59
00015e49	8b 54 24 34	movl	0x34(%esp), %edx
00015e4d	c1 ea 10	shrl	$0x10, %edx
00015e50	0f b6 c3	movzbl	%bl, %eax
00015e53	ff 24 85 d0 98 01 00	jmpl	*0x198d0(,%eax,4)
00015e5a	8b 74 24 1c	movl	0x1c(%esp), %esi
00015e5e	8b 46 20	movl	0x20(%esi), %eax
00015e61	8d 4e 24	leal	0x24(%esi), %ecx
00015e64	89 4c 24 04	movl	%ecx, 0x4(%esp)
00015e68	89 04 24	movl	%eax, P24C_SW_1ST_VECTOR_NUM(%esp)
00015e6b	c7 44 24 08 80 00 00 00	movl	$0x80, 0x8(%esp)
00015e73	e8 1f bb ff ff	calll	_memcpy
00015e78	a1 70 a1 e0 ff	movl	0xffe0a170, %eax
00015e7d	89 86 34 04 00 00	movl	%eax, 0x434(%esi)
00015e83	a1 74 a1 e0 ff	movl	0xffe0a174, %eax
00015e88	89 86 30 04 00 00	movl	%eax, 0x430(%esi)
00015e8e	83 e0 fe	andl	$-0x2, %eax
00015e91	e9 71 04 00 00	jmp	0x16307
00015e96	31 f6	xorl	%esi, %esi
00015e98	8b 7c 24 1c	movl	0x1c(%esp), %edi
00015e9c	83 fe 40	cmpl	$0x40, %esi
00015e9f	0f 84 51 04 00 00	je	0x162f6
00015ea5	8b 4f 40	movl	0x40(%edi), %ecx
00015ea8	0f b7 d6	movzwl	%si, %edx
00015eab	e8 06 2f 00 00	calll	__ZNK17IGMicroController23getWorkQueueDescAtIndexEt ## IGMicroController::getWorkQueueDescAtIndex(unsigned short) const
00015eb0	66 83 78 0c 00	cmpw	$0x0, 0xc(%eax)
00015eb5	74 2d	je	0x15ee4
00015eb7	f6 47 3c 01	testb	$0x1, 0x3c(%edi)
00015ebb	74 08	je	0x15ec5
00015ebd	8d 86 62 9e 01 00	leal	__ZL30IG_STAMP_INDEX_TO_HWCS_LUT_SCI.61(%esi), %eax ## IG_STAMP_INDEX_TO_HWCS_LUT_SCI (.61)
00015ec3	eb 06	jmp	0x15ecb
00015ec5	8d 86 68 9e 01 00	leal	__ZL26IG_STAMP_INDEX_TO_HWCS_LUT.62(%esi), %eax ## IG_STAMP_INDEX_TO_HWCS_LUT (.62)
00015ecb	0f b6 00	movzbl	P24C_SW_1ST_VECTOR_NUM(%eax), %eax
00015ece	8b 84 87 40 04 00 00	movl	0x440(%edi,%eax,4), %eax
00015ed5	8b 08	movl	P24C_SW_1ST_VECTOR_NUM(%eax), %ecx
00015ed7	0f b7 d6	movzwl	%si, %edx
00015eda	89 54 24 04	movl	%edx, 0x4(%esp)
00015ede	89 04 24	movl	%eax, P24C_SW_1ST_VECTOR_NUM(%esp)
00015ee1	ff 51 04	calll	*0x4(%ecx)
00015ee4	46	incl	%esi
00015ee5	eb b5	jmp	0x15e9c
00015ee7	be 00 f0 ff ff	movl	$0xfffff000, %esi
00015eec	8b 4c 24 1c	movl	0x1c(%esp), %ecx
00015ef0	23 71 30	andl	0x30(%ecx), %esi
00015ef3	83 64 24 04 00	andl	$0x0, 0x4(%esp)
00015ef8	c7 04 24 01 00 00 00	movl	$0x1, P24C_SW_1ST_VECTOR_NUM(%esp)
00015eff	8d 7c 24 38	leal	0x38(%esp), %edi
00015f03	89 fa	movl	%edi, %edx
00015f05	e8 b4 2f 00 00	calll	__ZN17IGMicroController14compilePmStatsEP16IGUkPmStatisticsbb ## IGMicroController::compilePmStats(IGUkPmStatistics*, bool, bool)
00015f0a	84 c0	testb	%al, %al
00015f0c	0f 84 32 06 00 00	je	0x16544
00015f12	8d 86 80 00 00 00	leal	0x80(%esi), %eax
00015f18	89 7c 24 04	movl	%edi, 0x4(%esp)
00015f1c	89 04 24	movl	%eax, P24C_SW_1ST_VECTOR_NUM(%esp)
00015f1f	c7 44 24 08 40 00 00 00	movl	$0x40, 0x8(%esp)
00015f27	e8 6b ba ff ff	calll	_memcpy
00015f2c	e9 20 06 00 00	jmp	0x16551
00015f31	8b 44 24 1c	movl	0x1c(%esp), %eax
00015f35	8b 48 40	movl	0x40(%eax), %ecx
00015f38	89 d6	movl	%edx, %esi
00015f3a	0f b7 fa	movzwl	%dx, %edi
00015f3d	89 fa	movl	%edi, %edx
00015f3f	e8 72 2e 00 00	calll	__ZNK17IGMicroController23getWorkQueueDescAtIndexEt ## IGMicroController::getWorkQueueDescAtIndex(unsigned short) const
00015f44	89 c5	movl	%eax, %ebp
00015f46	8d 48 04	leal	0x4(%eax), %ecx
00015f49	0f b7 40 0c	movzwl	0xc(%eax), %eax
00015f4d	89 c2	movl	%eax, %edx
00015f4f	42	incl	%edx
00015f50	66 89 55 0c	movw	%dx, 0xc(%ebp)
00015f54	89 ca	movl	%ecx, %edx
00015f56	83 e2 f0	andl	$-0x10, %edx
00015f59	83 e1 0f	andl	$0xf, %ecx
00015f5c	83 c1 4f	addl	$0x4f, %ecx
00015f5f	83 e1 d0	andl	$-0x30, %ecx
00015f62	01 d1	addl	%edx, %ecx
00015f64	39 ca	cmpl	%ecx, %edx
00015f66	0f 83 a5 03 00 00	jae	0x16311
00015f6c	0f ae 3a	clflush	P24C_SW_1ST_VECTOR_NUM(%edx)
00015f6f	83 c2 10	addl	$0x10, %edx
00015f72	eb f0	jmp	0x15f64
00015f74	8b 44 24 1c	movl	0x1c(%esp), %eax
00015f78	8b 48 40	movl	0x40(%eax), %ecx
00015f7b	89 d6	movl	%edx, %esi
00015f7d	0f b7 fa	movzwl	%dx, %edi
00015f80	89 fa	movl	%edi, %edx
00015f82	e8 2f 2e 00 00	calll	__ZNK17IGMicroController23getWorkQueueDescAtIndexEt ## IGMicroController::getWorkQueueDescAtIndex(unsigned short) const
00015f87	0f b7 48 0c	movzwl	0xc(%eax), %ecx
00015f8b	89 ca	movl	%ecx, %edx
00015f8d	4a	decl	%edx
00015f8e	66 89 50 0c	movw	%dx, 0xc(%eax)
00015f92	83 c0 04	addl	$0x4, %eax
00015f95	89 c2	movl	%eax, %edx
00015f97	83 e2 f0	andl	$-0x10, %edx
00015f9a	83 e0 0f	andl	$0xf, %eax
00015f9d	83 c0 4f	addl	$0x4f, %eax
00015fa0	83 e0 d0	andl	$-0x30, %eax
00015fa3	01 d0	addl	%edx, %eax
00015fa5	39 c2	cmpl	%eax, %edx
00015fa7	0f 83 92 03 00 00	jae	0x1633f
00015fad	0f ae 3a	clflush	P24C_SW_1ST_VECTOR_NUM(%edx)
00015fb0	83 c2 10	addl	$0x10, %edx
00015fb3	eb f0	jmp	0x15fa5
00015fb5	a1 80 00 e0 fe	movl	0xfee00080, %eax
00015fba	89 44 24 20	movl	%eax, 0x20(%esp)
00015fbe	c7 05 80 00 e0 fe f0 00 00 00	movl	$0xf0, -0x11fff80
00015fc8	bf 00 f0 ff ff	movl	$0xfffff000, %edi
00015fcd	8b 6c 24 1c	movl	0x1c(%esp), %ebp
00015fd1	23 7d 30	andl	0x30(%ebp), %edi
00015fd4	8d 87 80 00 00 00	leal	0x80(%edi), %eax
00015fda	89 f9	movl	%edi, %ecx
00015fdc	39 c1	cmpl	%eax, %ecx
00015fde	0f 83 8a 03 00 00	jae	0x1636e
00015fe4	0f ae 39	clflush	P24C_SW_1ST_VECTOR_NUM(%ecx)
00015fe7	83 c1 10	addl	$0x10, %ecx
00015fea	eb f0	jmp	0x15fdc
00015fec	8b 44 24 1c	movl	0x1c(%esp), %eax
00015ff0	8b 90 b4 00 00 00	movl	SEMAPHORE_VECTOR_6(%eax), %edx
00015ff6	f6 c2 3f	testb	$0x3f, %dl
00015ff9	0f 84 5a 0e 00 00	je	0x16e59
00015fff	8b 74 24 1c	movl	0x1c(%esp), %esi
00016003	89 f1	movl	%esi, %ecx
00016005	e8 a2 30 00 00	calll	__ZN17IGMicroController11schedNotifyEj ## IGMicroController::schedNotify(unsigned int)
0001600a	80 8e b4 00 00 00 80	orb	$-0x80, SEMAPHORE_VECTOR_6(%esi)
00016011	6a 08	pushl	$0x8
00016013	58	popl	%eax
00016014	e9 5c 0e 00 00	jmp	0x16e75
00016019	bd 00 f0 ff ff	movl	$0xfffff000, %ebp
0001601e	8b 44 24 1c	movl	0x1c(%esp), %eax
00016022	23 68 34	andl	0x34(%eax), %ebp
00016025	c7 85 24 08 00 00 07 00 00 00	movl	$0x7, 0x824(%ebp)
0001602f	8b b0 b4 00 00 00	movl	SEMAPHORE_VECTOR_6(%eax), %esi
00016035	83 e6 3f	andl	$0x3f, %esi
00016038	89 75 00	movl	%esi, (%ebp)
0001603b	85 f6	testl	%esi, %esi
0001603d	0f 84 bb 03 00 00	je	0x163fe
00016043	0f bc fe	bsfl	%esi, %edi
00016046	6b c7 18	imull	$0x18, %edi, %eax
00016049	8d 54 05 14	leal	0x14(%ebp,%eax), %edx
0001604d	8d 5c 05 1c	leal	0x1c(%ebp,%eax), %ebx
00016051	8d 44 05 24	leal	0x24(%ebp,%eax), %eax
00016055	8b 4c 24 1c	movl	0x1c(%esp), %ecx
00016059	8b 8c b9 40 04 00 00	movl	0x440(%ecx,%edi,4), %ecx
00016060	89 44 24 04	movl	%eax, 0x4(%esp)
00016064	89 1c 24	movl	%ebx, P24C_SW_1ST_VECTOR_NUM(%esp)
00016067	e8 96 ca ff ff	calll	__ZNK21IGCommandStreamerBase28getCurrentExecListDumpStatusEPjPiS0_ ## IGCommandStreamerBase::getCurrentExecListDumpStatus(unsigned int*, int*, unsigned int*) const
0001606c	6b c7 5d	imull	$0x5d, %edi, %eax
0001606f	33 b0 35 9c 01 00	xorl	0x19c35(%eax), %esi
00016075	eb c4	jmp	0x1603b
00016077	a0 e8 c8 00 00	movb	_gPerfLogEnable, %al
0001607c	66 85 d2	testw	%dx, %dx
0001607f	0f 95 c3	setne	%bl
00016082	0f 84 ec 04 00 00	je	0x16574
00016088	84 c0	testb	%al, %al
0001608a	0f 85 e4 04 00 00	jne	0x16574
00016090	8b 7c 24 1c	movl	0x1c(%esp), %edi
00016094	8b 4f 40	movl	0x40(%edi), %ecx
00016097	6a 41	pushl	$0x41
00016099	5a	popl	%edx
0001609a	e8 17 2d 00 00	calll	__ZNK17IGMicroController23getWorkQueueDescAtIndexEt ## IGMicroController::getWorkQueueDescAtIndex(unsigned short) const
0001609f	8b 0d 80 00 e0 fe	movl	-0x11fff80, %ecx
000160a5	c7 05 80 00 e0 fe f0 00 00 00	movl	$0xf0, -0x11fff80
000160af	8b 30	movl	P24C_SW_1ST_VECTOR_NUM(%eax), %esi
000160b1	6a 40	pushl	$0x40
000160b3	5a	popl	%edx
000160b4	01 c2	addl	%eax, %edx
000160b6	89 70 40	movl	%esi, 0x40(%eax)
000160b9	8b 70 40	movl	0x40(%eax), %esi
000160bc	89 70 14	movl	%esi, 0x14(%eax)
000160bf	89 d0	movl	%edx, %eax
000160c1	83 e0 f0	andl	$-0x10, %eax
000160c4	83 e2 0f	andl	$0xf, %edx
000160c7	83 c2 13	addl	$0x13, %edx
000160ca	83 e2 f0	andl	$-0x10, %edx
000160cd	01 c2	addl	%eax, %edx
000160cf	39 d0	cmpl	%edx, %eax
000160d1	0f 83 de 04 00 00	jae	0x165b5
000160d7	0f ae 38	clflush	P24C_SW_1ST_VECTOR_NUM(%eax)
000160da	83 c0 10	addl	$0x10, %eax
000160dd	eb f0	jmp	0x160cf
000160df	0f b6 c2	movzbl	%dl, %eax
000160e2	8b 4c 24 1c	movl	0x1c(%esp), %ecx
000160e6	8b b4 81 40 04 00 00	movl	0x440(%ecx,%eax,4), %esi
000160ed	0f b6 7e 24	movzbl	0x24(%esi), %edi
000160f1	89 f1	movl	%esi, %ecx
000160f3	e8 de e9 ff ff	calll	__ZN21IGCommandStreamerBase26processContextStatusBufferEv ## IGCommandStreamerBase::processContextStatusBuffer()
000160f8	6b c7 5d	imull	$0x5d, %edi, %eax
000160fb	8b 80 4d 9c 01 00	movl	0x19c4d(%eax), %eax
00016101	8b 88 00 00 e0 ff	movl	-0x200000(%eax), %ecx
00016107	8b b8 04 00 e0 ff	movl	-0x1ffffc(%eax), %edi
0001610d	f7 c1 00 00 06 00	testl	$0x60000, %ecx
00016113	0f 84 0e 0d 00 00	je	0x16e27
00016119	8b 46 20	movl	0x20(%esi), %eax
0001611c	8b 44 c6 0c	movl	0xc(%esi,%eax,8), %eax
00016120	85 c0	testl	%eax, %eax
00016122	0f 84 eb 0c 00 00	je	0x16e13
00016128	8b 08	movl	P24C_SW_1ST_VECTOR_NUM(%eax), %ecx
0001612a	8b 11	movl	P24C_SW_1ST_VECTOR_NUM(%ecx), %edx
0001612c	31 fa	xorl	%edi, %edx
0001612e	0b 51 04	orl	0x4(%ecx), %edx
00016131	0f 85 dc 0c 00 00	jne	0x16e13
00016137	80 3d e8 c8 00 00 00	cmpb	$0x0, _gPerfLogEnable
0001613e	0f 84 e8 0c 00 00	je	0x16e2c
00016144	8b 0d f8 c8 00 00	movl	__ZN17IGMicroController9fInstanceE, %ecx ## IGMicroController::fInstance
0001614a	0f b6 56 24	movzbl	0x24(%esi), %edx
0001614e	8b 00	movl	P24C_SW_1ST_VECTOR_NUM(%eax), %eax
00016150	8b 00	movl	P24C_SW_1ST_VECTOR_NUM(%eax), %eax
00016152	89 44 24 10	movl	%eax, 0x10(%esp)
00016156	89 7c 24 0c	movl	%edi, 0xc(%esp)
0001615a	89 54 24 08	movl	%edx, 0x8(%esp)
0001615e	83 64 24 04 00	andl	$0x0, 0x4(%esp)
00016163	83 24 24 00	andl	$0x0, P24C_SW_1ST_VECTOR_NUM(%esp)
00016167	ba 50 00 a7 85	movl	$0x85a70050, %edx
0001616c	e8 cb 27 00 00	calll	__ZN17IGMicroController27perfLogAppendKdebugConstantEjyjjj ## IGMicroController::perfLogAppendKdebugConstant(unsigned int, unsigned long long, unsigned int, unsigned int, unsigned int)
00016171	e9 b6 0c 00 00	jmp	0x16e2c
00016176	0f b6 c2	movzbl	%dl, %eax
00016179	8b 4c 24 1c	movl	0x1c(%esp), %ecx
0001617d	8b b4 81 40 04 00 00	movl	0x440(%ecx,%eax,4), %esi
00016184	0f b6 46 24	movzbl	0x24(%esi), %eax
00016188	8b 4e 20	movl	0x20(%esi), %ecx
0001618b	8b 4c ce 0c	movl	0xc(%esi,%ecx,8), %ecx
0001618f	83 61 0c 00	andl	$0x0, 0xc(%ecx)
00016193	6b c0 5d	imull	$0x5d, %eax, %eax
00016196	8b 80 65 9c 01 00	movl	0x19c65(%eax), %eax
0001619c	81 88 00 00 e0 ff 00 c0 00 c0	orl	$0xc000c000, -0x200000(%eax)
000161a6	83 64 24 3c 00	andl	$0x0, 0x3c(%esp)
000161ab	83 64 24 38 00	andl	$0x0, 0x38(%esp)
000161b0	8b 4e 20	movl	0x20(%esi), %ecx
000161b3	8b 44 ce 0c	movl	0xc(%esi,%ecx,8), %eax
000161b7	85 c0	testl	%eax, %eax
000161b9	0f 84 3d 04 00 00	je	0x165fc
000161bf	8b 00	movl	P24C_SW_1ST_VECTOR_NUM(%eax), %eax
000161c1	8b 10	movl	P24C_SW_1ST_VECTOR_NUM(%eax), %edx
000161c3	8b 40 18	movl	0x18(%eax), %eax
000161c6	e9 eb 08 00 00	jmp	0x16ab6
000161cb	8b 44 24 1c	movl	0x1c(%esp), %eax
000161cf	c6 80 0b 44 00 00 01	movb	$0x1, 0x440b(%eax)
000161d6	e9 7e 0c 00 00	jmp	0x16e59
000161db	8b 44 24 1c	movl	0x1c(%esp), %eax
000161df	c6 80 0b 44 00 00 00	movb	$0x0, 0x440b(%eax)
000161e6	e9 6e 0c 00 00	jmp	0x16e59
000161eb	8b 4c 24 1c	movl	0x1c(%esp), %ecx
000161ef	8b 41 20	movl	0x20(%ecx), %eax
000161f2	83 c1 24	addl	$0x24, %ecx
000161f5	89 44 24 04	movl	%eax, 0x4(%esp)
000161f9	89 0c 24	movl	%ecx, P24C_SW_1ST_VECTOR_NUM(%esp)
000161fc	c7 44 24 08 80 00 00 00	movl	$0x80, 0x8(%esp)
00016204	e8 8e b7 ff ff	calll	_memcpy
00016209	e9 4b 0c 00 00	jmp	0x16e59
0001620e	8b 74 24 1c	movl	0x1c(%esp), %esi
00016212	8d 8e 48 43 00 00	leal	0x4348(%esi), %ecx
00016218	e8 95 26 00 00	calll	__ZNK10IGUkBitSetILj6EE5beginEv ## IGUkBitSet<6u>::begin() const
0001621d	89 d3	movl	%edx, %ebx
0001621f	8d 7c 24 38	leal	0x38(%esp), %edi
00016223	89 57 04	movl	%edx, 0x4(%edi)
00016226	89 07	movl	%eax, P24C_SW_1ST_VECTOR_NUM(%edi)
00016228	85 db	testl	%ebx, %ebx
0001622a	0f 84 29 0c 00 00	je	0x16e59
00016230	8b 84 9e 3c 04 00 00	movl	0x43c(%esi,%ebx,4), %eax
00016237	83 c0 50	addl	$0x50, %eax
0001623a	89 04 24	movl	%eax, P24C_SW_1ST_VECTOR_NUM(%esp)
0001623d	e8 9e c9 ff ff	calll	__ZNK10IGUkBitSetILj64EE3anyEv ## IGUkBitSet<64u>::any() const
00016242	84 c0	testb	%al, %al
00016244	74 11	je	0x16257
00016246	4b	decl	%ebx
00016247	6b c3 5d	imull	$0x5d, %ebx, %eax
0001624a	8b 90 35 9c 01 00	movl	0x19c35(%eax), %edx
00016250	89 f1	movl	%esi, %ecx
00016252	e8 55 2e 00 00	calll	__ZN17IGMicroController11schedNotifyEj ## IGMicroController::schedNotify(unsigned int)
00016257	89 f9	movl	%edi, %ecx
00016259	e8 ae 26 00 00	calll	__ZN10IGUkBitSetILj6EE13ConstIteratorppEv ## IGUkBitSet<6u>::ConstIterator::operator++()
0001625e	8b 5c 24 3c	movl	0x3c(%esp), %ebx
00016262	eb c4	jmp	0x16228
00016264	8b 44 24 1c	movl	0x1c(%esp), %eax
00016268	8b b4 90 40 04 00 00	movl	0x440(%eax,%edx,4), %esi
0001626f	8b 1d 80 00 e0 fe	movl	-0x11fff80, %ebx
00016275	c7 05 80 00 e0 fe f0 00 00 00	movl	$0xf0, -0x11fff80
0001627f	0f b6 46 24	movzbl	0x24(%esi), %eax
00016283	6b c0 5d	imull	$0x5d, %eax, %eax
00016286	8b 90 35 9c 01 00	movl	0x19c35(%eax), %edx
0001628c	31 ed	xorl	%ebp, %ebp
0001628e	45	incl	%ebp
0001628f	89 e9	movl	%ebp, %ecx
00016291	e8 26 ba ff ff	calll	__ZN4iguk9forceWakeEbj ## iguk::forceWake(bool, unsigned int)
00016296	89 f1	movl	%esi, %ecx
00016298	e8 39 e8 ff ff	calll	__ZN21IGCommandStreamerBase26processContextStatusBufferEv ## IGCommandStreamerBase::processContextStatusBuffer()
0001629d	0f b6 46 24	movzbl	0x24(%esi), %eax
000162a1	6b c0 5d	imull	$0x5d, %eax, %eax
000162a4	8b 88 4d 9c 01 00	movl	0x19c4d(%eax), %ecx
000162aa	8b 91 00 00 e0 ff	movl	-0x200000(%ecx), %edx
000162b0	8b b9 04 00 e0 ff	movl	-0x1ffffc(%ecx), %edi
000162b6	8b 90 35 9c 01 00	movl	0x19c35(%eax), %edx
000162bc	31 c9	xorl	%ecx, %ecx
000162be	e8 f9 b9 ff ff	calll	__ZN4iguk9forceWakeEbj ## iguk::forceWake(bool, unsigned int)
000162c3	8b 46 20	movl	0x20(%esi), %eax
000162c6	8b 4c c6 0c	movl	0xc(%esi,%eax,8), %ecx
000162ca	85 c9	testl	%ecx, %ecx
000162cc	0f 84 4c 03 00 00	je	0x1661e
000162d2	8b 01	movl	P24C_SW_1ST_VECTOR_NUM(%ecx), %eax
000162d4	89 c1	movl	%eax, %ecx
000162d6	83 e1 f0	andl	$-0x10, %ecx
000162d9	89 c2	movl	%eax, %edx
000162db	83 e2 0f	andl	$0xf, %edx
000162de	83 c2 2f	addl	$0x2f, %edx
000162e1	83 e2 f0	andl	$-0x10, %edx
000162e4	01 ca	addl	%ecx, %edx
000162e6	39 d1	cmpl	%edx, %ecx
000162e8	0f 83 14 02 00 00	jae	0x16502
000162ee	0f ae 39	clflush	P24C_SW_1ST_VECTOR_NUM(%ecx)
000162f1	83 c1 10	addl	$0x10, %ecx
000162f4	eb f0	jmp	0x162e6
000162f6	8b 87 34 04 00 00	movl	0x434(%edi), %eax
000162fc	a3 70 a1 e0 ff	movl	%eax, 0xffe0a170
00016301	8b 87 30 04 00 00	movl	0x430(%edi), %eax
00016307	a3 74 a1 e0 ff	movl	%eax, 0xffe0a174
0001630c	e9 48 0b 00 00	jmp	0x16e59
00016311	c7 05 20 c0 e0 ff 01 00 00 00	movl	$0x1, -0x1f3fe0
0001631b	66 85 c0	testw	%ax, %ax
0001631e	0f 85 35 0b 00 00	jne	0x16e59
00016324	89 f2	movl	%esi, %edx
00016326	8b 44 24 1c	movl	0x1c(%esp), %eax
0001632a	f6 40 3c 01	testb	$0x1, 0x3c(%eax)
0001632e	0f 84 cd 06 00 00	je	0x16a01
00016334	8d 82 62 9e 01 00	leal	__ZL30IG_STAMP_INDEX_TO_HWCS_LUT_SCI.61(%edx), %eax ## IG_STAMP_INDEX_TO_HWCS_LUT_SCI (.61)
0001633a	e9 c8 06 00 00	jmp	0x16a07
0001633f	c7 05 20 c0 e0 ff 01 00 00 00	movl	$0x1, -0x1f3fe0
00016349	66 83 f9 01	cmpw	$0x1, %cx
0001634d	0f 85 06 0b 00 00	jne	0x16e59
00016353	89 f2	movl	%esi, %edx
00016355	8b 5c 24 1c	movl	0x1c(%esp), %ebx
00016359	f6 43 3c 01	testb	$0x1, 0x3c(%ebx)
0001635d	0f 84 29 03 00 00	je	0x1668c
00016363	8d 82 62 9e 01 00	leal	__ZL30IG_STAMP_INDEX_TO_HWCS_LUT_SCI.61(%edx), %eax ## IG_STAMP_INDEX_TO_HWCS_LUT_SCI (.61)
00016369	e9 24 03 00 00	jmp	0x16692
0001636e	8b 85 4c 43 00 00	movl	0x434c(%ebp), %eax
00016374	8b 0f	movl	P24C_SW_1ST_VECTOR_NUM(%edi), %ecx
00016376	89 8d 4c 43 00 00	movl	%ecx, 0x434c(%ebp)
0001637c	31 d2	xorl	%edx, %edx
0001637e	42	incl	%edx
0001637f	21 d0	andl	%edx, %eax
00016381	21 d1	andl	%edx, %ecx
00016383	39 c8	cmpl	%ecx, %eax
00016385	0f 84 60 03 00 00	je	0x166eb
0001638b	85 c0	testl	%eax, %eax
0001638d	0f 85 27 03 00 00	jne	0x166ba
00016393	8b b5 50 43 00 00	movl	0x4350(%ebp), %esi
00016399	8d 8d d4 02 00 00	leal	0x2d4(%ebp), %ecx
0001639f	6a 05	pushl	$0x5
000163a1	5a	popl	%edx
000163a2	e8 5b 34 00 00	calll	__ZN17IGGucTimerManager11cancelTimerE16IGGucTimerTaskId ## IGGucTimerManager::cancelTimer(IGGucTimerTaskId)
000163a7	c6 85 09 44 00 00 01	movb	$0x1, 0x4409(%ebp)
000163ae	8b 85 50 43 00 00	movl	0x4350(%ebp), %eax
000163b4	a3 08 a0 e0 ff	movl	%eax, 0xffe0a008
000163b9	80 3d e8 c8 00 00 00	cmpb	$0x0, _gPerfLogEnable
000163c0	0f 84 25 03 00 00	je	0x166eb
000163c6	c1 ee 0a	shrl	$0xa, %esi
000163c9	81 e6 f0 1f 00 00	andl	$0x1ff0, %esi
000163cf	8b 0d f8 c8 00 00	movl	__ZN17IGMicroController9fInstanceE, %ecx ## IGMicroController::fInstance
000163d5	89 74 24 08	movl	%esi, 0x8(%esp)
000163d9	83 64 24 10 00	andl	$0x0, 0x10(%esp)
000163de	c7 44 24 0c 01 00 00 00	movl	$0x1, 0xc(%esp)
000163e6	83 64 24 04 00	andl	$0x0, 0x4(%esp)
000163eb	83 24 24 00	andl	$0x0, P24C_SW_1ST_VECTOR_NUM(%esp)
000163ef	ba cc 01 a7 85	movl	$0x85a701cc, %edx
000163f4	e8 43 25 00 00	calll	__ZN17IGMicroController27perfLogAppendKdebugConstantEjyjjj ## IGMicroController::perfLogAppendKdebugConstant(unsigned int, unsigned long long, unsigned int, unsigned int, unsigned int)
000163f9	e9 ed 02 00 00	jmp	0x166eb
000163fe	31 c9	xorl	%ecx, %ecx
00016400	83 f9 06	cmpl	$0x6, %ecx
00016403	0f 84 50 0a 00 00	je	0x16e59
00016409	8b 44 24 1c	movl	0x1c(%esp), %eax
0001640d	89 4c 24 24	movl	%ecx, 0x24(%esp)
00016411	8b b4 88 40 04 00 00	movl	0x440(%eax,%ecx,4), %esi
00016418	8d 5e 50	leal	0x50(%esi), %ebx
0001641b	89 1c 24	movl	%ebx, P24C_SW_1ST_VECTOR_NUM(%esp)
0001641e	e8 bd c7 ff ff	calll	__ZNK10IGUkBitSetILj64EE3anyEv ## IGUkBitSet<64u>::any() const
00016423	84 c0	testb	%al, %al
00016425	0f 84 cd 00 00 00	je	0x164f8
0001642b	89 d9	movl	%ebx, %ecx
0001642d	e8 fe c8 ff ff	calll	__ZNK10IGUkBitSetILj64EE5beginEv ## IGUkBitSet<64u>::begin() const
00016432	89 d1	movl	%edx, %ecx
00016434	89 54 24 3c	movl	%edx, 0x3c(%esp)
00016438	89 44 24 38	movl	%eax, 0x38(%esp)
0001643c	89 74 24 20	movl	%esi, 0x20(%esp)
00016440	85 c9	testl	%ecx, %ecx
00016442	0f 84 b0 00 00 00	je	0x164f8
00016448	49	decl	%ecx
00016449	89 c8	movl	%ecx, %eax
0001644b	c1 e0 05	shll	$0x5, %eax
0001644e	8d 94 06 58 02 00 00	leal	0x258(%esi,%eax), %edx
00016455	8b 32	movl	P24C_SW_1ST_VECTOR_NUM(%edx), %esi
00016457	8b 36	movl	P24C_SW_1ST_VECTOR_NUM(%esi), %esi
00016459	89 f3	movl	%esi, %ebx
0001645b	83 e3 f0	andl	$-0x10, %ebx
0001645e	89 f7	movl	%esi, %edi
00016460	83 e7 0f	andl	$0xf, %edi
00016463	83 c7 1f	addl	$0x1f, %edi
00016466	83 e7 f0	andl	$-0x10, %edi
00016469	01 df	addl	%ebx, %edi
0001646b	39 fb	cmpl	%edi, %ebx
0001646d	73 08	jae	0x16477
0001646f	0f ae 3b	clflush	P24C_SW_1ST_VECTOR_NUM(%ebx)
00016472	83 c3 10	addl	$0x10, %ebx
00016475	eb f4	jmp	0x1646b
00016477	8b 7e 08	movl	0x8(%esi), %edi
0001647a	8b 76 0c	movl	0xc(%esi), %esi
0001647d	6b d9 1d	imull	$0x1d, %ecx, %ebx
00016480	89 b4 1d a8 00 00 00	movl	%esi, 0xa8(%ebp,%ebx)
00016487	89 bc 1d a4 00 00 00	movl	%edi, 0xa4(%ebp,%ebx)
0001648e	8b 32	movl	P24C_SW_1ST_VECTOR_NUM(%edx), %esi
00016490	8b 76 08	movl	0x8(%esi), %esi
00016493	89 b4 1d ac 00 00 00	movl	%esi, 0xac(%ebp,%ebx)
0001649a	8b 12	movl	P24C_SW_1ST_VECTOR_NUM(%edx), %edx
0001649c	8b 52 10	movl	0x10(%edx), %edx
0001649f	89 94 1d b0 00 00 00	movl	%edx, SEMAPHORE_VECTOR_2(%ebp,%ebx)
000164a6	8b 74 24 20	movl	0x20(%esp), %esi
000164aa	0f b7 94 06 60 02 00 00	movzwl	0x260(%esi,%eax), %edx
000164b2	89 94 1d b4 00 00 00	movl	%edx, SEMAPHORE_VECTOR_6(%ebp,%ebx)
000164b9	8b 94 06 64 02 00 00	movl	0x264(%esi,%eax), %edx
000164c0	89 94 1d b8 00 00 00	movl	%edx, 0xb8(%ebp,%ebx)
000164c7	8b 84 06 60 02 00 00	movl	0x260(%esi,%eax), %eax
000164ce	c1 e8 12	shrl	$0x12, %eax
000164d1	24 01	andb	$0x1, %al
000164d3	88 84 1d bc 00 00 00	movb	%al, 0xbc(%ebp,%ebx)
000164da	31 c0	xorl	%eax, %eax
000164dc	40	incl	%eax
000164dd	d3 e0	shll	%cl, %eax
000164df	c1 e9 05	shrl	$0x5, %ecx
000164e2	09 44 8d 04	orl	%eax, 0x4(%ebp,%ecx,4)
000164e6	8d 4c 24 38	leal	0x38(%esp), %ecx
000164ea	e8 ed c7 ff ff	calll	__ZN10IGUkBitSetILj64EE13ConstIteratorppEv ## IGUkBitSet<64u>::ConstIterator::operator++()
000164ef	8b 4c 24 3c	movl	0x3c(%esp), %ecx
000164f3	e9 48 ff ff ff	jmp	0x16440
000164f8	8b 4c 24 24	movl	0x24(%esp), %ecx
000164fc	41	incl	%ecx
000164fd	e9 fe fe ff ff	jmp	0x16400
00016502	89 5c 24 24	movl	%ebx, 0x24(%esp)
00016506	8b 10	movl	P24C_SW_1ST_VECTOR_NUM(%eax), %edx
00016508	8b 40 18	movl	0x18(%eax), %eax
0001650b	89 44 24 1c	movl	%eax, 0x1c(%esp)
0001650f	8b 46 20	movl	0x20(%esi), %eax
00016512	8b 44 c6 10	movl	0x10(%esi,%eax,8), %eax
00016516	85 c0	testl	%eax, %eax
00016518	0f 84 9e 04 00 00	je	0x169bc
0001651e	89 fb	movl	%edi, %ebx
00016520	8b 00	movl	P24C_SW_1ST_VECTOR_NUM(%eax), %eax
00016522	89 c1	movl	%eax, %ecx
00016524	83 e1 f0	andl	$-0x10, %ecx
00016527	89 c7	movl	%eax, %edi
00016529	83 e7 0f	andl	$0xf, %edi
0001652c	83 c7 2f	addl	$0x2f, %edi
0001652f	83 e7 f0	andl	$-0x10, %edi
00016532	01 cf	addl	%ecx, %edi
00016534	39 f9	cmpl	%edi, %ecx
00016536	0f 83 b0 00 00 00	jae	0x165ec
0001653c	0f ae 39	clflush	P24C_SW_1ST_VECTOR_NUM(%ecx)
0001653f	83 c1 10	addl	$0x10, %ecx
00016542	eb f0	jmp	0x16534
00016544	80 3d e8 c8 00 00 00	cmpb	$0x0, _gPerfLogEnable
0001654b	0f 85 a0 09 00 00	jne	0x16ef1
00016551	83 ee 80	subl	$-0x80, %esi
00016554	89 f0	movl	%esi, %eax
00016556	83 c8 40	orl	$0x40, %eax
00016559	39 c6	cmpl	%eax, %esi
0001655b	73 08	jae	0x16565
0001655d	0f ae 3e	clflush	P24C_SW_1ST_VECTOR_NUM(%esi)
00016560	83 c6 10	addl	$0x10, %esi
00016563	eb f4	jmp	0x16559
00016565	c7 05 20 c0 e0 ff 01 00 00 00	movl	$0x1, -0x1f3fe0
0001656f	e9 e5 08 00 00	jmp	0x16e59
00016574	66 85 d2	testw	%dx, %dx
00016577	8b 74 24 1c	movl	0x1c(%esp), %esi
0001657b	75 64	jne	0x165e1
0001657d	8b 8e 10 44 00 00	movl	0x4410(%esi), %ecx
00016583	49	decl	%ecx
00016584	84 c0	testb	%al, %al
00016586	89 8e 14 44 00 00	movl	%ecx, 0x4414(%esi)
0001658c	0f 85 e5 09 00 00	jne	0x16f77
00016592	8b 0d 80 00 e0 fe	movl	-0x11fff80, %ecx
00016598	c7 05 80 00 e0 fe f0 00 00 00	movl	$0xf0, -0x11fff80
000165a2	83 0d bc c1 e0 ff 40	orl	$0x40, -0x1f3e44
000165a9	c7 05 00 00 f9 ff 00 80 04 00	movl	$0x48000, -0x70000
000165b3	eb 26	jmp	0x165db
000165b5	c7 05 20 c0 e0 ff 01 00 00 00	movl	$0x1, -0x1f3fe0
000165bf	83 a7 f4 43 00 00 00	andl	$0x0, 0x43f4(%edi)
000165c6	83 a7 f0 43 00 00 00	andl	$0x0, 0x43f0(%edi)
000165cd	83 a7 f8 43 00 00 00	andl	$0x0, 0x43f8(%edi)
000165d4	83 a7 04 44 00 00 00	andl	$0x0, 0x4404(%edi)
000165db	89 0d 80 00 e0 fe	movl	%ecx, -0x11fff80
000165e1	88 1d e8 c8 00 00	movb	%bl, _gPerfLogEnable
000165e7	e9 6d 08 00 00	jmp	0x16e59
000165ec	8b 08	movl	P24C_SW_1ST_VECTOR_NUM(%eax), %ecx
000165ee	8b 40 18	movl	0x18(%eax), %eax
000165f1	89 44 24 20	movl	%eax, 0x20(%esp)
000165f5	89 df	movl	%ebx, %edi
000165f7	e9 ca 03 00 00	jmp	0x169c6
000165fc	31 ff	xorl	%edi, %edi
000165fe	47	incl	%edi
000165ff	29 cf	subl	%ecx, %edi
00016601	8b 44 fe 0c	movl	0xc(%esi,%edi,8), %eax
00016605	85 c0	testl	%eax, %eax
00016607	0f 84 a4 04 00 00	je	0x16ab1
0001660d	8b 00	movl	P24C_SW_1ST_VECTOR_NUM(%eax), %eax
0001660f	8b 10	movl	P24C_SW_1ST_VECTOR_NUM(%eax), %edx
00016611	8b 40 18	movl	0x18(%eax), %eax
00016614	89 7e 20	movl	%edi, 0x20(%esi)
00016617	89 f9	movl	%edi, %ecx
00016619	e9 98 04 00 00	jmp	0x16ab6
0001661e	c7 44 24 20 00 00 00 00	movl	$P24C_SW_1ST_VECTOR_NUM, 0x20(%esp)
00016626	85 ff	testl	%edi, %edi
00016628	0f 84 3c 04 00 00	je	0x16a6a
0001662e	89 7c 24 2c	movl	%edi, 0x2c(%esp)
00016632	29 c5	subl	%eax, %ebp
00016634	8b 44 ee 0c	movl	0xc(%esi,%ebp,8), %eax
00016638	89 44 24 1c	movl	%eax, 0x1c(%esp)
0001663c	85 c0	testl	%eax, %eax
0001663e	bf 00 00 00 00	movl	$P24C_SW_1ST_VECTOR_NUM, %edi
00016643	b9 00 00 00 00	movl	$P24C_SW_1ST_VECTOR_NUM, %ecx
00016648	ba 00 00 00 00	movl	$P24C_SW_1ST_VECTOR_NUM, %edx
0001664d	b8 00 00 00 00	movl	$P24C_SW_1ST_VECTOR_NUM, %eax
00016652	bd 00 00 00 00	movl	$P24C_SW_1ST_VECTOR_NUM, %ebp
00016657	0f 84 5b 07 00 00	je	0x16db8
0001665d	8b 44 24 1c	movl	0x1c(%esp), %eax
00016661	8b 08	movl	P24C_SW_1ST_VECTOR_NUM(%eax), %ecx
00016663	89 c8	movl	%ecx, %eax
00016665	83 e0 f0	andl	$-0x10, %eax
00016668	89 ca	movl	%ecx, %edx
0001666a	83 e2 0f	andl	$0xf, %edx
0001666d	83 c2 2f	addl	$0x2f, %edx
00016670	83 e2 f0	andl	$-0x10, %edx
00016673	01 c2	addl	%eax, %edx
00016675	31 ed	xorl	%ebp, %ebp
00016677	45	incl	%ebp
00016678	8b 7c 24 2c	movl	0x2c(%esp), %edi
0001667c	39 d0	cmpl	%edx, %eax
0001667e	0f 83 56 05 00 00	jae	0x16bda
00016684	0f ae 38	clflush	P24C_SW_1ST_VECTOR_NUM(%eax)
00016687	83 c0 10	addl	$0x10, %eax
0001668a	eb f0	jmp	0x1667c
0001668c	8d 82 68 9e 01 00	leal	__ZL26IG_STAMP_INDEX_TO_HWCS_LUT.62(%edx), %eax ## IG_STAMP_INDEX_TO_HWCS_LUT (.62)
00016692	0f b6 30	movzbl	P24C_SW_1ST_VECTOR_NUM(%eax), %esi
00016695	80 3d e8 c8 00 00 00	cmpb	$0x0, _gPerfLogEnable
0001669c	0f 85 7f 08 00 00	jne	0x16f21
000166a2	8b 84 b3 40 04 00 00	movl	0x440(%ebx,%esi,4), %eax
000166a9	8b 08	movl	P24C_SW_1ST_VECTOR_NUM(%eax), %ecx
000166ab	89 7c 24 04	movl	%edi, 0x4(%esp)
000166af	89 04 24	movl	%eax, P24C_SW_1ST_VECTOR_NUM(%esp)
000166b2	ff 51 08	calll	*0x8(%ecx)
000166b5	e9 9f 07 00 00	jmp	0x16e59
000166ba	8b 85 78 04 00 00	movl	0x478(%ebp), %eax
000166c0	83 bc c5 68 04 00 00 00	cmpl	$0x0, 0x468(%ebp,%eax,8)
000166c8	75 21	jne	0x166eb
000166ca	8b 84 c5 64 04 00 00	movl	0x464(%ebp,%eax,8), %eax
000166d1	85 c0	testl	%eax, %eax
000166d3	74 16	je	0x166eb
000166d5	8b 00	movl	P24C_SW_1ST_VECTOR_NUM(%eax), %eax
000166d7	8a 40 2c	movb	0x2c(%eax), %al
000166da	88 85 6c 0f 00 00	movb	%al, 0xf6c(%ebp)
000166e0	8b 0d f8 c8 00 00	movl	__ZN17IGMicroController9fInstanceE, %ecx ## IGMicroController::fInstance
000166e6	e8 89 2c 00 00	calll	__ZN17IGMicroController46setGTFrequencyMMIOAndStartChangeFrequencyTimerEv ## IGMicroController::setGTFrequencyMMIOAndStartChangeFrequencyTimer()
000166eb	89 e9	movl	%ebp, %ecx
000166ed	89 fa	movl	%edi, %edx
000166ef	e8 46 27 00 00	calll	__ZN17IGMicroController34parseSetPmMessageUpdateFrequenciesEP20IGUkPmMessagePayload ## IGMicroController::parseSetPmMessageUpdateFrequencies(IGUkPmMessagePayload*)
000166f4	8b 9d 4c 43 00 00	movl	0x434c(%ebp), %ebx
000166fa	f6 c3 20	testb	$0x20, %bl
000166fd	0f 84 b5 00 00 00	je	0x167b8
00016703	89 5c 24 24	movl	%ebx, 0x24(%esp)
00016707	8b b5 60 43 00 00	movl	0x4360(%ebp), %esi
0001670d	6a 07	pushl	$0x7
0001670f	5a	popl	%edx
00016710	89 f1	movl	%esi, %ecx
00016712	21 d1	andl	%edx, %ecx
00016714	89 f0	movl	%esi, %eax
00016716	c1 e8 08	shrl	$0x8, %eax
00016719	c1 ee 10	shrl	$0x10, %esi
0001671c	21 d6	andl	%edx, %esi
0001671e	89 c3	movl	%eax, %ebx
00016720	c1 e3 04	shll	$0x4, %ebx
00016723	ba ff 00 00 00	movl	$SPURIOUS_VECTOR, %edx
00016728	21 d3	andl	%edx, %ebx
0001672a	09 cb	orl	%ecx, %ebx
0001672c	89 f2	movl	%esi, %edx
0001672e	c1 e2 08	shll	$0x8, %edx
00016731	09 da	orl	%ebx, %edx
00016733	89 eb	movl	%ebp, %ebx
00016735	89 7c 24 28	movl	%edi, 0x28(%esp)
00016739	8b 6f 14	movl	0x14(%edi), %ebp
0001673c	89 ab 60 43 00 00	movl	%ebp, 0x4360(%ebx)
00016742	89 eb	movl	%ebp, %ebx
00016744	6a 07	pushl	$0x7
00016746	5f	popl	%edi
00016747	21 fb	andl	%edi, %ebx
00016749	89 4c 24 2c	movl	%ecx, 0x2c(%esp)
0001674d	39 cb	cmpl	%ecx, %ebx
0001674f	89 5c 24 30	movl	%ebx, 0x30(%esp)
00016753	74 05	je	0x1675a
00016755	83 e2 f0	andl	$-0x10, %edx
00016758	09 da	orl	%ebx, %edx
0001675a	89 eb	movl	%ebp, %ebx
0001675c	c1 eb 08	shrl	$0x8, %ebx
0001675f	31 d8	xorl	%ebx, %eax
00016761	b9 ff 00 00 00	movl	$SPURIOUS_VECTOR, %ecx
00016766	21 c8	andl	%ecx, %eax
00016768	8b 7c 24 28	movl	0x28(%esp), %edi
0001676c	74 0d	je	0x1677b
0001676e	c1 e3 04	shll	$0x4, %ebx
00016771	21 cb	andl	%ecx, %ebx
00016773	81 e2 07 07 00 00	andl	$0x707, %edx
00016779	09 da	orl	%ebx, %edx
0001677b	8b 5c 24 24	movl	0x24(%esp), %ebx
0001677f	c1 ed 10	shrl	$0x10, %ebp
00016782	6a 07	pushl	$0x7
00016784	59	popl	%ecx
00016785	21 cd	andl	%ecx, %ebp
00016787	39 f5	cmpl	%esi, %ebp
00016789	75 0e	jne	0x16799
0001678b	8b 4c 24 30	movl	0x30(%esp), %ecx
0001678f	3b 4c 24 2c	cmpl	0x2c(%esp), %ecx
00016793	75 04	jne	0x16799
00016795	85 c0	testl	%eax, %eax
00016797	74 1f	je	0x167b8
00016799	39 f5	cmpl	%esi, %ebp
0001679b	74 0b	je	0x167a8
0001679d	81 e2 f7 00 00 00	andl	$0xf7, %edx
000167a3	c1 e5 08	shll	$0x8, %ebp
000167a6	09 ea	orl	%ebp, %edx
000167a8	89 15 04 a2 e0 ff	movl	%edx, -0x1f5dfc
000167ae	8b 44 24 1c	movl	0x1c(%esp), %eax
000167b2	8b 98 4c 43 00 00	movl	0x434c(%eax), %ebx
000167b8	f6 c3 40	testb	$0x40, %bl
000167bb	8b 6c 24 1c	movl	0x1c(%esp), %ebp
000167bf	74 12	je	0x167d3
000167c1	8b 4f 18	movl	0x18(%edi), %ecx
000167c4	89 8d 64 43 00 00	movl	%ecx, 0x4364(%ebp)
000167ca	8b 4f 1c	movl	0x1c(%edi), %ecx
000167cd	89 8d 68 43 00 00	movl	%ecx, 0x4368(%ebp)
000167d3	84 db	testb	%bl, %bl
000167d5	79 24	jns	0x167fb
000167d7	8b 4f 20	movl	0x20(%edi), %ecx
000167da	89 8d 6c 43 00 00	movl	%ecx, 0x436c(%ebp)
000167e0	8b 4f 24	movl	0x24(%edi), %ecx
000167e3	89 8d 70 43 00 00	movl	%ecx, 0x4370(%ebp)
000167e9	8b 4f 28	movl	0x28(%edi), %ecx
000167ec	89 8d 74 43 00 00	movl	%ecx, 0x4374(%ebp)
000167f2	8b 4f 2c	movl	0x2c(%edi), %ecx
000167f5	89 8d 78 43 00 00	movl	%ecx, 0x4378(%ebp)
000167fb	0f ba e3 08	btl	$0x8, %ebx
000167ff	73 26	jae	0x16827
00016801	8b 4f 30	movl	0x30(%edi), %ecx
00016804	89 8d 7c 43 00 00	movl	%ecx, 0x437c(%ebp)
0001680a	f6 85 b4 00 00 00 3f	testb	$0x3f, SEMAPHORE_VECTOR_6(%ebp)
00016811	74 14	je	0x16827
00016813	8d 8d d4 02 00 00	leal	0x2d4(%ebp), %ecx
00016819	31 d2	xorl	%edx, %edx
0001681b	42	incl	%edx
0001681c	e8 39 30 00 00	calll	__ZN17IGGucTimerManager22armCheckFrequencyTimerEb ## IGGucTimerManager::armCheckFrequencyTimer(bool)
00016821	8b 9d 4c 43 00 00	movl	0x434c(%ebp), %ebx
00016827	0f ba e3 09	btl	$0x9, %ebx
0001682b	0f 83 7d 01 00 00	jae	0x169ae
00016831	be ff ff ff 00	movl	$0xffffff, %esi
00016836	8b 47 34	movl	0x34(%edi), %eax
00016839	21 f0	andl	%esi, %eax
0001683b	0f b6 8d 83 43 00 00	movzbl	0x4383(%ebp), %ecx
00016842	c1 e1 18	shll	$0x18, %ecx
00016845	09 c1	orl	%eax, %ecx
00016847	89 8d 80 43 00 00	movl	%ecx, 0x4380(%ebp)
0001684d	8b 47 34	movl	0x34(%edi), %eax
00016850	89 44 24 24	movl	%eax, 0x24(%esp)
00016854	ba 00 00 00 80	movl	$0x80000000, %edx
00016859	21 d0	andl	%edx, %eax
0001685b	bb ff ff ff 7f	movl	$0x7fffffff, %ebx
00016860	21 d9	andl	%ebx, %ecx
00016862	bb ff ff ff 7f	movl	$0x7fffffff, %ebx
00016867	09 c1	orl	%eax, %ecx
00016869	89 8d 80 43 00 00	movl	%ecx, 0x4380(%ebp)
0001686f	8b 6f 34	movl	0x34(%edi), %ebp
00016872	89 e8	movl	%ebp, %eax
00016874	25 00 00 00 40	andl	$0x40000000, %eax
00016879	81 e1 ff ff ff bf	andl	$0xbfffffff, %ecx
0001687f	09 c1	orl	%eax, %ecx
00016881	8b 44 24 1c	movl	0x1c(%esp), %eax
00016885	89 88 80 43 00 00	movl	%ecx, 0x4380(%eax)
0001688b	8b 47 38	movl	0x38(%edi), %eax
0001688e	21 f0	andl	%esi, %eax
00016890	8b 4c 24 1c	movl	0x1c(%esp), %ecx
00016894	0f b6 89 87 43 00 00	movzbl	0x4387(%ecx), %ecx
0001689b	c1 e1 18	shll	$0x18, %ecx
0001689e	09 c1	orl	%eax, %ecx
000168a0	8b 44 24 1c	movl	0x1c(%esp), %eax
000168a4	89 88 84 43 00 00	movl	%ecx, 0x4384(%eax)
000168aa	21 d9	andl	%ebx, %ecx
000168ac	8b 5c 24 24	movl	0x24(%esp), %ebx
000168b0	8b 47 38	movl	0x38(%edi), %eax
000168b3	21 c2	andl	%eax, %edx
000168b5	09 d1	orl	%edx, %ecx
000168b7	8b 54 24 1c	movl	0x1c(%esp), %edx
000168bb	89 8a 84 43 00 00	movl	%ecx, 0x4384(%edx)
000168c1	8b 4f 3c	movl	0x3c(%edi), %ecx
000168c4	0f b7 c9	movzwl	%cx, %ecx
000168c7	8b 54 24 1c	movl	0x1c(%esp), %edx
000168cb	66 89 8a 88 43 00 00	movw	%cx, 0x4388(%edx)
000168d2	0f b7 57 3e	movzwl	0x3e(%edi), %edx
000168d6	c1 e2 10	shll	$0x10, %edx
000168d9	09 ca	orl	%ecx, %edx
000168db	8b 4c 24 1c	movl	0x1c(%esp), %ecx
000168df	89 91 88 43 00 00	movl	%edx, 0x4388(%ecx)
000168e5	0f b7 4f 40	movzwl	0x40(%edi), %ecx
000168e9	8b 54 24 1c	movl	0x1c(%esp), %edx
000168ed	66 89 8a 8c 43 00 00	movw	%cx, 0x438c(%edx)
000168f4	c1 eb 1f	shrl	$0x1f, %ebx
000168f7	c1 e8 1f	shrl	$0x1f, %eax
000168fa	c1 ed 1c	shrl	$0x1c, %ebp
000168fd	83 e5 04	andl	$0x4, %ebp
00016900	09 dd	orl	%ebx, %ebp
00016902	8d 7c 45 00	leal	(%ebp,%eax,2), %edi
00016906	8b 6c 24 1c	movl	0x1c(%esp), %ebp
0001690a	83 a5 a8 00 00 00 00	andl	$0x0, 0xa8(%ebp)
00016911	c7 04 24 3f 00 00 00	movl	$0x3f, P24C_SW_1ST_VECTOR_NUM(%esp)
00016918	31 d2	xorl	%edx, %edx
0001691a	42	incl	%edx
0001691b	89 e9	movl	%ebp, %ecx
0001691d	e8 68 1d 00 00	calll	__ZN17IGMicroController9forceWakeEbj ## IGMicroController::forceWake(bool, unsigned int)
00016922	89 3d 10 a2 e0 ff	movl	%edi, -0x1f5df0
00016928	83 ff 01	cmpl	$0x1, %edi
0001692b	75 0f	jne	0x1693c
0001692d	a1 30 0d e0 ff	movl	0xffe00d30, %eax
00016932	83 e0 fe	andl	$-0x2, %eax
00016935	09 d8	orl	%ebx, %eax
00016937	a3 30 0d e0 ff	movl	%eax, 0xffe00d30
0001693c	8b 85 80 43 00 00	movl	0x4380(%ebp), %eax
00016942	21 f0	andl	%esi, %eax
00016944	a3 c8 a0 e0 ff	movl	%eax, 0xffe0a0c8
00016949	23 b5 84 43 00 00	andl	0x4384(%ebp), %esi
0001694f	89 35 c4 a0 e0 ff	movl	%esi, -0x1f5f3c
00016955	8b 85 88 43 00 00	movl	0x4388(%ebp), %eax
0001695b	a3 9c a0 e0 ff	movl	%eax, 0xffe0a09c
00016960	0f b7 85 8c 43 00 00	movzwl	0x438c(%ebp), %eax
00016967	a3 a0 a0 e0 ff	movl	%eax, 0xffe0a0a0
0001696c	c7 04 24 3f 00 00 00	movl	$0x3f, P24C_SW_1ST_VECTOR_NUM(%esp)
00016973	89 e9	movl	%ebp, %ecx
00016975	31 d2	xorl	%edx, %edx
00016977	e8 0e 1d 00 00	calll	__ZN17IGMicroController9forceWakeEbj ## IGMicroController::forceWake(bool, unsigned int)
0001697c	8b 85 80 43 00 00	movl	0x4380(%ebp), %eax
00016982	8b 8d 84 43 00 00	movl	0x4384(%ebp), %ecx
00016988	c1 e8 07	shrl	$0x7, %eax
0001698b	25 00 00 00 01	andl	$0x1000000, %eax
00016990	ba ff ff ff fc	movl	$0xfcffffff, %edx
00016995	23 95 a8 00 00 00	andl	0xa8(%ebp), %edx
0001699b	09 c2	orl	%eax, %edx
0001699d	c1 e9 06	shrl	$0x6, %ecx
000169a0	81 e1 00 00 00 02	andl	$0x2000000, %ecx
000169a6	09 d1	orl	%edx, %ecx
000169a8	89 8d a8 00 00 00	movl	%ecx, 0xa8(%ebp)
000169ae	8b 44 24 20	movl	0x20(%esp), %eax
000169b2	a3 80 00 e0 fe	movl	%eax, 0xfee00080
000169b7	e9 9d 04 00 00	jmp	0x16e59
000169bc	31 c9	xorl	%ecx, %ecx
000169be	c7 44 24 20 00 00 00 00	movl	$P24C_SW_1ST_VECTOR_NUM, 0x20(%esp)
000169c6	39 fa	cmpl	%edi, %edx
000169c8	0f 84 94 03 00 00	je	0x16d62
000169ce	39 f9	cmpl	%edi, %ecx
000169d0	8b 46 20	movl	0x20(%esi), %eax
000169d3	89 cb	movl	%ecx, %ebx
000169d5	0f 85 9e 00 00 00	jne	0x16a79
000169db	8b 4c c6 10	movl	0x10(%esi,%eax,8), %ecx
000169df	89 4c c6 0c	movl	%ecx, 0xc(%esi,%eax,8)
000169e3	83 64 c6 10 00	andl	$0x0, 0x10(%esi,%eax,8)
000169e8	89 da	movl	%ebx, %edx
000169ea	31 c9	xorl	%ecx, %ecx
000169ec	8b 44 24 20	movl	0x20(%esp), %eax
000169f0	89 44 24 1c	movl	%eax, 0x1c(%esp)
000169f4	c7 44 24 20 00 00 00 00	movl	$P24C_SW_1ST_VECTOR_NUM, 0x20(%esp)
000169fc	e9 61 03 00 00	jmp	0x16d62
00016a01	8d 82 68 9e 01 00	leal	__ZL26IG_STAMP_INDEX_TO_HWCS_LUT.62(%edx), %eax ## IG_STAMP_INDEX_TO_HWCS_LUT (.62)
00016a07	0f b6 30	movzbl	P24C_SW_1ST_VECTOR_NUM(%eax), %esi
00016a0a	80 3d e8 c8 00 00 00	cmpb	$0x0, _gPerfLogEnable
00016a11	0f 85 35 05 00 00	jne	0x16f4c
00016a17	89 e8	movl	%ebp, %eax
00016a19	83 c0 44	addl	$0x44, %eax
00016a1c	8b 4d 44	movl	0x44(%ebp), %ecx
00016a1f	8b 55 48	movl	0x48(%ebp), %edx
00016a22	89 55 08	movl	%edx, 0x8(%ebp)
00016a25	89 4d 04	movl	%ecx, 0x4(%ebp)
00016a28	89 c1	movl	%eax, %ecx
00016a2a	83 e1 f0	andl	$-0x10, %ecx
00016a2d	83 e0 0f	andl	$0xf, %eax
00016a30	83 c0 4f	addl	$0x4f, %eax
00016a33	83 e0 d0	andl	$-0x30, %eax
00016a36	01 c8	addl	%ecx, %eax
00016a38	8b 54 24 1c	movl	0x1c(%esp), %edx
00016a3c	39 c1	cmpl	%eax, %ecx
00016a3e	73 08	jae	0x16a48
00016a40	0f ae 39	clflush	P24C_SW_1ST_VECTOR_NUM(%ecx)
00016a43	83 c1 10	addl	$0x10, %ecx
00016a46	eb f4	jmp	0x16a3c
00016a48	c7 05 20 c0 e0 ff 01 00 00 00	movl	$0x1, -0x1f3fe0
00016a52	8b 84 b2 40 04 00 00	movl	0x440(%edx,%esi,4), %eax
00016a59	8b 08	movl	P24C_SW_1ST_VECTOR_NUM(%eax), %ecx
00016a5b	89 7c 24 04	movl	%edi, 0x4(%esp)
00016a5f	89 04 24	movl	%eax, P24C_SW_1ST_VECTOR_NUM(%esp)
00016a62	ff 51 04	calll	*0x4(%ecx)
00016a65	e9 ef 03 00 00	jmp	0x16e59
00016a6a	31 ff	xorl	%edi, %edi
00016a6c	31 c9	xorl	%ecx, %ecx
00016a6e	31 d2	xorl	%edx, %edx
00016a70	31 c0	xorl	%eax, %eax
00016a72	31 ed	xorl	%ebp, %ebp
00016a74	e9 3f 03 00 00	jmp	0x16db8
00016a79	89 5c 24 28	movl	%ebx, 0x28(%esp)
00016a7d	29 c5	subl	%eax, %ebp
00016a7f	8b 44 ee 0c	movl	0xc(%esi,%ebp,8), %eax
00016a83	85 c0	testl	%eax, %eax
00016a85	0f 84 08 02 00 00	je	0x16c93
00016a8b	89 f9	movl	%edi, %ecx
00016a8d	8b 38	movl	P24C_SW_1ST_VECTOR_NUM(%eax), %edi
00016a8f	89 f8	movl	%edi, %eax
00016a91	83 e0 f0	andl	$-0x10, %eax
00016a94	89 fd	movl	%edi, %ebp
00016a96	83 e5 0f	andl	$0xf, %ebp
00016a99	83 c5 2f	addl	$0x2f, %ebp
00016a9c	83 e5 f0	andl	$-0x10, %ebp
00016a9f	01 c5	addl	%eax, %ebp
00016aa1	39 e8	cmpl	%ebp, %eax
00016aa3	0f 83 67 01 00 00	jae	0x16c10
00016aa9	0f ae 38	clflush	P24C_SW_1ST_VECTOR_NUM(%eax)
00016aac	83 c0 10	addl	$0x10, %eax
00016aaf	eb f0	jmp	0x16aa1
00016ab1	31 c0	xorl	%eax, %eax
00016ab3	48	decl	%eax
00016ab4	31 d2	xorl	%edx, %edx
00016ab6	31 ff	xorl	%edi, %edi
00016ab8	47	incl	%edi
00016ab9	89 fb	movl	%edi, %ebx
00016abb	29 cb	subl	%ecx, %ebx
00016abd	8b 6c de 0c	movl	0xc(%esi,%ebx,8), %ebp
00016ac1	85 ed	testl	%ebp, %ebp
00016ac3	74 6e	je	0x16b33
00016ac5	8b 5d 00	movl	(%ebp), %ebx
00016ac8	31 ed	xorl	%ebp, %ebp
00016aca	85 db	testl	%ebx, %ebx
00016acc	74 57	je	0x16b25
00016ace	89 d9	movl	%ebx, %ecx
00016ad0	83 e1 f0	andl	$-0x10, %ecx
00016ad3	89 dd	movl	%ebx, %ebp
00016ad5	83 e5 0f	andl	$0xf, %ebp
00016ad8	83 c5 2f	addl	$0x2f, %ebp
00016adb	83 e5 f0	andl	$-0x10, %ebp
00016ade	01 cd	addl	%ecx, %ebp
00016ae0	39 e9	cmpl	%ebp, %ecx
00016ae2	73 08	jae	0x16aec
00016ae4	0f ae 39	clflush	P24C_SW_1ST_VECTOR_NUM(%ecx)
00016ae7	83 c1 10	addl	$0x10, %ecx
00016aea	eb f4	jmp	0x16ae0
00016aec	39 43 18	cmpl	%eax, 0x18(%ebx)
00016aef	bd 00 00 00 00	movl	$P24C_SW_1ST_VECTOR_NUM, %ebp
00016af4	75 07	jne	0x16afd
00016af6	33 13	xorl	P24C_SW_1ST_VECTOR_NUM(%ebx), %edx
00016af8	0b 53 04	orl	0x4(%ebx), %edx
00016afb	74 28	je	0x16b25
00016afd	89 f8	movl	%edi, %eax
00016aff	2b 46 20	subl	0x20(%esi), %eax
00016b02	8b 44 c6 0c	movl	0xc(%esi,%eax,8), %eax
00016b06	8b 0e	movl	P24C_SW_1ST_VECTOR_NUM(%esi), %ecx
00016b08	89 7c 24 10	movl	%edi, 0x10(%esp)
00016b0c	89 44 24 04	movl	%eax, 0x4(%esp)
00016b10	89 34 24	movl	%esi, P24C_SW_1ST_VECTOR_NUM(%esp)
00016b13	83 64 24 0c 00	andl	$0x0, 0xc(%esp)
00016b18	83 64 24 08 00	andl	$0x0, 0x8(%esp)
00016b1d	ff 51 30	calll	*0x30(%ecx)
00016b20	ff 4b 24	decl	0x24(%ebx)
00016b23	89 fd	movl	%edi, %ebp
00016b25	8b 4e 20	movl	0x20(%esi), %ecx
00016b28	29 cf	subl	%ecx, %edi
00016b2a	83 64 fe 0c 00	andl	$0x0, 0xc(%esi,%edi,8)
00016b2f	89 fb	movl	%edi, %ebx
00016b31	eb 02	jmp	0x16b35
00016b33	31 ed	xorl	%ebp, %ebp
00016b35	8b 44 de 10	movl	0x10(%esi,%ebx,8), %eax
00016b39	85 c0	testl	%eax, %eax
00016b3b	74 58	je	0x16b95
00016b3d	8b 10	movl	P24C_SW_1ST_VECTOR_NUM(%eax), %edx
00016b3f	85 d2	testl	%edx, %edx
00016b41	74 24	je	0x16b67
00016b43	89 d1	movl	%edx, %ecx
00016b45	83 e1 f0	andl	$-0x10, %ecx
00016b48	89 d0	movl	%edx, %eax
00016b4a	83 e0 0f	andl	$0xf, %eax
00016b4d	83 c0 2f	addl	$0x2f, %eax
00016b50	83 e0 f0	andl	$-0x10, %eax
00016b53	01 c8	addl	%ecx, %eax
00016b55	39 c1	cmpl	%eax, %ecx
00016b57	73 08	jae	0x16b61
00016b59	0f ae 39	clflush	P24C_SW_1ST_VECTOR_NUM(%ecx)
00016b5c	83 c1 10	addl	$0x10, %ecx
00016b5f	eb f4	jmp	0x16b55
00016b61	ff 4a 24	decl	0x24(%edx)
00016b64	8b 4e 20	movl	0x20(%esi), %ecx
00016b67	31 ff	xorl	%edi, %edi
00016b69	47	incl	%edi
00016b6a	89 f8	movl	%edi, %eax
00016b6c	29 c8	subl	%ecx, %eax
00016b6e	8b 44 c6 10	movl	0x10(%esi,%eax,8), %eax
00016b72	8b 0e	movl	P24C_SW_1ST_VECTOR_NUM(%esi), %ecx
00016b74	89 7c 24 10	movl	%edi, 0x10(%esp)
00016b78	89 6c 24 08	movl	%ebp, 0x8(%esp)
00016b7c	89 44 24 04	movl	%eax, 0x4(%esp)
00016b80	89 34 24	movl	%esi, P24C_SW_1ST_VECTOR_NUM(%esp)
00016b83	83 64 24 0c 00	andl	$0x0, 0xc(%esp)
00016b88	ff 51 30	calll	*0x30(%ecx)
00016b8b	8b 4e 20	movl	0x20(%esi), %ecx
00016b8e	29 cf	subl	%ecx, %edi
00016b90	83 64 fe 10 00	andl	$0x0, 0x10(%esi,%edi,8)
00016b95	8b 44 ce 0c	movl	0xc(%esi,%ecx,8), %eax
00016b99	85 c0	testl	%eax, %eax
00016b9b	74 08	je	0x16ba5
00016b9d	8b 00	movl	P24C_SW_1ST_VECTOR_NUM(%eax), %eax
00016b9f	ff 48 24	decl	0x24(%eax)
00016ba2	8b 4e 20	movl	0x20(%esi), %ecx
00016ba5	8b 44 ce 10	movl	0x10(%esi,%ecx,8), %eax
00016ba9	85 c0	testl	%eax, %eax
00016bab	74 08	je	0x16bb5
00016bad	8b 00	movl	P24C_SW_1ST_VECTOR_NUM(%eax), %eax
00016baf	ff 48 24	decl	0x24(%eax)
00016bb2	8b 4e 20	movl	0x20(%esi), %ecx
00016bb5	31 c0	xorl	%eax, %eax
00016bb7	40	incl	%eax
00016bb8	29 c8	subl	%ecx, %eax
00016bba	89 46 20	movl	%eax, 0x20(%esi)
00016bbd	8b 06	movl	P24C_SW_1ST_VECTOR_NUM(%esi), %eax
00016bbf	8d 4c 24 38	leal	0x38(%esp), %ecx
00016bc3	89 4c 24 08	movl	%ecx, 0x8(%esp)
00016bc7	89 34 24	movl	%esi, P24C_SW_1ST_VECTOR_NUM(%esp)
00016bca	c7 44 24 04 80 00 00 00	movl	$0x80, 0x4(%esp)
00016bd2	ff 50 18	calll	*0x18(%eax)
00016bd5	e9 7f 02 00 00	jmp	0x16e59
00016bda	8b 01	movl	P24C_SW_1ST_VECTOR_NUM(%ecx), %eax
00016bdc	8b 49 18	movl	0x18(%ecx), %ecx
00016bdf	89 4c 24 1c	movl	%ecx, 0x1c(%esp)
00016be3	89 e9	movl	%ebp, %ecx
00016be5	2b 4e 20	subl	0x20(%esi), %ecx
00016be8	8b 4c ce 10	movl	0x10(%esi,%ecx,8), %ecx
00016bec	85 c9	testl	%ecx, %ecx
00016bee	74 79	je	0x16c69
00016bf0	8b 11	movl	P24C_SW_1ST_VECTOR_NUM(%ecx), %edx
00016bf2	89 d1	movl	%edx, %ecx
00016bf4	83 e1 f0	andl	$-0x10, %ecx
00016bf7	89 d7	movl	%edx, %edi
00016bf9	83 e7 0f	andl	$0xf, %edi
00016bfc	83 c7 2f	addl	$0x2f, %edi
00016bff	83 e7 f0	andl	$-0x10, %edi
00016c02	01 cf	addl	%ecx, %edi
00016c04	39 f9	cmpl	%edi, %ecx
00016c06	73 48	jae	0x16c50
00016c08	0f ae 39	clflush	P24C_SW_1ST_VECTOR_NUM(%ecx)
00016c0b	83 c1 10	addl	$0x10, %ecx
00016c0e	eb f4	jmp	0x16c04
00016c10	8b 07	movl	P24C_SW_1ST_VECTOR_NUM(%edi), %eax
00016c12	89 44 24 2c	movl	%eax, 0x2c(%esp)
00016c16	8b 5f 18	movl	0x18(%edi), %ebx
00016c19	31 c0	xorl	%eax, %eax
00016c1b	40	incl	%eax
00016c1c	2b 46 20	subl	0x20(%esi), %eax
00016c1f	8b 44 c6 10	movl	0x10(%esi,%eax,8), %eax
00016c23	85 c0	testl	%eax, %eax
00016c25	89 5c 24 30	movl	%ebx, 0x30(%esp)
00016c29	0f 84 c9 00 00 00	je	0x16cf8
00016c2f	8b 00	movl	P24C_SW_1ST_VECTOR_NUM(%eax), %eax
00016c31	89 c5	movl	%eax, %ebp
00016c33	83 e5 f0	andl	$-0x10, %ebp
00016c36	89 c7	movl	%eax, %edi
00016c38	83 e7 0f	andl	$0xf, %edi
00016c3b	83 c7 2f	addl	$0x2f, %edi
00016c3e	83 e7 f0	andl	$-0x10, %edi
00016c41	01 ef	addl	%ebp, %edi
00016c43	39 fd	cmpl	%edi, %ebp
00016c45	73 18	jae	0x16c5f
00016c47	0f ae 7d 00	clflush	(%ebp)
00016c4b	83 c5 10	addl	$0x10, %ebp
00016c4e	eb f3	jmp	0x16c43
00016c50	8b 0a	movl	P24C_SW_1ST_VECTOR_NUM(%edx), %ecx
00016c52	89 4c 24 28	movl	%ecx, 0x28(%esp)
00016c56	8b 4a 18	movl	0x18(%edx), %ecx
00016c59	8b 7c 24 2c	movl	0x2c(%esp), %edi
00016c5d	eb 14	jmp	0x16c73
00016c5f	8b 28	movl	P24C_SW_1ST_VECTOR_NUM(%eax), %ebp
00016c61	8b 78 18	movl	0x18(%eax), %edi
00016c64	e9 93 00 00 00	jmp	0x16cfc
00016c69	c7 44 24 28 00 00 00 00	movl	$P24C_SW_1ST_VECTOR_NUM, 0x28(%esp)
00016c71	31 c9	xorl	%ecx, %ecx
00016c73	39 f8	cmpl	%edi, %eax
00016c75	75 25	jne	0x16c9c
00016c77	89 4c 24 20	movl	%ecx, 0x20(%esp)
00016c7b	89 5c 24 24	movl	%ebx, 0x24(%esp)
00016c7f	8b 46 20	movl	0x20(%esi), %eax
00016c82	83 64 c6 0c 00	andl	$0x0, 0xc(%esi,%eax,8)
00016c87	83 64 c6 10 00	andl	$0x0, 0x10(%esi,%eax,8)
00016c8c	29 c5	subl	%eax, %ebp
00016c8e	89 6e 20	movl	%ebp, 0x20(%esi)
00016c91	89 fa	movl	%edi, %edx
00016c93	8b 4c 24 28	movl	0x28(%esp), %ecx
00016c97	e9 c6 00 00 00	jmp	0x16d62
00016c9c	c7 44 24 20 00 00 00 00	movl	$P24C_SW_1ST_VECTOR_NUM, 0x20(%esp)
00016ca4	39 7c 24 28	cmpl	%edi, 0x28(%esp)
00016ca8	bf 00 00 00 00	movl	$P24C_SW_1ST_VECTOR_NUM, %edi
00016cad	b9 00 00 00 00	movl	$P24C_SW_1ST_VECTOR_NUM, %ecx
00016cb2	ba 00 00 00 00	movl	$P24C_SW_1ST_VECTOR_NUM, %edx
00016cb7	b8 00 00 00 00	movl	$P24C_SW_1ST_VECTOR_NUM, %eax
00016cbc	bd 00 00 00 00	movl	$P24C_SW_1ST_VECTOR_NUM, %ebp
00016cc1	0f 85 f1 00 00 00	jne	0x16db8
00016cc7	89 5c 24 24	movl	%ebx, 0x24(%esp)
00016ccb	8b 46 20	movl	0x20(%esi), %eax
00016cce	83 64 c6 0c 00	andl	$0x0, 0xc(%esi,%eax,8)
00016cd3	83 64 c6 10 00	andl	$0x0, 0x10(%esi,%eax,8)
00016cd8	31 c9	xorl	%ecx, %ecx
00016cda	41	incl	%ecx
00016cdb	29 c1	subl	%eax, %ecx
00016cdd	89 4e 20	movl	%ecx, 0x20(%esi)
00016ce0	8b 44 ce 10	movl	0x10(%esi,%ecx,8), %eax
00016ce4	89 44 ce 0c	movl	%eax, 0xc(%esi,%ecx,8)
00016ce8	83 64 ce 10 00	andl	$0x0, 0x10(%esi,%ecx,8)
00016ced	31 c9	xorl	%ecx, %ecx
00016cef	8b 54 24 2c	movl	0x2c(%esp), %edx
00016cf3	e9 fc fc ff ff	jmp	0x169f4
00016cf8	31 ed	xorl	%ebp, %ebp
00016cfa	31 ff	xorl	%edi, %edi
00016cfc	89 cb	movl	%ecx, %ebx
00016cfe	39 4c 24 2c	cmpl	%ecx, 0x2c(%esp)
00016d02	75 27	jne	0x16d2b
00016d04	8b 46 20	movl	0x20(%esi), %eax
00016d07	83 64 c6 0c 00	andl	$0x0, 0xc(%esi,%eax,8)
00016d0c	83 64 c6 10 00	andl	$0x0, 0x10(%esi,%eax,8)
00016d11	31 c9	xorl	%ecx, %ecx
00016d13	41	incl	%ecx
00016d14	29 c1	subl	%eax, %ecx
00016d16	89 4e 20	movl	%ecx, 0x20(%esi)
00016d19	89 da	movl	%ebx, %edx
00016d1b	89 e9	movl	%ebp, %ecx
00016d1d	8b 44 24 30	movl	0x30(%esp), %eax
00016d21	89 44 24 1c	movl	%eax, 0x1c(%esp)
00016d25	89 7c 24 20	movl	%edi, 0x20(%esp)
00016d29	eb 37	jmp	0x16d62
00016d2b	39 dd	cmpl	%ebx, %ebp
00016d2d	8b 4c 24 28	movl	0x28(%esp), %ecx
00016d31	75 2f	jne	0x16d62
00016d33	8b 46 20	movl	0x20(%esi), %eax
00016d36	83 64 c6 0c 00	andl	$0x0, 0xc(%esi,%eax,8)
00016d3b	83 64 c6 10 00	andl	$0x0, 0x10(%esi,%eax,8)
00016d40	31 c9	xorl	%ecx, %ecx
00016d42	41	incl	%ecx
00016d43	29 c1	subl	%eax, %ecx
00016d45	89 4e 20	movl	%ecx, 0x20(%esi)
00016d48	8b 44 ce 10	movl	0x10(%esi,%ecx,8), %eax
00016d4c	89 44 ce 0c	movl	%eax, 0xc(%esi,%ecx,8)
00016d50	83 64 ce 10 00	andl	$0x0, 0x10(%esi,%ecx,8)
00016d55	31 c9	xorl	%ecx, %ecx
00016d57	89 da	movl	%ebx, %edx
00016d59	8b 44 24 30	movl	0x30(%esp), %eax
00016d5d	e9 8e fc ff ff	jmp	0x169f0
00016d62	85 d2	testl	%edx, %edx
00016d64	74 30	je	0x16d96
00016d66	89 4c 24 28	movl	%ecx, 0x28(%esp)
00016d6a	8b 46 20	movl	0x20(%esi), %eax
00016d6d	8b 74 c6 0c	movl	0xc(%esi,%eax,8), %esi
00016d71	8b 5e 2c	movl	0x2c(%esi), %ebx
00016d74	8b 7e 30	movl	0x30(%esi), %edi
00016d77	a1 ec c3 e0 ff	movl	0xffe0c3ec, %eax
00016d7c	8b 2d e8 c3 e0 ff	movl	-0x1f3c18, %ebp
00016d82	3b 05 ec c3 e0 ff	cmpl	-0x1f3c14, %eax
00016d88	75 ed	jne	0x16d77
00016d8a	89 d9	movl	%ebx, %ecx
00016d8c	09 f9	orl	%edi, %ecx
00016d8e	74 16	je	0x16da6
00016d90	29 dd	subl	%ebx, %ebp
00016d92	19 f8	sbbl	%edi, %eax
00016d94	eb 16	jmp	0x16dac
00016d96	31 d2	xorl	%edx, %edx
00016d98	8b 7c 24 1c	movl	0x1c(%esp), %edi
00016d9c	31 c0	xorl	%eax, %eax
00016d9e	31 ed	xorl	%ebp, %ebp
00016da0	8b 5c 24 24	movl	0x24(%esp), %ebx
00016da4	eb 12	jmp	0x16db8
00016da6	2b 6e 24	subl	0x24(%esi), %ebp
00016da9	1b 46 28	sbbl	0x28(%esi), %eax
00016dac	8b 7c 24 1c	movl	0x1c(%esp), %edi
00016db0	8b 5c 24 24	movl	0x24(%esp), %ebx
00016db4	8b 4c 24 28	movl	0x28(%esp), %ecx
00016db8	89 15 84 c1 e0 ff	movl	%edx, -0x1f3e7c
00016dbe	89 3d 88 c1 e0 ff	movl	%edi, -0x1f3e78
00016dc4	89 2d 8c c1 e0 ff	movl	%ebp, -0x1f3e74
00016dca	a3 90 c1 e0 ff	movl	%eax, 0xffe0c190
00016dcf	89 0d 94 c1 e0 ff	movl	%ecx, -0x1f3e6c
00016dd5	8b 44 24 20	movl	0x20(%esp), %eax
00016dd9	a3 98 c1 e0 ff	movl	%eax, 0xffe0c198
00016dde	89 1d 80 00 e0 fe	movl	%ebx, -0x11fff80
00016de4	eb 73	jmp	0x16e59
00016de6	0f b6 44 24 34	movzbl	0x34(%esp), %eax
00016deb	89 44 24 08	movl	%eax, 0x8(%esp)
00016def	83 64 24 10 00	andl	$0x0, 0x10(%esp)
00016df4	83 64 24 0c 00	andl	$0x0, 0xc(%esp)
00016df9	83 64 24 04 00	andl	$0x0, 0x4(%esp)
00016dfe	83 24 24 00	andl	$0x0, P24C_SW_1ST_VECTOR_NUM(%esp)
00016e02	89 f1	movl	%esi, %ecx
00016e04	ba 09 00 a7 85	movl	$0x85a70009, %edx
00016e09	e8 2e 1b 00 00	calll	__ZN17IGMicroController27perfLogAppendKdebugConstantEjyjjj ## IGMicroController::perfLogAppendKdebugConstant(unsigned int, unsigned long long, unsigned int, unsigned int, unsigned int)
00016e0e	e9 26 f0 ff ff	jmp	0x15e39
00016e13	e8 3a ae ff ff	calll	_assertionFailed
00016e18	8b 46 20	movl	0x20(%esi), %eax
00016e1b	8b 44 c6 0c	movl	0xc(%esi,%eax,8), %eax
00016e1f	85 c0	testl	%eax, %eax
00016e21	0f 85 10 f3 ff ff	jne	0x16137
00016e27	e8 26 ae ff ff	calll	_assertionFailed
00016e2c	8b 46 20	movl	0x20(%esi), %eax
00016e2f	8b 44 c6 0c	movl	0xc(%esi,%eax,8), %eax
00016e33	85 c0	testl	%eax, %eax
00016e35	74 09	je	0x16e40
00016e37	8b 08	movl	P24C_SW_1ST_VECTOR_NUM(%eax), %ecx
00016e39	8b 01	movl	P24C_SW_1ST_VECTOR_NUM(%ecx), %eax
00016e3b	8b 51 18	movl	0x18(%ecx), %edx
00016e3e	eb 05	jmp	0x16e45
00016e40	31 c0	xorl	%eax, %eax
00016e42	31 d2	xorl	%edx, %edx
00016e44	4a	decl	%edx
00016e45	89 15 84 c1 e0 ff	movl	%edx, -0x1f3e7c
00016e4b	a3 88 c1 e0 ff	movl	%eax, 0xffe0c188
00016e50	80 3d e8 c8 00 00 00	cmpb	$0x0, _gPerfLogEnable
00016e57	75 6a	jne	0x16ec3
00016e59	8b 44 24 34	movl	0x34(%esp), %eax
00016e5d	89 c1	movl	%eax, %ecx
00016e5f	81 e1 00 ff ff ff	andl	$0xffffff00, %ecx
00016e65	0d 80 00 00 00	orl	$0x80, %eax
00016e6a	0f b6 c0	movzbl	%al, %eax
00016e6d	09 c1	orl	%eax, %ecx
00016e6f	89 0d 80 c1 e0 ff	movl	%ecx, -0x1f3e80
00016e75	80 3d e8 c8 00 00 00	cmpb	$0x0, _gPerfLogEnable
00016e7c	75 1c	jne	0x16e9a
00016e7e	a1 90 c5 e0 ff	movl	0xffe0c590, %eax
00016e83	a3 90 c5 e0 ff	movl	%eax, 0xffe0c590
00016e88	c7 05 b0 00 e0 fe 00 00 00 00	movl	$P24C_SW_1ST_VECTOR_NUM, -0x11fff50
00016e92	83 c4 7c	addl	$0x7c, %esp
00016e95	5e	popl	%esi
00016e96	5f	popl	%edi
00016e97	5b	popl	%ebx
00016e98	5d	popl	%ebp
00016e99	c3	retl
00016e9a	8b 0d f8 c8 00 00	movl	__ZN17IGMicroController9fInstanceE, %ecx ## IGMicroController::fInstance
00016ea0	89 44 24 08	movl	%eax, 0x8(%esp)
00016ea4	83 64 24 10 00	andl	$0x0, 0x10(%esp)
00016ea9	83 64 24 0c 00	andl	$0x0, 0xc(%esp)
00016eae	83 64 24 04 00	andl	$0x0, 0x4(%esp)
00016eb3	83 24 24 00	andl	$0x0, P24C_SW_1ST_VECTOR_NUM(%esp)
00016eb7	ba 0a 00 a7 85	movl	$0x85a7000a, %edx
00016ebc	e8 7b 1a 00 00	calll	__ZN17IGMicroController27perfLogAppendKdebugConstantEjyjjj ## IGMicroController::perfLogAppendKdebugConstant(unsigned int, unsigned long long, unsigned int, unsigned int, unsigned int)
00016ec1	eb bb	jmp	0x16e7e
00016ec3	8b 0d f8 c8 00 00	movl	__ZN17IGMicroController9fInstanceE, %ecx ## IGMicroController::fInstance
00016ec9	0f b6 76 24	movzbl	0x24(%esi), %esi
00016ecd	89 44 24 10	movl	%eax, 0x10(%esp)
00016ed1	89 54 24 0c	movl	%edx, 0xc(%esp)
00016ed5	89 74 24 08	movl	%esi, 0x8(%esp)
00016ed9	83 64 24 04 00	andl	$0x0, 0x4(%esp)
00016ede	83 24 24 00	andl	$0x0, P24C_SW_1ST_VECTOR_NUM(%esp)
00016ee2	ba 50 00 a7 85	movl	$0x85a70050, %edx
00016ee7	e8 50 1a 00 00	calll	__ZN17IGMicroController27perfLogAppendKdebugConstantEjyjjj ## IGMicroController::perfLogAppendKdebugConstant(unsigned int, unsigned long long, unsigned int, unsigned int, unsigned int)
00016eec	e9 68 ff ff ff	jmp	0x16e59
00016ef1	8b 0d f8 c8 00 00	movl	__ZN17IGMicroController9fInstanceE, %ecx ## IGMicroController::fInstance
00016ef7	c7 44 24 10 fe 00 00 00	movl	$IOMMU_VECTOR_2, 0x10(%esp)
00016eff	83 64 24 0c 00	andl	$0x0, 0xc(%esp)
00016f04	83 64 24 08 00	andl	$0x0, 0x8(%esp)
00016f09	83 64 24 04 00	andl	$0x0, 0x4(%esp)
00016f0e	83 24 24 00	andl	$0x0, P24C_SW_1ST_VECTOR_NUM(%esp)
00016f12	ba 90 01 a7 85	movl	$0x85a70190, %edx
00016f17	e8 20 1a 00 00	calll	__ZN17IGMicroController27perfLogAppendKdebugConstantEjyjjj ## IGMicroController::perfLogAppendKdebugConstant(unsigned int, unsigned long long, unsigned int, unsigned int, unsigned int)
00016f1c	e9 30 f6 ff ff	jmp	0x16551
00016f21	8b 0d f8 c8 00 00	movl	__ZN17IGMicroController9fInstanceE, %ecx ## IGMicroController::fInstance
00016f27	89 54 24 0c	movl	%edx, 0xc(%esp)
00016f2b	89 74 24 08	movl	%esi, 0x8(%esp)
00016f2f	83 64 24 10 00	andl	$0x0, 0x10(%esp)
00016f34	83 64 24 04 00	andl	$0x0, 0x4(%esp)
00016f39	83 24 24 00	andl	$0x0, P24C_SW_1ST_VECTOR_NUM(%esp)
00016f3d	ba 2c 00 a7 85	movl	$0x85a7002c, %edx
00016f42	e8 f5 19 00 00	calll	__ZN17IGMicroController27perfLogAppendKdebugConstantEjyjjj ## IGMicroController::perfLogAppendKdebugConstant(unsigned int, unsigned long long, unsigned int, unsigned int, unsigned int)
00016f47	e9 56 f7 ff ff	jmp	0x166a2
00016f4c	8b 0d f8 c8 00 00	movl	__ZN17IGMicroController9fInstanceE, %ecx ## IGMicroController::fInstance
00016f52	89 54 24 0c	movl	%edx, 0xc(%esp)
00016f56	89 74 24 08	movl	%esi, 0x8(%esp)
00016f5a	83 64 24 10 00	andl	$0x0, 0x10(%esp)
00016f5f	83 64 24 04 00	andl	$0x0, 0x4(%esp)
00016f64	83 24 24 00	andl	$0x0, P24C_SW_1ST_VECTOR_NUM(%esp)
00016f68	ba 28 00 a7 85	movl	$0x85a70028, %edx
00016f6d	e8 ca 19 00 00	calll	__ZN17IGMicroController27perfLogAppendKdebugConstantEjyjjj ## IGMicroController::perfLogAppendKdebugConstant(unsigned int, unsigned long long, unsigned int, unsigned int, unsigned int)
00016f72	e9 a0 fa ff ff	jmp	0x16a17
00016f77	8b 0d f8 c8 00 00	movl	__ZN17IGMicroController9fInstanceE, %ecx ## IGMicroController::fInstance
00016f7d	8b 86 f0 43 00 00	movl	0x43f0(%esi), %eax
00016f83	8b 96 f4 43 00 00	movl	0x43f4(%esi), %edx
00016f89	8b b6 f8 43 00 00	movl	0x43f8(%esi), %esi
00016f8f	89 74 24 10	movl	%esi, 0x10(%esp)
00016f93	89 54 24 0c	movl	%edx, 0xc(%esp)
00016f97	89 44 24 08	movl	%eax, 0x8(%esp)
00016f9b	83 64 24 04 00	andl	$0x0, 0x4(%esp)
00016fa0	83 24 24 00	andl	$0x0, P24C_SW_1ST_VECTOR_NUM(%esp)
00016fa4	ba 58 00 a7 85	movl	$0x85a70058, %edx
00016fa9	e8 8e 19 00 00	calll	__ZN17IGMicroController27perfLogAppendKdebugConstantEjyjjj ## IGMicroController::perfLogAppendKdebugConstant(unsigned int, unsigned long long, unsigned int, unsigned int, unsigned int)
00016fae	e9 df f5 ff ff	jmp	0x16592
00016fb3	90	nop
__ZNK10IGUkBitSetILj6EE12assertBoundsEj:
00016fb4	83 f9 06	cmpl	$0x6, %ecx
00016fb7	0f 83 95 ac ff ff	jae	_assertionFailed
00016fbd	c3	retl
__ZN17IGMicroController14createInstanceEv:
00016fbe	55	pushl	%ebp
00016fbf	53	pushl	%ebx
00016fc0	57	pushl	%edi
00016fc1	56	pushl	%esi
00016fc2	83 ec 1c	subl	$0x1c, %esp
00016fc5	83 3d f8 c8 00 00 00	cmpl	$0x0, __ZN17IGMicroController9fInstanceE ## IGMicroController::fInstance
00016fcc	0f 85 f4 04 00 00	jne	0x174c6
00016fd2	83 25 1d c9 00 00 00	andl	$0x0, 0xc91d
00016fd9	83 25 21 c9 00 00 00	andl	$0x0, 0xc921
00016fe0	83 25 25 c9 00 00 00	andl	$0x0, 0xc925
00016fe7	83 25 29 c9 00 00 00	andl	$0x0, 0xc929
00016fee	83 25 2d c9 00 00 00	andl	$0x0, 0xc92d
00016ff5	83 25 31 c9 00 00 00	andl	$0x0, 0xc931
00016ffc	83 25 35 c9 00 00 00	andl	$0x0, 0xc935
00017003	83 25 39 c9 00 00 00	andl	$0x0, 0xc939
0001700a	83 25 3d c9 00 00 00	andl	$0x0, 0xc93d
00017011	6a 0c	pushl	$0xc
00017013	59	popl	%ecx
00017014	31 c0	xorl	%eax, %eax
00017016	bf 41 c9 00 00	movl	$0xc941, %edi
0001701b	f3 ab	rep		stosl	%eax, %es:(%edi)
0001701d	83 25 71 c9 00 00 00	andl	$0x0, 0xc971
00017024	83 25 75 c9 00 00 00	andl	$0x0, 0xc975
0001702b	83 25 79 c9 00 00 00	andl	$0x0, 0xc979
00017032	83 25 7d c9 00 00 00	andl	$0x0, 0xc97d
00017039	83 25 81 c9 00 00 00	andl	$0x0, 0xc981
00017040	83 25 85 c9 00 00 00	andl	$0x0, 0xc985
00017047	83 25 89 c9 00 00 00	andl	$0x0, 0xc989
0001704e	83 25 8d c9 00 00 00	andl	$0x0, 0xc98d
00017055	83 25 91 c9 00 00 00	andl	$0x0, 0xc991
0001705c	83 25 95 c9 00 00 00	andl	$0x0, 0xc995
00017063	83 25 99 c9 00 00 00	andl	$0x0, 0xc999
0001706a	83 25 9d c9 00 00 00	andl	$0x0, 0xc99d
00017071	83 25 a1 c9 00 00 00	andl	$0x0, 0xc9a1
00017078	83 25 a5 c9 00 00 00	andl	$0x0, 0xc9a5
0001707f	83 25 a9 c9 00 00 00	andl	$0x0, 0xc9a9
00017086	83 25 ad c9 00 00 00	andl	$0x0, 0xc9ad
0001708d	83 25 b1 c9 00 00 00	andl	$0x0, 0xc9b1
00017094	83 25 b5 c9 00 00 00	andl	$0x0, 0xc9b5
0001709b	83 25 b9 c9 00 00 00	andl	$0x0, 0xc9b9
000170a2	6a ec	pushl	$-0x14
000170a4	58	popl	%eax
000170a5	83 a0 d1 c9 00 00 00	andl	$0x0, 0xc9d1(%eax)
000170ac	83 c0 04	addl	$0x4, %eax
000170af	75 f4	jne	0x170a5
000170b1	be 00 fe ff ff	movl	$0xfffffe00, %esi
000170b6	bf 00 01 00 00	movl	$0x100, %edi
000170bb	8d 86 d1 cb 00 00	leal	0xcbd1(%esi), %eax
000170c1	89 7c 24 04	movl	%edi, 0x4(%esp)
000170c5	89 04 24	movl	%eax, P24C_SW_1ST_VECTOR_NUM(%esp)
000170c8	e8 4f a9 ff ff	calll	___bzero
000170cd	01 fe	addl	%edi, %esi
000170cf	75 ea	jne	0x170bb
000170d1	c6 05 d1 c9 00 00 00	movb	$0x0, 0xc9d1
000170d8	0f b7 44 24 15	movzwl	0x15(%esp), %eax
000170dd	66 a3 d2 c9 00 00	movw	%ax, 0xc9d2
000170e3	8a 44 24 17	movb	0x17(%esp), %al
000170e7	a2 d4 c9 00 00	movb	%al, 0xc9d4
000170ec	c7 05 d5 c9 00 00 54 9a 01 00	movl	$__ZN18IGInterruptHandler34sfMainEngineInterruptDispatchTableE, 0xc9d5 ## IGInterruptHandler::sfMainEngineInterruptDispatchTable
000170f6	c6 05 f1 c9 00 00 01	movb	$0x1, 0xc9f1
000170fd	0f b7 44 24 15	movzwl	0x15(%esp), %eax
00017102	66 a3 f2 c9 00 00	movw	%ax, 0xc9f2
00017108	8a 44 24 17	movb	0x17(%esp), %al
0001710c	a2 f4 c9 00 00	movb	%al, 0xc9f4
00017111	c7 05 f5 c9 00 00 94 9a 01 00	movl	$__ZN18IGInterruptHandler37sfComputeEngineInterruptDispatchTableE, 0xc9f5 ## IGInterruptHandler::sfComputeEngineInterruptDispatchTable
0001711b	c6 05 49 ca 00 00 02	movb	$0x2, 0xca49
00017122	8a 44 24 17	movb	0x17(%esp), %al
00017126	a2 4c ca 00 00	movb	%al, 0xca4c
0001712b	0f b7 44 24 15	movzwl	0x15(%esp), %eax
00017130	66 a3 4a ca 00 00	movw	%ax, 0xca4a
00017136	c7 05 4d ca 00 00 d4 9a 01 00	movl	$__ZN18IGInterruptHandler34sfBlitEngineInterruptDispatchTableE, 0xca4d ## IGInterruptHandler::sfBlitEngineInterruptDispatchTable
00017140	b0 06	movb	$0x6, %al
00017142	a2 51 ca 00 00	movb	%al, 0xca51
00017147	8a 4c 24 17	movb	0x17(%esp), %cl
0001714b	88 0d 54 ca 00 00	movb	%cl, 0xca54
00017151	0f b7 4c 24 15	movzwl	0x15(%esp), %ecx
00017156	66 89 0d 52 ca 00 00	movw	%cx, 0xca52
0001715d	c7 05 55 ca 00 00 54 9b 01 00	movl	$__ZN18IGInterruptHandler45sfPowerManagementEngineInterruptDispatchTableE, 0xca55 ## IGInterruptHandler::sfPowerManagementEngineInterruptDispatchTable
00017167	a2 99 ca 00 00	movb	%al, 0xca99
0001716c	8a 4c 24 17	movb	0x17(%esp), %cl
00017170	88 0d 9c ca 00 00	movb	%cl, 0xca9c
00017176	0f b7 4c 24 15	movzwl	0x15(%esp), %ecx
0001717b	66 89 0d 9a ca 00 00	movw	%cx, 0xca9a
00017182	c7 05 9d ca 00 00 94 9b 01 00	movl	$__ZN18IGInterruptHandler28sfP24cInterruptDispatchTableE, 0xca9d ## IGInterruptHandler::sfP24cInterruptDispatchTable
0001718c	a2 69 ca 00 00	movb	%al, 0xca69
00017191	8a 44 24 17	movb	0x17(%esp), %al
00017195	a2 6c ca 00 00	movb	%al, 0xca6c
0001719a	0f b7 44 24 15	movzwl	0x15(%esp), %eax
0001719f	66 a3 6a ca 00 00	movw	%ax, 0xca6a
000171a5	c7 05 6d ca 00 00 d4 9b 01 00	movl	$__ZN18IGInterruptHandler30sfCryptoInterruptDispatchTableE, 0xca6d ## IGInterruptHandler::sfCryptoInterruptDispatchTable
000171af	c6 05 d1 ca 00 00 03	movb	$0x3, 0xcad1
000171b6	8a 44 24 17	movb	0x17(%esp), %al
000171ba	a2 d4 ca 00 00	movb	%al, 0xcad4
000171bf	0f b7 44 24 15	movzwl	0x15(%esp), %eax
000171c4	66 a3 d2 ca 00 00	movw	%ax, 0xcad2
000171ca	b8 14 9b 01 00	movl	$__ZN18IGInterruptHandler35sfMediaEngineInterruptDispatchTableE, %eax ## IGInterruptHandler::sfMediaEngineInterruptDispatchTable
000171cf	a3 d5 ca 00 00	movl	%eax, 0xcad5
000171d4	c6 05 e1 ca 00 00 04	movb	$0x4, 0xcae1
000171db	8a 4c 24 17	movb	0x17(%esp), %cl
000171df	88 0d e4 ca 00 00	movb	%cl, 0xcae4
000171e5	0f b7 4c 24 15	movzwl	0x15(%esp), %ecx
000171ea	66 89 0d e2 ca 00 00	movw	%cx, 0xcae2
000171f1	a3 e5 ca 00 00	movl	%eax, 0xcae5
000171f6	c6 05 c9 cb 00 00 05	movb	$0x5, 0xcbc9
000171fd	8a 4c 24 17	movb	0x17(%esp), %cl
00017201	88 0d cc cb 00 00	movb	%cl, 0xcbcc
00017207	0f b7 4c 24 15	movzwl	0x15(%esp), %ecx
0001720c	66 89 0d ca cb 00 00	movw	%cx, 0xcbca
00017213	a3 cd cb 00 00	movl	%eax, 0xcbcd
00017218	b8 d1 cb 00 00	movl	$0xcbd1, %eax
0001721d	c7 00 ff ff ff 7f	movl	$0x7fffffff, P24C_SW_1ST_VECTOR_NUM(%eax)
00017223	83 60 04 00	andl	$0x0, 0x4(%eax)
00017227	83 60 08 00	andl	$0x0, 0x8(%eax)
0001722b	83 60 0c 00	andl	$0x0, 0xc(%eax)
0001722f	83 48 10 ff	orl	$-0x1, 0x10(%eax)
00017233	c6 40 14 00	movb	$0x0, 0x14(%eax)
00017237	83 c0 20	addl	$0x20, %eax
0001723a	3d 11 cd 00 00	cmpl	$0xcd11, %eax
0001723f	75 dc	jne	0x1721d
00017241	83 25 11 cd 00 00 00	andl	$0x0, 0xcd11
00017248	83 25 15 cd 00 00 00	andl	$0x0, 0xcd15
0001724f	83 25 19 cd 00 00 00	andl	$0x0, 0xcd19
00017256	83 25 1d cd 00 00 00	andl	$0x0, 0xcd1d
0001725d	83 25 21 cd 00 00 00	andl	$0x0, 0xcd21
00017264	83 25 25 cd 00 00 00	andl	$0x0, 0xcd25
0001726b	83 25 29 cd 00 00 00	andl	$0x0, 0xcd29
00017272	83 25 2d cd 00 00 00	andl	$0x0, 0xcd2d
00017279	83 25 31 cd 00 00 00	andl	$0x0, 0xcd31
00017280	83 25 3d cd 00 00 00	andl	$0x0, 0xcd3d
00017287	6a ec	pushl	$-0x14
00017289	58	popl	%eax
0001728a	83 a0 55 cd 00 00 00	andl	$0x0, 0xcd55(%eax)
00017291	83 c0 04	addl	$0x4, %eax
00017294	75 f4	jne	0x1728a
00017296	b9 55 cd 00 00	movl	$0xcd55, %ecx
0001729b	e8 f8 cb ff ff	calll	__ZN21IGCommandStreamerBaseC2Ev ## IGCommandStreamerBase::IGCommandStreamerBase()
000172a0	c7 05 55 cd 00 00 04 9a 01 00	movl	$0x19a04, 0xcd55
000172aa	be b1 d7 00 00	movl	$0xd7b1, %esi
000172af	89 f1	movl	%esi, %ecx
000172b1	e8 d0 cb ff ff	calll	__ZN10IGUkBitSetILj64EE5resetEv ## IGUkBitSet<64u>::reset()
000172b6	83 66 08 00	andl	$0x0, 0x8(%esi)
000172ba	83 66 0c 00	andl	$0x0, 0xc(%esi)
000172be	83 66 10 00	andl	$0x0, 0x10(%esi)
000172c2	83 66 14 00	andl	$0x0, 0x14(%esi)
000172c6	c7 46 18 ff ff ff 7f	movl	$0x7fffffff, 0x18(%esi)
000172cd	83 66 1c 00	andl	$0x0, 0x1c(%esi)
000172d1	c6 46 20 00	movb	$0x0, 0x20(%esi)
000172d5	83 c6 24	addl	$0x24, %esi
000172d8	81 fe 41 d8 00 00	cmpl	$0xd841, %esi
000172de	75 cf	jne	0x172af
000172e0	6a fc	pushl	$-0x4
000172e2	58	popl	%eax
000172e3	c6 80 45 d8 00 00 00	movb	$0x0, 0xd845(%eax)
000172ea	40	incl	%eax
000172eb	75 f6	jne	0x172e3
000172ed	6a f0	pushl	$-0x10
000172ef	58	popl	%eax
000172f0	83 a0 55 d8 00 00 00	andl	$0x0, 0xd855(%eax)
000172f7	83 c0 04	addl	$0x4, %eax
000172fa	75 f4	jne	0x172f0
000172fc	6a f0	pushl	$-0x10
000172fe	58	popl	%eax
000172ff	83 a0 65 d8 00 00 00	andl	$0x0, 0xd865(%eax)
00017306	83 c0 04	addl	$0x4, %eax
00017309	75 f4	jne	0x172ff
0001730b	66 c7 05 69 d8 00 00 7f 00	movw	$0x7f, 0xd869
00017314	c6 05 6b d8 00 00 00	movb	$0x0, 0xd86b
0001731b	c7 05 6d d8 00 00 ff ff ff 7f	movl	$0x7fffffff, 0xd86d
00017325	6a f8	pushl	$-0x8
00017327	58	popl	%eax
00017328	83 a0 79 d8 00 00 00	andl	$0x0, 0xd879(%eax)
0001732f	83 c0 04	addl	$0x4, %eax
00017332	75 f4	jne	0x17328
00017334	c7 05 6d d8 00 00 ff ff ff 7f	movl	$0x7fffffff, 0xd86d
0001733e	b9 79 d8 00 00	movl	$0xd879, %ecx
00017343	e8 50 cb ff ff	calll	__ZN21IGCommandStreamerBaseC2Ev ## IGCommandStreamerBase::IGCommandStreamerBase()
00017348	b9 d5 e2 00 00	movl	$0xe2d5, %ecx
0001734d	e8 46 cb ff ff	calll	__ZN21IGCommandStreamerBaseC2Ev ## IGCommandStreamerBase::IGCommandStreamerBase()
00017352	be 31 ed 00 00	movl	$0xed31, %esi
00017357	bf b8 14 00 00	movl	$0x14b8, %edi
0001735c	89 f1	movl	%esi, %ecx
0001735e	e8 35 cb ff ff	calll	__ZN21IGCommandStreamerBaseC2Ev ## IGCommandStreamerBase::IGCommandStreamerBase()
00017363	81 c6 5c 0a 00 00	addl	$0xa5c, %esi
00017369	81 c7 a4 f5 ff ff	addl	$0xfffff5a4, %edi
0001736f	75 eb	jne	0x1735c
00017371	b9 e9 01 01 00	movl	$0x101e9, %ecx
00017376	e8 1d cb ff ff	calll	__ZN21IGCommandStreamerBaseC2Ev ## IGCommandStreamerBase::IGCommandStreamerBase()
0001737b	83 25 45 0c 01 00 00	andl	$0x0, 0x10c45
00017382	83 25 d5 0c 01 00 00	andl	$0x0, 0x10cd5
00017389	83 25 e1 0c 01 00 00	andl	$0x0, 0x10ce1
00017390	83 25 e5 0c 01 00 00	andl	$0x0, 0x10ce5
00017397	83 25 e9 0c 01 00 00	andl	$0x0, 0x10ce9
0001739e	83 25 f1 0c 01 00 00	andl	$0x0, 0x10cf1
000173a5	83 25 ed 0c 01 00 00	andl	$0x0, 0x10ced
000173ac	83 25 f5 0c 01 00 00	andl	$0x0, 0x10cf5
000173b3	83 25 fd 0c 01 00 00	andl	$0x0, 0x10cfd
000173ba	83 25 f9 0c 01 00 00	andl	$0x0, 0x10cf9
000173c1	83 25 01 0d 01 00 00	andl	$0x0, 0x10d01
000173c8	c7 05 05 0d 01 00 00 01 01 00	movl	$0x10100, 0x10d05
000173d2	c7 05 0d 0d 01 00 20 00 00 00	movl	$P24C_SELF_IPI_VECTOR, 0x10d0d
000173dc	83 25 11 0d 01 00 00	andl	$0x0, 0x10d11
000173e3	83 25 15 0d 01 00 00	andl	$0x0, 0x10d15
000173ea	83 25 09 0d 01 00 00	andl	$0x0, 0x10d09
000173f1	83 25 c9 0c 01 00 00	andl	$0x0, 0x10cc9
000173f8	83 25 cd 0c 01 00 00	andl	$0x0, 0x10ccd
000173ff	c7 05 3d cd 00 00 55 cd 00 00	movl	$0xcd55, 0xcd3d
00017409	c7 05 41 cd 00 00 79 d8 00 00	movl	$0xd879, 0xcd41
00017413	c7 05 45 cd 00 00 d5 e2 00 00	movl	$0xe2d5, 0xcd45
0001741d	c7 05 49 cd 00 00 31 ed 00 00	movl	$0xed31, 0xcd49
00017427	c7 05 4d cd 00 00 8d f7 00 00	movl	$0xf78d, 0xcd4d
00017431	c7 05 51 cd 00 00 e9 01 01 00	movl	$0x101e9, 0xcd51
0001743b	31 db	xorl	%ebx, %ebx
0001743d	83 fb 06	cmpl	$0x6, %ebx
00017440	74 18	je	0x1745a
00017442	8b 04 9d 3d cd 00 00	movl	0xcd3d(,%ebx,4), %eax
00017449	8b 08	movl	P24C_SW_1ST_VECTOR_NUM(%eax), %ecx
0001744b	0f b6 d3	movzbl	%bl, %edx
0001744e	89 54 24 04	movl	%edx, 0x4(%esp)
00017452	89 04 24	movl	%eax, P24C_SW_1ST_VECTOR_NUM(%esp)
00017455	ff 11	calll	*P24C_SW_1ST_VECTOR_NUM(%ecx)
00017457	43	incl	%ebx
00017458	eb e3	jmp	0x1743d
0001745a	6a 06	pushl	$0x6
0001745c	5d	popl	%ebp
0001745d	31 f6	xorl	%esi, %esi
0001745f	6a 20	pushl	$0x20
00017461	5b	popl	%ebx
00017462	85 ed	testl	%ebp, %ebp
00017464	74 4a	je	0x174b0
00017466	89 f0	movl	%esi, %eax
00017468	83 e0 1f	andl	$0x1f, %eax
0001746b	89 d9	movl	%ebx, %ecx
0001746d	29 c1	subl	%eax, %ecx
0001746f	39 cd	cmpl	%ecx, %ebp
00017471	89 6c 24 18	movl	%ebp, 0x18(%esp)
00017475	72 02	jb	0x17479
00017477	89 cd	movl	%ecx, %ebp
00017479	89 f2	movl	%esi, %edx
0001747b	c1 ea 05	shrl	$0x5, %edx
0001747e	8d 4c 05 00	leal	(%ebp,%eax), %ecx
00017482	31 ff	xorl	%edi, %edi
00017484	4f	decl	%edi
00017485	d3 e7	shll	%cl, %edi
00017487	39 d9	cmpl	%ebx, %ecx
00017489	bb ff ff ff ff	movl	$0xffffffff, %ebx
0001748e	74 07	je	0x17497
00017490	31 c9	xorl	%ecx, %ecx
00017492	49	decl	%ecx
00017493	31 cf	xorl	%ecx, %edi
00017495	89 fb	movl	%edi, %ebx
00017497	89 c1	movl	%eax, %ecx
00017499	d3 eb	shrl	%cl, %ebx
0001749b	d3 e3	shll	%cl, %ebx
0001749d	09 1c 95 45 0c 01 00	orl	%ebx, 0x10c45(,%edx,4)
000174a4	01 ee	addl	%ebp, %esi
000174a6	8b 44 24 18	movl	0x18(%esp), %eax
000174aa	29 e8	subl	%ebp, %eax
000174ac	89 c5	movl	%eax, %ebp
000174ae	eb af	jmp	0x1745f
000174b0	6a 20	pushl	$0x20
000174b2	59	popl	%ecx
000174b3	31 c0	xorl	%eax, %eax
000174b5	bf 49 0c 01 00	movl	$0x10c49, %edi
000174ba	f3 ab	rep		stosl	%eax, %es:(%edi)
000174bc	c7 05 f8 c8 00 00 fd c8 00 00	movl	$__ZL34gMicroControllerObjectInstanceHeap, __ZN17IGMicroController9fInstanceE ## IGMicroController::fInstancegMicroControllerObjectInstanceHeap
000174c6	83 c4 1c	addl	$0x1c, %esp
000174c9	5e	popl	%esi
000174ca	5f	popl	%edi
000174cb	5b	popl	%ebx
000174cc	5d	popl	%ebp
000174cd	c3	retl
__ZN17IGMicroController3runEv:
000174ce	55	pushl	%ebp
000174cf	53	pushl	%ebx
000174d0	57	pushl	%edi
000174d1	56	pushl	%esi
000174d2	83 ec 4c	subl	$0x4c, %esp
000174d5	89 cd	movl	%ecx, %ebp
000174d7	8b 1d f4 c3 e0 ff	movl	-0x1f3c0c, %ebx
000174dd	80 3d fc c8 00 00 00	cmpb	$0x0, __ZN17IGMicroController12fIsFirstBootE ## IGMicroController::fIsFirstBoot
000174e4	0f 84 bf 00 00 00	je	0x175a9
000174ea	f6 c3 02	testb	$0x2, %bl
000174ed	0f 84 b8 01 00 00	je	0x176ab
000174f3	83 45 08 01	addl	$0x1, 0x8(%ebp)
000174f7	83 55 0c 00	adcl	$0x0, 0xc(%ebp)
000174fb	80 3d e8 c8 00 00 00	cmpb	$0x0, _gPerfLogEnable
00017502	0f 85 50 11 00 00	jne	0x18658
00017508	b8 ff ff 00 ff	movl	$0xff00ffff, %eax
0001750d	23 05 00 c0 e0 ff	andl	-0x1f4000, %eax
00017513	0d 00 00 01 00	orl	$0x10000, %eax
00017518	89 85 a4 00 00 00	movl	%eax, 0xa4(%ebp)
0001751e	a3 00 c0 e0 ff	movl	%eax, 0xffe0c000
00017523	81 e3 fd ff fd ff	andl	$0xfffdfffd, %ebx
00017529	81 cb 00 00 02 00	orl	$0x20000, %ebx
0001752f	89 1d f4 c3 e0 ff	movl	%ebx, -0x1f3c0c
00017535	8b 85 a8 00 00 00	movl	0xa8(%ebp), %eax
0001753b	0f ba e0 18	btl	$0x18, %eax
0001753f	72 0f	jb	0x17550
00017541	89 e9	movl	%ebp, %ecx
00017543	31 d2	xorl	%edx, %edx
00017545	e8 96 18 00 00	calll	__ZN17IGMicroController21waitForEngineWakeImplE10IGHwCsType ## IGMicroController::waitForEngineWakeImpl(IGHwCsType)
0001754a	8b 85 a8 00 00 00	movl	0xa8(%ebp), %eax
00017550	0f ba e0 19	btl	$0x19, %eax
00017554	72 43	jb	0x17599
00017556	8b 85 18 44 00 00	movl	0x4418(%ebp), %eax
0001755c	b3 01	movb	$0x1, %bl
0001755e	a8 01	testb	$0x1, %al
00017560	74 12	je	0x17574
00017562	6a 03	pushl	$0x3
00017564	5a	popl	%edx
00017565	89 e9	movl	%ebp, %ecx
00017567	e8 74 18 00 00	calll	__ZN17IGMicroController21waitForEngineWakeImplE10IGHwCsType ## IGMicroController::waitForEngineWakeImpl(IGHwCsType)
0001756c	89 c3	movl	%eax, %ebx
0001756e	8b 85 18 44 00 00	movl	0x4418(%ebp), %eax
00017574	a8 04	testb	$0x4, %al
00017576	74 0c	je	0x17584
00017578	6a 04	pushl	$0x4
0001757a	5a	popl	%edx
0001757b	89 e9	movl	%ebp, %ecx
0001757d	e8 5e 18 00 00	calll	__ZN17IGMicroController21waitForEngineWakeImplE10IGHwCsType ## IGMicroController::waitForEngineWakeImpl(IGHwCsType)
00017582	20 c3	andb	%al, %bl
00017584	8b 85 a8 00 00 00	movl	0xa8(%ebp), %eax
0001758a	0f b6 cb	movzbl	%bl, %ecx
0001758d	83 e0 fd	andl	$-0x3, %eax
00017590	8d 04 48	leal	P24C_SW_1ST_VECTOR_NUM(%eax,%ecx,2), %eax
00017593	89 85 a8 00 00 00	movl	%eax, 0xa8(%ebp)
00017599	25 fc ff fc ff	andl	$0xfffcfffc, %eax
0001759e	89 85 a8 00 00 00	movl	%eax, 0xa8(%ebp)
000175a4	e9 02 01 00 00	jmp	0x176ab
000175a9	c6 05 fc c8 00 00 01	movb	$0x1, __ZN17IGMicroController12fIsFirstBootE ## IGMicroController::fIsFirstBoot
000175b0	a1 84 c1 e0 ff	movl	0xffe0c184, %eax
000175b5	89 45 20	movl	%eax, 0x20(%ebp)
000175b8	89 c1	movl	%eax, %ecx
000175ba	83 e1 f0	andl	$-0x10, %ecx
000175bd	83 e0 0f	andl	$0xf, %eax
000175c0	05 8f 00 00 00	addl	$0x8f, %eax
000175c5	83 e0 90	andl	$-0x70, %eax
000175c8	01 c8	addl	%ecx, %eax
000175ca	39 c1	cmpl	%eax, %ecx
000175cc	73 08	jae	0x175d6
000175ce	0f ae 39	clflush	P24C_SW_1ST_VECTOR_NUM(%ecx)
000175d1	83 c1 10	addl	$0x10, %ecx
000175d4	eb f4	jmp	0x175ca
000175d6	89 df	movl	%ebx, %edi
000175d8	8d 45 24	leal	0x24(%ebp), %eax
000175db	8b 4d 20	movl	0x20(%ebp), %ecx
000175de	89 4c 24 04	movl	%ecx, 0x4(%esp)
000175e2	89 04 24	movl	%eax, P24C_SW_1ST_VECTOR_NUM(%esp)
000175e5	c7 44 24 08 80 00 00 00	movl	$0x80, 0x8(%esp)
000175ed	e8 a5 a3 ff ff	calll	_memcpy
000175f2	8b 9d 88 00 00 00	movl	DB_VECTOR_1(%ebp), %ebx
000175f8	85 db	testl	%ebx, %ebx
000175fa	74 3d	je	0x17639
000175fc	83 a5 48 43 00 00 00	andl	$0x0, 0x4348(%ebp)
00017603	31 c9	xorl	%ecx, %ecx
00017605	31 f6	xorl	%esi, %esi
00017607	46	incl	%esi
00017608	85 db	testl	%ebx, %ebx
0001760a	74 2d	je	0x17639
0001760c	f6 c3 01	testb	$0x1, %bl
0001760f	74 23	je	0x17634
00017611	89 4c 24 20	movl	%ecx, 0x20(%esp)
00017615	e8 9a f9 ff ff	calll	__ZNK10IGUkBitSetILj6EE12assertBoundsEj ## IGUkBitSet<6u>::assertBounds(unsigned int) const
0001761a	8b 44 24 20	movl	0x20(%esp), %eax
0001761e	c1 e8 05	shrl	$0x5, %eax
00017621	89 f2	movl	%esi, %edx
00017623	8b 4c 24 20	movl	0x20(%esp), %ecx
00017627	d3 e2	shll	%cl, %edx
00017629	09 94 85 48 43 00 00	orl	%edx, 0x4348(%ebp,%eax,4)
00017630	8b 4c 24 20	movl	0x20(%esp), %ecx
00017634	41	incl	%ecx
00017635	d1 eb	shrl	%ebx
00017637	eb cf	jmp	0x17608
00017639	f7 05 68 c0 e0 ff 03 00 00 00	testl	$0x3, -0x1f3f98
00017643	75 2d	jne	0x17672
00017645	a1 08 c0 e0 ff	movl	0xffe0c008, %eax
0001764a	a1 08 c0 e0 ff	movl	0xffe0c008, %eax
0001764f	a1 08 c0 e0 ff	movl	0xffe0c008, %eax
00017654	a1 08 c0 e0 ff	movl	0xffe0c008, %eax
00017659	a1 08 c0 e0 ff	movl	0xffe0c008, %eax
0001765e	a1 08 c0 e0 ff	movl	0xffe0c008, %eax
00017663	a1 08 c0 e0 ff	movl	0xffe0c008, %eax
00017668	66 3d 40 10	cmpw	$0x1040, %ax
0001766c	0f 85 30 0f 00 00	jne	0x185a2
00017672	a1 10 a2 e0 ff	movl	0xffe0a210, %eax
00017677	83 e0 03	andl	$0x3, %eax
0001767a	c1 e0 18	shll	$0x18, %eax
0001767d	89 85 a8 00 00 00	movl	%eax, 0xa8(%ebp)
00017683	b8 ff ff 00 ff	movl	$0xff00ffff, %eax
00017688	23 05 00 c0 e0 ff	andl	-0x1f4000, %eax
0001768e	89 85 a4 00 00 00	movl	%eax, 0xa4(%ebp)
00017694	a3 00 c0 e0 ff	movl	%eax, 0xffe0c000
00017699	81 e7 fc ff fc ff	andl	$0xfffcfffc, %edi
0001769f	81 cf 00 00 03 00	orl	$0x30000, %edi
000176a5	89 3d f4 c3 e0 ff	movl	%edi, -0x1f3c0c
000176ab	0f b6 85 a6 00 00 00	movzbl	0xa6(%ebp), %eax
000176b2	c1 e0 10	shll	$0x10, %eax
000176b5	3d 00 00 01 00	cmpl	$0x10000, %eax
000176ba	75 16	jne	0x176d2
000176bc	b8 ff ff fd ff	movl	$0xfffdffff, %eax
000176c1	23 05 00 c0 e0 ff	andl	-0x1f4000, %eax
000176c7	89 85 a4 00 00 00	movl	%eax, 0xa4(%ebp)
000176cd	a3 00 c0 e0 ff	movl	%eax, 0xffe0c000
000176d2	be ff 00 ff ff	movl	$0xffff00ff, %esi
000176d7	a1 00 c0 e0 ff	movl	0xffe0c000, %eax
000176dc	21 f0	andl	%esi, %eax
000176de	0d 00 01 00 00	orl	$0x100, %eax
000176e3	89 85 a4 00 00 00	movl	%eax, 0xa4(%ebp)
000176e9	a3 00 c0 e0 ff	movl	%eax, 0xffe0c000
000176ee	8d 7c 24 28	leal	0x28(%esp), %edi
000176f2	66 c7 07 27 00	movw	$0x27, P24C_SW_1ST_VECTOR_NUM(%edi)
000176f7	c7 47 02 c0 c0 00 00	movl	$_kgdt, 0x2(%edi)
000176fe	89 3c 24	movl	%edi, P24C_SW_1ST_VECTOR_NUM(%esp)
00017701	e8 55 97 ff ff	calll	_UkAsmInstallGdt
00017706	a1 00 c0 e0 ff	movl	0xffe0c000, %eax
0001770b	21 f0	andl	%esi, %eax
0001770d	0d 00 04 00 00	orl	$0x400, %eax
00017712	89 85 a4 00 00 00	movl	%eax, 0xa4(%ebp)
00017718	a3 00 c0 e0 ff	movl	%eax, 0xffe0c000
0001771d	66 c7 07 ff 07	movw	$0x7ff, P24C_SW_1ST_VECTOR_NUM(%edi)
00017722	c7 47 02 e8 c0 00 00	movl	$_kidt, 0x2(%edi)
00017729	0f 01 5c 24 28	lidtl	0x28(%esp)
0001772e	a1 00 c0 e0 ff	movl	0xffe0c000, %eax
00017733	21 f0	andl	%esi, %eax
00017735	0d 00 08 00 00	orl	$0x800, %eax
0001773a	89 85 a4 00 00 00	movl	%eax, 0xa4(%ebp)
00017740	a3 00 c0 e0 ff	movl	%eax, 0xffe0c000
00017745	c7 05 f0 00 e0 fe ff 01 00 00	movl	$0x1ff, -0x11fff10
0001774f	c7 05 e0 00 e0 fe ff ff ff ff	movl	$0xffffffff, -0x11fff20
00017759	c7 05 80 00 e0 fe 00 00 00 00	movl	$P24C_SW_1ST_VECTOR_NUM, -0x11fff80
00017763	c7 05 80 03 e0 fe ff ff ff 00	movl	$0xffffff, -0x11ffc80
0001776d	c7 05 e0 03 e0 fe 01 00 00 00	movl	$0x1, -0x11ffc20
00017777	c7 05 20 03 e0 fe d0 00 02 00	movl	$0x200d0, -0x11ffce0
00017781	23 35 00 c0 e0 ff	andl	-0x1f4000, %esi
00017787	81 ce 00 10 00 00	orl	$0x1000, %esi
0001778d	89 b5 a4 00 00 00	movl	%esi, 0xa4(%ebp)
00017793	89 35 00 c0 e0 ff	movl	%esi, -0x1f4000
00017799	0f b6 85 a6 00 00 00	movzbl	0xa6(%ebp), %eax
000177a0	c1 e0 10	shll	$0x10, %eax
000177a3	3d 00 00 01 00	cmpl	$0x10000, %eax
000177a8	0f 84 19 08 00 00	je	0x17fc7
000177ae	b8 00 f0 ff ff	movl	$0xfffff000, %eax
000177b3	23 45 30	andl	0x30(%ebp), %eax
000177b6	8d 88 c0 00 00 00	leal	ENG_VECTOR_1(%eax), %ecx
000177bc	6a 09	pushl	$0x9
000177be	5a	popl	%edx
000177bf	89 90 c0 00 00 00	movl	%edx, ENG_VECTOR_1(%eax)
000177c5	89 90 00 01 00 00	movl	%edx, 0x100(%eax)
000177cb	6a 05	pushl	$0x5
000177cd	5a	popl	%edx
000177ce	89 90 40 03 00 00	movl	%edx, 0x340(%eax)
000177d4	89 90 80 03 00 00	movl	%edx, 0x380(%eax)
000177da	89 c2	movl	%eax, %edx
000177dc	29 ca	subl	%ecx, %edx
000177de	81 c2 4f 01 00 00	addl	$0x14f, %edx
000177e4	81 e2 80 f0 ff ff	andl	$0xfffff080, %edx
000177ea	8d 94 02 c0 00 00 00	leal	ENG_VECTOR_1(%edx,%eax), %edx
000177f1	05 40 03 00 00	addl	$0x340, %eax
000177f6	39 d1	cmpl	%edx, %ecx
000177f8	73 08	jae	0x17802
000177fa	0f ae 39	clflush	P24C_SW_1ST_VECTOR_NUM(%ecx)
000177fd	83 c1 10	addl	$0x10, %ecx
00017800	eb f4	jmp	0x177f6
00017802	c7 05 20 c0 e0 ff 01 00 00 00	movl	$0x1, -0x1f3fe0
0001780c	89 c1	movl	%eax, %ecx
0001780e	83 c9 0f	orl	$0xf, %ecx
00017811	29 c1	subl	%eax, %ecx
00017813	83 e9 80	subl	$-0x80, %ecx
00017816	83 e1 f0	andl	$-0x10, %ecx
00017819	01 c1	addl	%eax, %ecx
0001781b	39 c8	cmpl	%ecx, %eax
0001781d	73 08	jae	0x17827
0001781f	0f ae 38	clflush	P24C_SW_1ST_VECTOR_NUM(%eax)
00017822	83 c0 10	addl	$0x10, %eax
00017825	eb f4	jmp	0x1781b
00017827	c7 05 20 c0 e0 ff 01 00 00 00	movl	$0x1, -0x1f3fe0
00017831	ba 00 f0 ff ff	movl	$0xfffff000, %edx
00017836	23 55 30	andl	0x30(%ebp), %edx
00017839	8d 82 80 00 00 00	leal	0x80(%edx), %eax
0001783f	89 d1	movl	%edx, %ecx
00017841	39 c1	cmpl	%eax, %ecx
00017843	73 08	jae	0x1784d
00017845	0f ae 39	clflush	P24C_SW_1ST_VECTOR_NUM(%ecx)
00017848	83 c1 10	addl	$0x10, %ecx
0001784b	eb f4	jmp	0x17841
0001784d	8d bd 4c 43 00 00	leal	0x434c(%ebp), %edi
00017853	6a 20	pushl	$0x20
00017855	59	popl	%ecx
00017856	89 d6	movl	%edx, %esi
00017858	f3 a5	rep		movsl	(%esi), %es:(%edi)
0001785a	89 e9	movl	%ebp, %ecx
0001785c	e8 d9 15 00 00	calll	__ZN17IGMicroController34parseSetPmMessageUpdateFrequenciesEP20IGUkPmMessagePayload ## IGMicroController::parseSetPmMessageUpdateFrequencies(IGUkPmMessagePayload*)
00017861	8d 85 38 04 00 00	leal	0x438(%ebp), %eax
00017867	83 a5 38 04 00 00 00	andl	$0x0, 0x438(%ebp)
0001786e	89 85 3c 04 00 00	movl	%eax, 0x43c(%ebp)
00017874	b8 c0 fe ff ff	movl	$0xfffffec0, %eax
00017879	85 c0	testl	%eax, %eax
0001787b	74 15	je	0x17892
0001787d	83 a4 05 2c 04 00 00 00	andl	$0x0, 0x42c(%ebp,%eax)
00017885	83 a4 05 30 04 00 00 00	andl	$0x0, 0x430(%ebp,%eax)
0001788d	83 c0 20	addl	$0x20, %eax
00017890	eb e7	jmp	0x17879
00017892	8b 0d 74 40 e4 ff	movl	-0x1bbf8c, %ecx
00017898	8b 35 6c a2 e0 ff	movl	-0x1f5d94, %esi
0001789e	89 c8	movl	%ecx, %eax
000178a0	25 ff 03 00 00	andl	$0x3ff, %eax
000178a5	6b d0 0a	imull	$0xa, %eax, %edx
000178a8	6a 0a	pushl	$0xa
000178aa	5b	popl	%ebx
000178ab	01 da	addl	%ebx, %edx
000178ad	c1 e9 0c	shrl	$0xc, %ecx
000178b0	83 e1 0f	andl	$0xf, %ecx
000178b3	74 0e	je	0x178c3
000178b5	fe c1	incb	%cl
000178b7	b0 0a	movb	$0xa, %al
000178b9	0f b6 c0	movzbl	%al, %eax
000178bc	f6 f1	divb	%cl
000178be	0f b6 c0	movzbl	%al, %eax
000178c1	01 c2	addl	%eax, %edx
000178c3	d1 ee	shrl	%esi
000178c5	6a 03	pushl	$0x3
000178c7	58	popl	%eax
000178c8	21 c6	andl	%eax, %esi
000178ca	89 74 24 20	movl	%esi, 0x20(%esp)
000178ce	89 f1	movl	%esi, %ecx
000178d0	31 c1	xorl	%eax, %ecx
000178d2	89 8d 1c 04 00 00	movl	%ecx, 0x41c(%ebp)
000178d8	d3 ea	shrl	%cl, %edx
000178da	31 f6	xorl	%esi, %esi
000178dc	46	incl	%esi
000178dd	85 d2	testl	%edx, %edx
000178df	74 02	je	0x178e3
000178e1	89 d6	movl	%edx, %esi
000178e3	89 b5 20 04 00 00	movl	%esi, 0x420(%ebp)
000178e9	66 b8 10 27	movw	$0x2710, %ax
000178ed	31 d2	xorl	%edx, %edx
000178ef	66 f7 f6	divw	%si
000178f2	89 c6	movl	%eax, %esi
000178f4	31 d2	xorl	%edx, %edx
000178f6	66 bf 28 00	movw	$0x28, %di
000178fa	66 f7 f7	divw	%di
000178fd	29 d6	subl	%edx, %esi
000178ff	83 c6 28	addl	$0x28, %esi
00017902	0f b7 c6	movzwl	%si, %eax
00017905	89 85 24 04 00 00	movl	%eax, 0x424(%ebp)
0001790b	b0 02	movb	$0x2, %al
0001790d	28 c8	subb	%cl, %al
0001790f	31 f6	xorl	%esi, %esi
00017911	46	incl	%esi
00017912	89 f2	movl	%esi, %edx
00017914	89 c1	movl	%eax, %ecx
00017916	d3 e2	shll	%cl, %edx
00017918	83 7c 24 20 00	cmpl	$0x0, 0x20(%esp)
0001791d	89 f0	movl	%esi, %eax
0001791f	74 02	je	0x17923
00017921	89 d0	movl	%edx, %eax
00017923	89 85 28 04 00 00	movl	%eax, 0x428(%ebp)
00017929	83 a5 d4 02 00 00 00	andl	$0x0, 0x2d4(%ebp)
00017930	83 a5 d8 02 00 00 00	andl	$0x0, 0x2d8(%ebp)
00017937	c7 85 dc 02 00 00 8a 54 01 00	movl	$__ZN18IGInterruptHandler34handleCheckFrequencyTimerInterruptEPvP21IGGucTimerEventSource, 0x2dc(%ebp) ## IGInterruptHandler::handleCheckFrequencyTimerInterrupt(void*, IGGucTimerEventSource*)
00017941	c7 85 e0 02 00 00 f4 94 01 00	movl	$__ZN17IGGucTimerManager30handleCheckFrequencyTimerRearmEPvP21IGGucTimerEventSource, 0x2e0(%ebp) ## IGGucTimerManager::handleCheckFrequencyTimerRearm(void*, IGGucTimerEventSource*)
0001794b	b0 01	movb	$0x1, %al
0001794d	88 85 e8 02 00 00	movb	%al, 0x2e8(%ebp)
00017953	89 b5 f4 02 00 00	movl	%esi, 0x2f4(%ebp)
00017959	83 a5 f8 02 00 00 00	andl	$0x0, 0x2f8(%ebp)
00017960	c7 85 fc 02 00 00 24 58 01 00	movl	$__ZN18IGInterruptHandler32handleThrottleHighTimerInterruptEPvP21IGGucTimerEventSource, 0x2fc(%ebp) ## IGInterruptHandler::handleThrottleHighTimerInterrupt(void*, IGGucTimerEventSource*)
0001796a	83 a5 00 03 00 00 00	andl	$0x0, 0x300(%ebp)
00017971	88 85 08 03 00 00	movb	%al, 0x308(%ebp)
00017977	c7 85 14 03 00 00 02 00 00 00	movl	$P24C_SW_INTR_GRP, 0x314(%ebp)
00017981	83 a5 18 03 00 00 00	andl	$0x0, 0x318(%ebp)
00017988	c7 85 1c 03 00 00 9e 58 01 00	movl	$__ZN18IGInterruptHandler38handleThrottleNormalHighTimerInterruptEPvP21IGGucTimerEventSource, 0x31c(%ebp) ## IGInterruptHandler::handleThrottleNormalHighTimerInterrupt(void*, IGGucTimerEventSource*)
00017992	83 a5 20 03 00 00 00	andl	$0x0, 0x320(%ebp)
00017999	88 85 28 03 00 00	movb	%al, 0x328(%ebp)
0001799f	6a 03	pushl	$0x3
000179a1	59	popl	%ecx
000179a2	89 8d 34 03 00 00	movl	%ecx, 0x334(%ebp)
000179a8	83 a5 38 03 00 00 00	andl	$0x0, 0x338(%ebp)
000179af	c7 85 3c 03 00 00 1a 59 01 00	movl	$__ZN18IGInterruptHandler34handleThrottleNormalTimerInterruptEPvP21IGGucTimerEventSource, 0x33c(%ebp) ## IGInterruptHandler::handleThrottleNormalTimerInterrupt(void*, IGGucTimerEventSource*)
000179b9	83 a5 40 03 00 00 00	andl	$0x0, 0x340(%ebp)
000179c0	88 85 48 03 00 00	movb	%al, 0x348(%ebp)
000179c6	c7 85 54 03 00 00 04 00 00 00	movl	$0x4, 0x354(%ebp)
000179d0	83 a5 58 03 00 00 00	andl	$0x0, 0x358(%ebp)
000179d7	c7 85 5c 03 00 00 96 59 01 00	movl	$__ZN18IGInterruptHandler31handleThrottleLowTimerInterruptEPvP21IGGucTimerEventSource, 0x35c(%ebp) ## IGInterruptHandler::handleThrottleLowTimerInterrupt(void*, IGGucTimerEventSource*)
000179e1	83 a5 60 03 00 00 00	andl	$0x0, 0x360(%ebp)
000179e8	88 85 68 03 00 00	movb	%al, 0x368(%ebp)
000179ee	c7 85 74 03 00 00 05 00 00 00	movl	$0x5, 0x374(%ebp)
000179f8	83 a5 78 03 00 00 00	andl	$0x0, 0x378(%ebp)
000179ff	c7 85 7c 03 00 00 12 5a 01 00	movl	$__ZN18IGInterruptHandler35handleChangeFrequencyTimerInterruptEPvP21IGGucTimerEventSource, 0x37c(%ebp) ## IGInterruptHandler::handleChangeFrequencyTimerInterrupt(void*, IGGucTimerEventSource*)
00017a09	c7 85 80 03 00 00 46 95 01 00	movl	$__ZN17IGGucTimerManager31handleChangeFrequencyTimerRearmEPvP21IGGucTimerEventSource, 0x380(%ebp) ## IGGucTimerManager::handleChangeFrequencyTimerRearm(void*, IGGucTimerEventSource*)
00017a13	88 85 88 03 00 00	movb	%al, 0x388(%ebp)
00017a19	c7 85 94 03 00 00 06 00 00 00	movl	$0x6, 0x394(%ebp)
00017a23	83 a5 98 03 00 00 00	andl	$0x0, 0x398(%ebp)
00017a2a	c7 85 9c 03 00 00 24 5b 01 00	movl	$__ZN18IGInterruptHandler30handlePreemptionTimerInterruptEPvP21IGGucTimerEventSource, 0x39c(%ebp) ## IGInterruptHandler::handlePreemptionTimerInterrupt(void*, IGGucTimerEventSource*)
00017a34	83 a5 a0 03 00 00 00	andl	$0x0, 0x3a0(%ebp)
00017a3b	88 85 a8 03 00 00	movb	%al, 0x3a8(%ebp)
00017a41	81 0d 5c c5 e0 ff 00 02 00 00	orl	$0x200, -0x1f3aa4
00017a4b	b8 ff fd ff 7f	movl	$0x7ffffdff, %eax
00017a50	23 05 68 a1 e0 ff	andl	-0x1f5e98, %eax
00017a56	0d 00 00 00 80	orl	$0x80000000, %eax
00017a5b	a3 68 a1 e0 ff	movl	%eax, 0xffe0a168
00017a60	a1 48 a2 e0 ff	movl	0xffe0a248, %eax
00017a65	89 85 d8 43 00 00	movl	%eax, 0x43d8(%ebp)
00017a6b	a1 5c a2 e0 ff	movl	0xffe0a25c, %eax
00017a70	89 44 24 20	movl	%eax, 0x20(%esp)
00017a74	b8 ff 03 00 00	movl	$0x3ff, %eax
00017a79	23 05 74 40 e4 ff	andl	-0x1bbf8c, %eax
00017a7f	8b 0d 6c a2 e0 ff	movl	-0x1f5d94, %ecx
00017a85	69 f0 40 42 0f 00	imull	$0xf4240, %eax, %esi
00017a8b	bf 40 42 0f 00	movl	$0xf4240, %edi
00017a90	01 fe	addl	%edi, %esi
00017a92	d0 e9	shrb	%cl
00017a94	80 e1 03	andb	$0x3, %cl
00017a97	80 f1 07	xorb	$0x7, %cl
00017a9a	d3 ee	shrl	%cl, %esi
00017a9c	89 f0	movl	%esi, %eax
00017a9e	31 d2	xorl	%edx, %edx
00017aa0	f7 f3	divl	%ebx
00017aa2	89 c1	movl	%eax, %ecx
00017aa4	6b c0 0a	imull	$0xa, %eax, %eax
00017aa7	39 c6	cmpl	%eax, %esi
00017aa9	75 0c	jne	0x17ab7
00017aab	89 f8	movl	%edi, %eax
00017aad	31 d2	xorl	%edx, %edx
00017aaf	f7 f3	divl	%ebx
00017ab1	89 ce	movl	%ecx, %esi
00017ab3	89 c7	movl	%eax, %edi
00017ab5	eb e5	jmp	0x17a9c
00017ab7	8b 44 24 20	movl	0x20(%esp), %eax
00017abb	c0 e8 04	shrb	$0x4, %al
00017abe	24 03	andb	$0x3, %al
00017ac0	b1 04	movb	$0x4, %cl
00017ac2	28 c1	subb	%al, %cl
00017ac4	d3 e7	shll	%cl, %edi
00017ac6	89 bd dc 43 00 00	movl	%edi, 0x43dc(%ebp)
00017acc	89 b5 e0 43 00 00	movl	%esi, 0x43e0(%ebp)
00017ad2	c7 05 00 c5 e0 ff 88 88 99 99	movl	$0x99998888, -0x1f3b00
00017adc	c7 05 04 c5 e0 ff ac bf ed 00	movl	$0xedbfac, -0x1f3afc
00017ae6	b8 00 01 00 01	movl	$0x1000100, %eax
00017aeb	a3 30 c6 e0 ff	movl	%eax, 0xffe0c630
00017af0	a3 48 c6 e0 ff	movl	%eax, 0xffe0c648
00017af5	a3 34 c6 e0 ff	movl	%eax, 0xffe0c634
00017afa	c7 05 2c c6 e0 ff 01 00 00 00	movl	$0x1, -0x1f39d4
00017b04	b8 ff 00 ff ff	movl	$0xffff00ff, %eax
00017b09	23 05 00 c0 e0 ff	andl	-0x1f4000, %eax
00017b0f	0d 00 20 00 00	orl	$0x2000, %eax
00017b14	89 85 a4 00 00 00	movl	%eax, 0xa4(%ebp)
00017b1a	a3 00 c0 e0 ff	movl	%eax, 0xffe0c000
00017b1f	0f b7 85 84 00 00 00	movzwl	0x84(%ebp), %eax
00017b26	a3 14 22 e0 ff	movl	%eax, 0xffe02214
00017b2b	6a 03	pushl	$0x3
00017b2d	58	popl	%eax
00017b2e	a3 30 c3 e0 ff	movl	%eax, 0xffe0c330
00017b33	89 04 24	movl	%eax, P24C_SW_1ST_VECTOR_NUM(%esp)
00017b36	31 d2	xorl	%edx, %edx
00017b38	42	incl	%edx
00017b39	89 e9	movl	%ebp, %ecx
00017b3b	e8 4a 0b 00 00	calll	__ZN17IGMicroController9forceWakeEbj ## IGMicroController::forceWake(bool, unsigned int)
00017b40	8b 1d 40 91 e0 ff	movl	-0x1f6ec0, %ebx
00017b46	f7 d3	notl	%ebx
00017b48	0f b6 c3	movzbl	%bl, %eax
00017b4b	81 e3 00 00 0f 00	andl	$0xf0000, %ebx
00017b51	c1 eb 08	shrl	$0x8, %ebx
00017b54	09 c3	orl	%eax, %ebx
00017b56	83 a5 18 44 00 00 00	andl	$0x0, 0x4418(%ebp)
00017b5d	8d bd 48 43 00 00	leal	0x4348(%ebp), %edi
00017b63	89 f9	movl	%edi, %ecx
00017b65	e8 48 0d 00 00	calll	__ZNK10IGUkBitSetILj6EE5beginEv ## IGUkBitSet<6u>::begin() const
00017b6a	8d 74 24 28	leal	0x28(%esp), %esi
00017b6e	89 56 04	movl	%edx, 0x4(%esi)
00017b71	89 06	movl	%eax, P24C_SW_1ST_VECTOR_NUM(%esi)
00017b73	85 d2	testl	%edx, %edx
00017b75	74 3e	je	0x17bb5
00017b77	8d 42 fc	leal	-0x4(%edx), %eax
00017b7a	83 f8 02	cmpl	$0x2, %eax
00017b7d	77 29	ja	0x17ba8
00017b7f	4a	decl	%edx
00017b80	6b c2 5d	imull	$0x5d, %edx, %eax
00017b83	8b 88 7d 9c 01 00	movl	0x19c7d(%eax), %ecx
00017b89	85 d9	testl	%ebx, %ecx
00017b8b	74 08	je	0x17b95
00017b8d	09 8d 18 44 00 00	orl	%ecx, 0x4418(%ebp)
00017b93	eb 13	jmp	0x17ba8
00017b95	0f b6 90 34 9c 01 00	movzbl	__ZL11kIGHwCsDesc.39(%eax), %edx ## kIGHwCsDesc (.39)
00017b9c	89 f9	movl	%edi, %ecx
00017b9e	e8 45 0d 00 00	calll	__ZN10IGUkBitSetILj6EE5resetEj ## IGUkBitSet<6u>::reset(unsigned int)
00017ba3	e8 aa a0 ff ff	calll	_assertionFailed
00017ba8	89 f1	movl	%esi, %ecx
00017baa	e8 5d 0d 00 00	calll	__ZN10IGUkBitSetILj6EE13ConstIteratorppEv ## IGUkBitSet<6u>::ConstIterator::operator++()
00017baf	8b 54 24 2c	movl	0x2c(%esp), %edx
00017bb3	eb be	jmp	0x17b73
00017bb5	c7 04 24 03 00 00 00	movl	$0x3, P24C_SW_1ST_VECTOR_NUM(%esp)
00017bbc	89 e9	movl	%ebp, %ecx
00017bbe	31 d2	xorl	%edx, %edx
00017bc0	e8 c5 0a 00 00	calll	__ZN17IGMicroController9forceWakeEbj ## IGMicroController::forceWake(bool, unsigned int)
00017bc5	b8 00 19 e0 ff	movl	$0xffe01900, %eax
00017bca	3d 20 19 e0 ff	cmpl	$0xffe01920, %eax
00017bcf	74 33	je	0x17c04
00017bd1	8b 0d 80 00 e0 fe	movl	-0x11fff80, %ecx
00017bd7	c7 05 80 00 e0 fe f0 00 00 00	movl	$0xf0, -0x11fff80
00017be1	8b 15 60 c0 e0 ff	movl	-0x1f3fa0, %edx
00017be7	c7 05 60 c0 e0 ff 00 00 00 00	movl	$P24C_SW_1ST_VECTOR_NUM, -0x1f3fa0
00017bf1	8b 30	movl	P24C_SW_1ST_VECTOR_NUM(%eax), %esi
00017bf3	89 15 60 c0 e0 ff	movl	%edx, -0x1f3fa0
00017bf9	89 0d 80 00 e0 fe	movl	%ecx, -0x11fff80
00017bff	83 c0 04	addl	$0x4, %eax
00017c02	eb c6	jmp	0x17bca
00017c04	c7 04 24 3f 00 00 00	movl	$0x3f, P24C_SW_1ST_VECTOR_NUM(%esp)
00017c0b	31 d2	xorl	%edx, %edx
00017c0d	42	incl	%edx
00017c0e	89 e9	movl	%ebp, %ecx
00017c10	e8 75 0a 00 00	calll	__ZN17IGMicroController9forceWakeEbj ## IGMicroController::forceWake(bool, unsigned int)
00017c15	b8 d2 fd ff ff	movl	$0xfffffdd2, %eax
00017c1a	85 c0	testl	%eax, %eax
00017c1c	74 15	je	0x17c33
00017c1e	8b 88 93 9e 01 00	movl	0x19e93(%eax), %ecx
00017c24	81 89 00 00 e0 ff 00 c0 00 c0	orl	$0xc000c000, -0x200000(%ecx)
00017c2e	83 c0 5d	addl	$0x5d, %eax
00017c31	eb e7	jmp	0x17c1a
00017c33	c7 04 24 3f 00 00 00	movl	$0x3f, P24C_SW_1ST_VECTOR_NUM(%esp)
00017c3a	89 e9	movl	%ebp, %ecx
00017c3c	31 d2	xorl	%edx, %edx
00017c3e	e8 47 0a 00 00	calll	__ZN17IGMicroController9forceWakeEbj ## IGMicroController::forceWake(bool, unsigned int)
00017c43	b8 00 00 01 00	movl	$0x10000, %eax
00017c48	09 05 6c c5 e0 ff	orl	%eax, -0x1f3a94
00017c4e	09 05 84 c5 e0 ff	orl	%eax, -0x1f3a7c
00017c54	09 05 74 c5 e0 ff	orl	%eax, -0x1f3a8c
00017c5a	09 05 7c c5 e0 ff	orl	%eax, -0x1f3a84
00017c60	81 0d 10 c5 e0 ff 00 01 00 01	orl	$0x1000100, -0x1f3af0
00017c6a	89 f9	movl	%edi, %ecx
00017c6c	e8 41 0c 00 00	calll	__ZNK10IGUkBitSetILj6EE5beginEv ## IGUkBitSet<6u>::begin() const
00017c71	89 d1	movl	%edx, %ecx
00017c73	8d 54 24 28	leal	0x28(%esp), %edx
00017c77	89 4a 04	movl	%ecx, 0x4(%edx)
00017c7a	89 02	movl	%eax, P24C_SW_1ST_VECTOR_NUM(%edx)
00017c7c	85 c9	testl	%ecx, %ecx
00017c7e	0f 84 c4 02 00 00	je	0x17f48
00017c84	49	decl	%ecx
00017c85	0f b7 75 74	movzwl	0x74(%ebp), %esi
00017c89	83 e6 3f	andl	$0x3f, %esi
00017c8c	66 b8 00 01	movw	$0x100, %ax
00017c90	31 d2	xorl	%edx, %edx
00017c92	66 f7 f6	divw	%si
00017c95	89 c7	movl	%eax, %edi
00017c97	0f b7 d9	movzwl	%cx, %ebx
00017c9a	8b 44 dd 44	movl	0x44(%ebp,%ebx,8), %eax
00017c9e	89 44 24 20	movl	%eax, 0x20(%esp)
00017ca2	8b 74 dd 48	movl	0x48(%ebp,%ebx,8), %esi
00017ca6	89 d8	movl	%ebx, %eax
00017ca8	31 d2	xorl	%edx, %edx
00017caa	66 f7 f7	divw	%di
00017cad	0f b7 fa	movzwl	%dx, %edi
00017cb0	0f b7 c0	movzwl	%ax, %eax
00017cb3	8b 0d 80 00 e0 fe	movl	-0x11fff80, %ecx
00017cb9	c7 05 80 00 e0 fe f0 00 00 00	movl	$0xf0, -0x11fff80
00017cc3	89 44 24 38	movl	%eax, 0x38(%esp)
00017cc7	83 e0 03	andl	$0x3, %eax
00017cca	8b 15 60 c0 e0 ff	movl	-0x1f3fa0, %edx
00017cd0	89 44 24 34	movl	%eax, 0x34(%esp)
00017cd4	a3 60 c0 e0 ff	movl	%eax, 0xffe0c060
00017cd9	89 7c 24 3c	movl	%edi, 0x3c(%esp)
00017cdd	8d 3c fd 00 00 00 00	leal	P24C_SW_1ST_VECTOR_NUM(,%edi,8), %edi
00017ce4	81 cf 00 10 e0 ff	orl	$0xffe01000, %edi
00017cea	f7 07 01 00 00 00	testl	$0x1, P24C_SW_1ST_VECTOR_NUM(%edi)
00017cf0	89 15 60 c0 e0 ff	movl	%edx, -0x1f3fa0
00017cf6	89 0d 80 00 e0 fe	movl	%ecx, -0x11fff80
00017cfc	74 10	je	0x17d0e
00017cfe	31 c9	xorl	%ecx, %ecx
00017d00	89 0c dd 04 10 e0 ff	movl	%ecx, -0x1feffc(,%ebx,8)
00017d07	89 0c dd 00 10 e0 ff	movl	%ecx, -0x1ff000(,%ebx,8)
00017d0e	89 d9	movl	%ebx, %ecx
00017d10	c1 e9 03	shrl	$0x3, %ecx
00017d13	83 e1 fc	andl	$-0x4, %ecx
00017d16	ba 30 c5 e0 ff	movl	$0xffe0c530, %edx
00017d1b	29 ca	subl	%ecx, %edx
00017d1d	89 d9	movl	%ebx, %ecx
00017d1f	83 e1 1f	andl	$0x1f, %ecx
00017d22	8b 3a	movl	P24C_SW_1ST_VECTOR_NUM(%edx), %edi
00017d24	85 cf	testl	%ecx, %edi
00017d26	74 11	je	0x17d39
00017d28	89 5c 24 24	movl	%ebx, 0x24(%esp)
00017d2c	31 db	xorl	%ebx, %ebx
00017d2e	43	incl	%ebx
00017d2f	d3 e3	shll	%cl, %ebx
00017d31	21 df	andl	%ebx, %edi
00017d33	8b 5c 24 24	movl	0x24(%esp), %ebx
00017d37	89 3a	movl	%edi, P24C_SW_1ST_VECTOR_NUM(%edx)
00017d39	8b 4c 24 20	movl	0x20(%esp), %ecx
00017d3d	83 e1 c0	andl	$-0x40, %ecx
00017d40	81 e6 ff 1f 00 00	andl	$0x1fff, %esi
00017d46	8b 44 24 38	movl	0x38(%esp), %eax
00017d4a	83 e0 0f	andl	$0xf, %eax
00017d4d	c1 e0 16	shll	$0x16, %eax
00017d50	09 f0	orl	%esi, %eax
00017d52	8d 34 dd 00 00 00 00	leal	P24C_SW_1ST_VECTOR_NUM(,%ebx,8), %esi
00017d59	8d 3c dd 04 00 00 00	leal	0x4(,%ebx,8), %edi
00017d60	89 87 00 10 e0 ff	movl	%eax, -0x1ff000(%edi)
00017d66	89 8f fc 0f e0 ff	movl	%ecx, -0x1ff004(%edi)
00017d6c	8b 15 94 c0 e0 ff	movl	-0x1f3f6c, %edx
00017d72	f6 c2 01	testb	$0x1, %dl
00017d75	74 f5	je	0x17d6c
00017d77	f6 c2 08	testb	$0x8, %dl
00017d7a	75 3b	jne	0x17db7
00017d7c	f6 c2 02	testb	$0x2, %dl
00017d7f	75 5c	jne	0x17ddd
00017d81	89 74 24 38	movl	%esi, 0x38(%esp)
00017d85	89 4c 24 20	movl	%ecx, 0x20(%esp)
00017d89	81 e2 c0 0f 00 00	andl	$0xfc0, %edx
00017d8f	8b 4d 20	movl	0x20(%ebp), %ecx
00017d92	8d 8c 99 c0 02 00 00	leal	0x2c0(%ecx,%ebx,4), %ecx
00017d99	89 11	movl	%edx, P24C_SW_1ST_VECTOR_NUM(%ecx)
00017d9b	89 ce	movl	%ecx, %esi
00017d9d	83 e6 f0	andl	$-0x10, %esi
00017da0	83 e1 0f	andl	$0xf, %ecx
00017da3	83 c1 4f	addl	$0x4f, %ecx
00017da6	83 e1 d0	andl	$-0x30, %ecx
00017da9	01 f1	addl	%esi, %ecx
00017dab	39 ce	cmpl	%ecx, %esi
00017dad	73 65	jae	0x17e14
00017daf	0f ae 3e	clflush	P24C_SW_1ST_VECTOR_NUM(%esi)
00017db2	83 c6 10	addl	$0x10, %esi
00017db5	eb f4	jmp	0x17dab
00017db7	80 3d e8 c8 00 00 00	cmpb	$0x0, _gPerfLogEnable
00017dbe	74 2a	je	0x17dea
00017dc0	89 c8	movl	%ecx, %eax
00017dc2	8b 0d f8 c8 00 00	movl	__ZN17IGMicroController9fInstanceE, %ecx ## IGMicroController::fInstance
00017dc8	89 44 24 0c	movl	%eax, 0xc(%esp)
00017dcc	89 5c 24 08	movl	%ebx, 0x8(%esp)
00017dd0	c7 44 24 10 fe ff ff ff	movl	$0xfffffffe, 0x10(%esp)
00017dd8	e9 2a 01 00 00	jmp	0x17f07
00017ddd	80 3d e8 c8 00 00 00	cmpb	$0x0, _gPerfLogEnable
00017de4	0f 85 08 01 00 00	jne	0x17ef2
00017dea	a1 80 00 e0 fe	movl	0xfee00080, %eax
00017def	c7 05 80 00 e0 fe f0 00 00 00	movl	$0xf0, -0x11fff80
00017df9	83 0d bc c1 e0 ff 01	orl	$0x1, -0x1f3e44
00017e00	c7 05 00 00 f9 ff 00 80 04 00	movl	$0x48000, -0x70000
00017e0a	a3 80 00 e0 fe	movl	%eax, 0xfee00080
00017e0f	e9 cc 00 00 00	jmp	0x17ee0
00017e14	89 7c 24 48	movl	%edi, 0x48(%esp)
00017e18	31 c9	xorl	%ecx, %ecx
00017e1a	41	incl	%ecx
00017e1b	89 df	movl	%ebx, %edi
00017e1d	89 cb	movl	%ecx, %ebx
00017e1f	89 0d 20 c0 e0 ff	movl	%ecx, -0x1f3fe0
00017e25	8b 4d 74	movl	0x74(%ebp), %ecx
00017e28	be 00 f0 ff ff	movl	$0xfffff000, %esi
00017e2d	21 f1	andl	%esi, %ecx
00017e2f	89 7c 24 24	movl	%edi, 0x24(%esp)
00017e33	c1 e7 0c	shll	$0xc, %edi
00017e36	01 cf	addl	%ecx, %edi
00017e38	8d 34 17	leal	P24C_SW_1ST_VECTOR_NUM(%edi,%edx), %esi
00017e3b	83 64 3a 04 00	andl	$0x0, 0x4(%edx,%edi)
00017e40	89 1c 3a	movl	%ebx, P24C_SW_1ST_VECTOR_NUM(%edx,%edi)
00017e43	89 f2	movl	%esi, %edx
00017e45	83 ca 0f	orl	$0xf, %edx
00017e48	29 f2	subl	%esi, %edx
00017e4a	83 c2 40	addl	$0x40, %edx
00017e4d	83 e2 f0	andl	$-0x10, %edx
00017e50	01 f2	addl	%esi, %edx
00017e52	89 f1	movl	%esi, %ecx
00017e54	39 d1	cmpl	%edx, %ecx
00017e56	73 08	jae	0x17e60
00017e58	0f ae 39	clflush	P24C_SW_1ST_VECTOR_NUM(%ecx)
00017e5b	83 c1 10	addl	$0x10, %ecx
00017e5e	eb f4	jmp	0x17e54
00017e60	8b 7c 24 24	movl	0x24(%esp), %edi
00017e64	39 d6	cmpl	%edx, %esi
00017e66	73 08	jae	0x17e70
00017e68	0f ae 3e	clflush	P24C_SW_1ST_VECTOR_NUM(%esi)
00017e6b	83 c6 10	addl	$0x10, %esi
00017e6e	eb f4	jmp	0x17e64
00017e70	31 f6	xorl	%esi, %esi
00017e72	46	incl	%esi
00017e73	89 35 20 c0 e0 ff	movl	%esi, -0x1f3fe0
00017e79	89 35 20 c0 e0 ff	movl	%esi, -0x1f3fe0
00017e7f	8b 0d 80 00 e0 fe	movl	-0x11fff80, %ecx
00017e85	c7 05 80 00 e0 fe f0 00 00 00	movl	$0xf0, -0x11fff80
00017e8f	8b 15 60 c0 e0 ff	movl	-0x1f3fa0, %edx
00017e95	89 c3	movl	%eax, %ebx
00017e97	8b 44 24 34	movl	0x34(%esp), %eax
00017e9b	a3 60 c0 e0 ff	movl	%eax, 0xffe0c060
00017ea0	89 d8	movl	%ebx, %eax
00017ea2	8b 5c 24 3c	movl	0x3c(%esp), %ebx
00017ea6	c7 04 9d 00 1a e0 ff 00 00 00 00	movl	$P24C_SW_1ST_VECTOR_NUM, -0x1fe600(,%ebx,4)
00017eb1	89 15 60 c0 e0 ff	movl	%edx, -0x1f3fa0
00017eb7	89 0d 80 00 e0 fe	movl	%ecx, -0x11fff80
00017ebd	8b 4c 24 48	movl	0x48(%esp), %ecx
00017ec1	89 81 00 10 e0 ff	movl	%eax, -0x1ff000(%ecx)
00017ec7	8b 4c 24 20	movl	0x20(%esp), %ecx
00017ecb	09 f1	orl	%esi, %ecx
00017ecd	8b 54 24 38	movl	0x38(%esp), %edx
00017ed1	89 8a 00 10 e0 ff	movl	%ecx, -0x1ff000(%edx)
00017ed7	80 3d e8 c8 00 00 00	cmpb	$0x0, _gPerfLogEnable
00017ede	75 3f	jne	0x17f1f
00017ee0	8d 4c 24 28	leal	0x28(%esp), %ecx
00017ee4	e8 23 0a 00 00	calll	__ZN10IGUkBitSetILj6EE13ConstIteratorppEv ## IGUkBitSet<6u>::ConstIterator::operator++()
00017ee9	8b 4c 24 2c	movl	0x2c(%esp), %ecx
00017eed	e9 8a fd ff ff	jmp	0x17c7c
00017ef2	89 c8	movl	%ecx, %eax
00017ef4	8b 0d f8 c8 00 00	movl	__ZN17IGMicroController9fInstanceE, %ecx ## IGMicroController::fInstance
00017efa	89 44 24 0c	movl	%eax, 0xc(%esp)
00017efe	89 5c 24 08	movl	%ebx, 0x8(%esp)
00017f02	83 4c 24 10 ff	orl	$-0x1, 0x10(%esp)
00017f07	83 64 24 04 00	andl	$0x0, 0x4(%esp)
00017f0c	83 24 24 00	andl	$0x0, P24C_SW_1ST_VECTOR_NUM(%esp)
00017f10	ba 30 00 a7 85	movl	$0x85a70030, %edx
00017f15	e8 22 0a 00 00	calll	__ZN17IGMicroController27perfLogAppendKdebugConstantEjyjjj ## IGMicroController::perfLogAppendKdebugConstant(unsigned int, unsigned long long, unsigned int, unsigned int, unsigned int)
00017f1a	e9 cb fe ff ff	jmp	0x17dea
00017f1f	89 ca	movl	%ecx, %edx
00017f21	8b 0d f8 c8 00 00	movl	__ZN17IGMicroController9fInstanceE, %ecx ## IGMicroController::fInstance
00017f27	89 44 24 10	movl	%eax, 0x10(%esp)
00017f2b	89 54 24 0c	movl	%edx, 0xc(%esp)
00017f2f	89 7c 24 08	movl	%edi, 0x8(%esp)
00017f33	83 64 24 04 00	andl	$0x0, 0x4(%esp)
00017f38	83 24 24 00	andl	$0x0, P24C_SW_1ST_VECTOR_NUM(%esp)
00017f3c	ba 30 00 a7 85	movl	$0x85a70030, %edx
00017f41	e8 f6 09 00 00	calll	__ZN17IGMicroController27perfLogAppendKdebugConstantEjyjjj ## IGMicroController::perfLogAppendKdebugConstant(unsigned int, unsigned long long, unsigned int, unsigned int, unsigned int)
00017f46	eb 98	jmp	0x17ee0
00017f48	b8 c0 02 00 00	movl	$0x2c0, %eax
00017f4d	03 45 20	addl	0x20(%ebp), %eax
00017f50	89 c1	movl	%eax, %ecx
00017f52	83 e1 f0	andl	$-0x10, %ecx
00017f55	83 e0 0f	andl	$0xf, %eax
00017f58	83 c0 4f	addl	$0x4f, %eax
00017f5b	83 e0 d0	andl	$-0x30, %eax
00017f5e	01 c8	addl	%ecx, %eax
00017f60	39 c1	cmpl	%eax, %ecx
00017f62	73 08	jae	0x17f6c
00017f64	0f ae 39	clflush	P24C_SW_1ST_VECTOR_NUM(%ecx)
00017f67	83 c1 10	addl	$0x10, %ecx
00017f6a	eb f4	jmp	0x17f60
00017f6c	b8 c0 02 00 00	movl	$0x2c0, %eax
00017f71	03 45 20	addl	0x20(%ebp), %eax
00017f74	89 c1	movl	%eax, %ecx
00017f76	83 e1 f0	andl	$-0x10, %ecx
00017f79	83 e0 0f	andl	$0xf, %eax
00017f7c	83 c0 4f	addl	$0x4f, %eax
00017f7f	83 e0 d0	andl	$-0x30, %eax
00017f82	01 c8	addl	%ecx, %eax
00017f84	39 c1	cmpl	%eax, %ecx
00017f86	73 08	jae	0x17f90
00017f88	0f ae 39	clflush	P24C_SW_1ST_VECTOR_NUM(%ecx)
00017f8b	83 c1 10	addl	$0x10, %ecx
00017f8e	eb f4	jmp	0x17f84
00017f90	c7 05 20 c0 e0 ff 01 00 00 00	movl	$0x1, -0x1f3fe0
00017f9a	6a 03	pushl	$0x3
00017f9c	5e	popl	%esi
00017f9d	89 34 24	movl	%esi, P24C_SW_1ST_VECTOR_NUM(%esp)
00017fa0	31 d2	xorl	%edx, %edx
00017fa2	42	incl	%edx
00017fa3	89 e9	movl	%ebp, %ecx
00017fa5	e8 e0 06 00 00	calll	__ZN17IGMicroController9forceWakeEbj ## IGMicroController::forceWake(bool, unsigned int)
00017faa	a1 98 59 f4 ff	movl	0xfff45998, %eax
00017faf	0f b6 c0	movzbl	%al, %eax
00017fb2	8d 04 40	leal	P24C_SW_1ST_VECTOR_NUM(%eax,%eax,2), %eax
00017fb5	89 85 e4 43 00 00	movl	%eax, 0x43e4(%ebp)
00017fbb	89 34 24	movl	%esi, P24C_SW_1ST_VECTOR_NUM(%esp)
00017fbe	89 e9	movl	%ebp, %ecx
00017fc0	31 d2	xorl	%edx, %edx
00017fc2	e8 c3 06 00 00	calll	__ZN17IGMicroController9forceWakeEbj ## IGMicroController::forceWake(bool, unsigned int)
00017fc7	fb	sti
00017fc8	0f b6 85 a6 00 00 00	movzbl	0xa6(%ebp), %eax
00017fcf	c1 e0 10	shll	$0x10, %eax
00017fd2	3d 00 00 01 00	cmpl	$0x10000, %eax
00017fd7	0f 84 87 00 00 00	je	0x18064
00017fdd	31 c0	xorl	%eax, %eax
00017fdf	31 db	xorl	%ebx, %ebx
00017fe1	31 c9	xorl	%ecx, %ecx
00017fe3	31 d2	xorl	%edx, %edx
00017fe5	0f a2	cpuid
00017fe7	a3 84 c1 e0 ff	movl	%eax, 0xffe0c184
00017fec	89 1d 88 c1 e0 ff	movl	%ebx, -0x1f3e78
00017ff2	89 0d 8c c1 e0 ff	movl	%ecx, -0x1f3e74
00017ff8	89 15 90 c1 e0 ff	movl	%edx, -0x1f3e70
00017ffe	31 c0	xorl	%eax, %eax
00018000	40	incl	%eax
00018001	31 db	xorl	%ebx, %ebx
00018003	31 c9	xorl	%ecx, %ecx
00018005	31 d2	xorl	%edx, %edx
00018007	0f a2	cpuid
00018009	a3 94 c1 e0 ff	movl	%eax, 0xffe0c194
0001800e	89 1d 98 c1 e0 ff	movl	%ebx, -0x1f3e68
00018014	89 0d 9c c1 e0 ff	movl	%ecx, -0x1f3e64
0001801a	89 15 a0 c1 e0 ff	movl	%edx, -0x1f3e60
00018020	c7 05 a4 c1 e0 ff 02 0f 05 00	movl	$0x50f02, -0x1f3e5c
0001802a	a1 e0 90 e0 ff	movl	0xffe090e0, %eax
0001802f	83 e0 12	andl	$0x12, %eax
00018032	83 f8 02	cmpl	$0x2, %eax
00018035	75 2d	jne	0x18064
00018037	83 0d 3c c5 e0 ff 01	orl	$0x1, -0x1f3ac4
0001803e	6a 38	pushl	$0x38
00018040	5e	popl	%esi
00018041	89 34 24	movl	%esi, P24C_SW_1ST_VECTOR_NUM(%esp)
00018044	31 d2	xorl	%edx, %edx
00018046	42	incl	%edx
00018047	89 e9	movl	%ebp, %ecx
00018049	e8 3c 06 00 00	calll	__ZN17IGMicroController9forceWakeEbj ## IGMicroController::forceWake(bool, unsigned int)
0001804e	c7 05 b4 25 e3 ff ff ff 00 80	movl	$0x8000ffff, -0x1cda4c
00018058	89 34 24	movl	%esi, P24C_SW_1ST_VECTOR_NUM(%esp)
0001805b	89 e9	movl	%ebp, %ecx
0001805d	31 d2	xorl	%edx, %edx
0001805f	e8 26 06 00 00	calll	__ZN17IGMicroController9forceWakeEbj ## IGMicroController::forceWake(bool, unsigned int)
00018064	b8 ff 00 ff ff	movl	$0xffff00ff, %eax
00018069	23 05 00 c0 e0 ff	andl	-0x1f4000, %eax
0001806f	0d 00 f0 00 00	orl	$0xf000, %eax
00018074	89 85 a4 00 00 00	movl	%eax, 0xa4(%ebp)
0001807a	a3 00 c0 e0 ff	movl	%eax, 0xffe0c000
0001807f	0f b6 85 a6 00 00 00	movzbl	0xa6(%ebp), %eax
00018086	c1 e0 10	shll	$0x10, %eax
00018089	3d 00 00 01 00	cmpl	$0x10000, %eax
0001808e	74 0a	je	0x1809a
00018090	c7 05 80 c1 e0 ff 81 00 00 00	movl	$0x81, -0x1f3e80
0001809a	80 3d e8 c8 00 00 00	cmpb	$0x0, _gPerfLogEnable
000180a1	0f 85 46 05 00 00	jne	0x185ed
000180a7	e8 d7 8d ff ff	calll	_UkAsmDisableBootRomData
000180ac	8d 85 48 43 00 00	leal	0x4348(%ebp), %eax
000180b2	89 44 24 3c	movl	%eax, 0x3c(%esp)
000180b6	31 ff	xorl	%edi, %edi
000180b8	47	incl	%edi
000180b9	8b 35 80 00 e0 fe	movl	-0x11fff80, %esi
000180bf	c7 05 80 00 e0 fe f0 00 00 00	movl	$0xf0, -0x11fff80
000180c9	8b 85 18 04 00 00	movl	0x418(%ebp), %eax
000180cf	85 c0	testl	%eax, %eax
000180d1	74 27	je	0x180fa
000180d3	0f bc d8	bsfl	%eax, %ebx
000180d6	89 d8	movl	%ebx, %eax
000180d8	c1 e0 05	shll	$0x5, %eax
000180db	8d 8c 05 d4 02 00 00	leal	0x2d4(%ebp,%eax), %ecx
000180e2	89 fa	movl	%edi, %edx
000180e4	e8 cb 13 00 00	calll	__ZN21IGGucTimerEventSource12checkForWorkEj ## IGGucTimerEventSource::checkForWork(unsigned int)
000180e9	8b 85 18 04 00 00	movl	0x418(%ebp), %eax
000180ef	0f bb d8	btcl	%ebx, %eax
000180f2	89 85 18 04 00 00	movl	%eax, 0x418(%ebp)
000180f8	eb d5	jmp	0x180cf
000180fa	89 35 80 00 e0 fe	movl	%esi, -0x11fff80
00018100	a1 80 00 e0 fe	movl	0xfee00080, %eax
00018105	c7 05 80 00 e0 fe f0 00 00 00	movl	$0xf0, -0x11fff80
0001810f	31 c9	xorl	%ecx, %ecx
00018111	87 8d b0 00 00 00	xchgl	%ecx, SEMAPHORE_VECTOR_2(%ebp)
00018117	a3 80 00 e0 fe	movl	%eax, 0xfee00080
0001811c	89 4c 24 38	movl	%ecx, 0x38(%esp)
00018120	85 c9	testl	%ecx, %ecx
00018122	74 0d	je	0x18131
00018124	80 bd 0b 44 00 00 00	cmpb	$0x0, 0x440b(%ebp)
0001812b	0f 84 1d 01 00 00	je	0x1824e
00018131	fa	cli
00018132	83 bd b0 00 00 00 00	cmpl	$0x0, SEMAPHORE_VECTOR_2(%ebp)
00018139	74 06	je	0x18141
0001813b	fb	sti
0001813c	e9 78 ff ff ff	jmp	0x180b9
00018141	8b 4c 24 3c	movl	0x3c(%esp), %ecx
00018145	e8 68 07 00 00	calll	__ZNK10IGUkBitSetILj6EE5beginEv ## IGUkBitSet<6u>::begin() const
0001814a	89 d3	movl	%edx, %ebx
0001814c	89 54 24 2c	movl	%edx, 0x2c(%esp)
00018150	89 44 24 28	movl	%eax, 0x28(%esp)
00018154	31 f6	xorl	%esi, %esi
00018156	85 db	testl	%ebx, %ebx
00018158	74 30	je	0x1818a
0001815a	8b 84 9d 3c 04 00 00	movl	0x43c(%ebp,%ebx,4), %eax
00018161	4b	decl	%ebx
00018162	83 c0 50	addl	$0x50, %eax
00018165	89 04 24	movl	%eax, P24C_SW_1ST_VECTOR_NUM(%esp)
00018168	e8 73 aa ff ff	calll	__ZNK10IGUkBitSetILj64EE3anyEv ## IGUkBitSet<64u>::any() const
0001816d	89 fa	movl	%edi, %edx
0001816f	89 d9	movl	%ebx, %ecx
00018171	d3 e2	shll	%cl, %edx
00018173	84 c0	testb	%al, %al
00018175	75 02	jne	0x18179
00018177	31 d2	xorl	%edx, %edx
00018179	09 d6	orl	%edx, %esi
0001817b	8d 4c 24 28	leal	0x28(%esp), %ecx
0001817f	e8 88 07 00 00	calll	__ZN10IGUkBitSetILj6EE13ConstIteratorppEv ## IGUkBitSet<6u>::ConstIterator::operator++()
00018184	8b 5c 24 2c	movl	0x2c(%esp), %ebx
00018188	eb cc	jmp	0x18156
0001818a	8b 45 20	movl	0x20(%ebp), %eax
0001818d	89 b0 40 02 00 00	movl	%esi, 0x240(%eax)
00018193	05 40 02 00 00	addl	$0x240, %eax
00018198	89 c1	movl	%eax, %ecx
0001819a	83 e1 f0	andl	$-0x10, %ecx
0001819d	83 e0 0f	andl	$0xf, %eax
000181a0	83 c0 4f	addl	$0x4f, %eax
000181a3	83 e0 d0	andl	$-0x30, %eax
000181a6	01 c8	addl	%ecx, %eax
000181a8	39 c1	cmpl	%eax, %ecx
000181aa	73 08	jae	0x181b4
000181ac	0f ae 39	clflush	P24C_SW_1ST_VECTOR_NUM(%ecx)
000181af	83 c1 10	addl	$0x10, %ecx
000181b2	eb f4	jmp	0x181a8
000181b4	c7 05 20 c0 e0 ff 01 00 00 00	movl	$0x1, -0x1f3fe0
000181be	8b 45 20	movl	0x20(%ebp), %eax
000181c1	8b 8d b8 00 00 00	movl	0xb8(%ebp), %ecx
000181c7	89 88 80 02 00 00	movl	%ecx, 0x280(%eax)
000181cd	05 80 02 00 00	addl	$0x280, %eax
000181d2	89 c1	movl	%eax, %ecx
000181d4	83 e1 f0	andl	$-0x10, %ecx
000181d7	83 e0 0f	andl	$0xf, %eax
000181da	83 c0 4f	addl	$0x4f, %eax
000181dd	83 e0 d0	andl	$-0x30, %eax
000181e0	01 c8	addl	%ecx, %eax
000181e2	39 c1	cmpl	%eax, %ecx
000181e4	73 08	jae	0x181ee
000181e6	0f ae 39	clflush	P24C_SW_1ST_VECTOR_NUM(%ecx)
000181e9	83 c1 10	addl	$0x10, %ecx
000181ec	eb f4	jmp	0x181e2
000181ee	c7 05 28 c0 e0 ff 01 00 00 00	movl	$0x1, -0x1f3fd8
000181f8	a1 00 c0 e0 ff	movl	0xffe0c000, %eax
000181fd	b9 ff ff 00 ff	movl	$0xff00ffff, %ecx
00018202	21 c8	andl	%ecx, %eax
00018204	0d 00 00 02 00	orl	$0x20000, %eax
00018209	89 85 a4 00 00 00	movl	%eax, 0xa4(%ebp)
0001820f	a3 00 c0 e0 ff	movl	%eax, 0xffe0c000
00018214	80 3d e8 c8 00 00 00	cmpb	$0x0, _gPerfLogEnable
0001821b	0f 85 1f 03 00 00	jne	0x18540
00018221	fb	sti
00018222	f4	hlt
00018223	8b 45 00	movl	(%ebp), %eax
00018226	8b 4d 04	movl	0x4(%ebp), %ecx
00018229	83 c0 01	addl	$0x1, %eax
0001822c	83 d1 00	adcl	$0x0, %ecx
0001822f	89 45 00	movl	%eax, (%ebp)
00018232	89 4d 04	movl	%ecx, 0x4(%ebp)
00018235	80 3d e8 c8 00 00 00	cmpb	$0x0, _gPerfLogEnable
0001823c	0f 85 34 03 00 00	jne	0x18576
00018242	80 a5 a8 00 00 00 fc	andb	$-0x4, 0xa8(%ebp)
00018249	e9 6b fe ff ff	jmp	0x180b9
0001824e	8b 4c 24 3c	movl	0x3c(%esp), %ecx
00018252	e8 5b 06 00 00	calll	__ZNK10IGUkBitSetILj6EE5beginEv ## IGUkBitSet<6u>::begin() const
00018257	89 54 24 44	movl	%edx, 0x44(%esp)
0001825b	89 44 24 40	movl	%eax, 0x40(%esp)
0001825f	85 d2	testl	%edx, %edx
00018261	0f 84 ca fe ff ff	je	0x18131
00018267	6b c2 5d	imull	$0x5d, %edx, %eax
0001826a	8b 4c 24 38	movl	0x38(%esp), %ecx
0001826e	85 88 d8 9b 01 00	testl	%ecx, 0x19bd8(%eax)
00018274	0f 84 96 01 00 00	je	0x18410
0001827a	8b b4 95 3c 04 00 00	movl	0x43c(%ebp,%edx,4), %esi
00018281	a1 80 00 e0 fe	movl	0xfee00080, %eax
00018286	89 44 24 20	movl	%eax, 0x20(%esp)
0001828a	c7 05 80 00 e0 fe f0 00 00 00	movl	$0xf0, -0x11fff80
00018294	80 3d e8 c8 00 00 00	cmpb	$0x0, _gPerfLogEnable
0001829b	0f 85 81 01 00 00	jne	0x18422
000182a1	0f b6 46 24	movzbl	0x24(%esi), %eax
000182a5	6b c0 5d	imull	$0x5d, %eax, %eax
000182a8	8b 90 35 9c 01 00	movl	0x19c35(%eax), %edx
000182ae	89 f9	movl	%edi, %ecx
000182b0	e8 07 9a ff ff	calll	__ZN4iguk9forceWakeEbj ## iguk::forceWake(bool, unsigned int)
000182b5	8b 46 20	movl	0x20(%esi), %eax
000182b8	83 7c c6 0c 00	cmpl	$0x0, 0xc(%esi,%eax,8)
000182bd	75 0b	jne	0x182ca
000182bf	89 f9	movl	%edi, %ecx
000182c1	29 c1	subl	%eax, %ecx
000182c3	83 7c ce 0c 00	cmpl	$0x0, 0xc(%esi,%ecx,8)
000182c8	74 07	je	0x182d1
000182ca	89 f1	movl	%esi, %ecx
000182cc	e8 05 c8 ff ff	calll	__ZN21IGCommandStreamerBase26processContextStatusBufferEv ## IGCommandStreamerBase::processContextStatusBuffer()
000182d1	8b 06	movl	P24C_SW_1ST_VECTOR_NUM(%esi), %eax
000182d3	89 34 24	movl	%esi, P24C_SW_1ST_VECTOR_NUM(%esp)
000182d6	ff 50 38	calll	*0x38(%eax)
000182d9	84 c0	testb	%al, %al
000182db	74 1a	je	0x182f7
000182dd	8b 46 20	movl	0x20(%esi), %eax
000182e0	8b 44 c6 0c	movl	0xc(%esi,%eax,8), %eax
000182e4	85 c0	testl	%eax, %eax
000182e6	74 0f	je	0x182f7
000182e8	8b 40 14	movl	0x14(%eax), %eax
000182eb	a9 00 00 1f 00	testl	$0x1f0000, %eax
000182f0	74 05	je	0x182f7
000182f2	83 e0 20	andl	$0x20, %eax
000182f5	74 08	je	0x182ff
000182f7	8b 06	movl	P24C_SW_1ST_VECTOR_NUM(%esi), %eax
000182f9	89 34 24	movl	%esi, P24C_SW_1ST_VECTOR_NUM(%esp)
000182fc	ff 50 40	calll	*0x40(%eax)
000182ff	31 db	xorl	%ebx, %ebx
00018301	80 7e 1c 00	cmpb	$0x0, 0x1c(%esi)
00018305	0f 84 db 00 00 00	je	0x183e6
0001830b	8b 46 20	movl	0x20(%esi), %eax
0001830e	83 7c c6 10 00	cmpl	$0x0, 0x10(%esi,%eax,8)
00018313	74 10	je	0x18325
00018315	8b 06	movl	P24C_SW_1ST_VECTOR_NUM(%esi), %eax
00018317	89 34 24	movl	%esi, P24C_SW_1ST_VECTOR_NUM(%esp)
0001831a	ff 50 38	calll	*0x38(%eax)
0001831d	84 c0	testb	%al, %al
0001831f	0f 84 c1 00 00 00	je	0x183e6
00018325	80 3d e8 c8 00 00 00	cmpb	$0x0, _gPerfLogEnable
0001832c	0f 85 95 01 00 00	jne	0x184c7
00018332	83 64 24 2c 00	andl	$0x0, 0x2c(%esp)
00018337	83 64 24 28 00	andl	$0x0, 0x28(%esp)
0001833c	8b 06	movl	P24C_SW_1ST_VECTOR_NUM(%esi), %eax
0001833e	89 34 24	movl	%esi, P24C_SW_1ST_VECTOR_NUM(%esp)
00018341	ff 50 0c	calll	*0xc(%eax)
00018344	8b 06	movl	P24C_SW_1ST_VECTOR_NUM(%esi), %eax
00018346	89 34 24	movl	%esi, P24C_SW_1ST_VECTOR_NUM(%esp)
00018349	ff 50 38	calll	*0x38(%eax)
0001834c	83 24 24 00	andl	$0x0, P24C_SW_1ST_VECTOR_NUM(%esp)
00018350	0f b6 d0	movzbl	%al, %edx
00018353	89 f1	movl	%esi, %ecx
00018355	89 54 24 24	movl	%edx, 0x24(%esp)
00018359	e8 08 ca ff ff	calll	__ZN21IGCommandStreamerBase13evalWaitQueueEbb ## IGCommandStreamerBase::evalWaitQueue(bool, bool)
0001835e	89 c3	movl	%eax, %ebx
00018360	f6 c3 08	testb	$0x8, %bl
00018363	75 16	jne	0x1837b
00018365	8b 06	movl	P24C_SW_1ST_VECTOR_NUM(%esi), %eax
00018367	89 5c 24 08	movl	%ebx, 0x8(%esp)
0001836b	8d 4c 24 28	leal	0x28(%esp), %ecx
0001836f	89 4c 24 04	movl	%ecx, 0x4(%esp)
00018373	89 34 24	movl	%esi, P24C_SW_1ST_VECTOR_NUM(%esp)
00018376	ff 50 14	calll	*0x14(%eax)
00018379	89 c3	movl	%eax, %ebx
0001837b	a1 f8 c8 00 00	movl	__ZN17IGMicroController9fInstanceE, %eax ## IGMicroController::fInstance
00018380	80 78 3c 00	cmpb	$0x0, 0x3c(%eax)
00018384	78 38	js	0x183be
00018386	8d 46 50	leal	0x50(%esi), %eax
00018389	89 04 24	movl	%eax, P24C_SW_1ST_VECTOR_NUM(%esp)
0001838c	e8 4f a8 ff ff	calll	__ZNK10IGUkBitSetILj64EE3anyEv ## IGUkBitSet<64u>::any() const
00018391	84 c0	testb	%al, %al
00018393	74 29	je	0x183be
00018395	89 f8	movl	%edi, %eax
00018397	2b 46 20	subl	0x20(%esi), %eax
0001839a	83 7c c6 10 00	cmpl	$0x0, 0x10(%esi,%eax,8)
0001839f	75 1d	jne	0x183be
000183a1	a1 f8 c8 00 00	movl	__ZN17IGMicroController9fInstanceE, %eax ## IGMicroController::fInstance
000183a6	f6 40 3c 01	testb	$0x1, 0x3c(%eax)
000183aa	75 12	jne	0x183be
000183ac	c7 04 24 01 00 00 00	movl	$0x1, P24C_SW_1ST_VECTOR_NUM(%esp)
000183b3	89 f1	movl	%esi, %ecx
000183b5	31 d2	xorl	%edx, %edx
000183b7	e8 aa c9 ff ff	calll	__ZN21IGCommandStreamerBase13evalWaitQueueEbb ## IGCommandStreamerBase::evalWaitQueue(bool, bool)
000183bc	09 c3	orl	%eax, %ebx
000183be	f6 c3 08	testb	$0x8, %bl
000183c1	74 16	je	0x183d9
000183c3	8b 06	movl	P24C_SW_1ST_VECTOR_NUM(%esi), %eax
000183c5	8d 4c 24 28	leal	0x28(%esp), %ecx
000183c9	89 4c 24 08	movl	%ecx, 0x8(%esp)
000183cd	89 5c 24 04	movl	%ebx, 0x4(%esp)
000183d1	89 34 24	movl	%esi, P24C_SW_1ST_VECTOR_NUM(%esp)
000183d4	ff 50 18	calll	*0x18(%eax)
000183d7	89 c3	movl	%eax, %ebx
000183d9	80 3d e8 c8 00 00 00	cmpb	$0x0, _gPerfLogEnable
000183e0	0f 85 14 01 00 00	jne	0x184fa
000183e6	80 3d e8 c8 00 00 00	cmpb	$0x0, _gPerfLogEnable
000183ed	0f 85 89 00 00 00	jne	0x1847c
000183f3	0f b6 46 24	movzbl	0x24(%esi), %eax
000183f7	6b c0 5d	imull	$0x5d, %eax, %eax
000183fa	8b 90 35 9c 01 00	movl	0x19c35(%eax), %edx
00018400	31 c9	xorl	%ecx, %ecx
00018402	e8 b5 98 ff ff	calll	__ZN4iguk9forceWakeEbj ## iguk::forceWake(bool, unsigned int)
00018407	8b 44 24 20	movl	0x20(%esp), %eax
0001840b	a3 80 00 e0 fe	movl	%eax, 0xfee00080
00018410	8d 4c 24 40	leal	0x40(%esp), %ecx
00018414	e8 f3 04 00 00	calll	__ZN10IGUkBitSetILj6EE13ConstIteratorppEv ## IGUkBitSet<6u>::ConstIterator::operator++()
00018419	8b 54 24 44	movl	0x44(%esp), %edx
0001841d	e9 3d fe ff ff	jmp	0x1825f
00018422	a1 f8 c8 00 00	movl	__ZN17IGMicroController9fInstanceE, %eax ## IGMicroController::fInstance
00018427	89 44 24 24	movl	%eax, 0x24(%esp)
0001842b	0f b6 46 24	movzbl	0x24(%esi), %eax
0001842f	8d 04 85 61 00 a7 85	leal	-0x7a58ff9f(,%eax,4), %eax
00018436	89 44 24 34	movl	%eax, 0x34(%esp)
0001843a	8b 5e 20	movl	0x20(%esi), %ebx
0001843d	31 c9	xorl	%ecx, %ecx
0001843f	31 d2	xorl	%edx, %edx
00018441	39 54 de 0c	cmpl	%edx, 0xc(%esi,%ebx,8)
00018445	0f 95 c1	setne	%cl
00018448	31 c0	xorl	%eax, %eax
0001844a	39 54 de 10	cmpl	%edx, 0x10(%esi,%ebx,8)
0001844e	0f b6 5e 1c	movzbl	0x1c(%esi), %ebx
00018452	0f 95 c0	setne	%al
00018455	89 44 24 10	movl	%eax, 0x10(%esp)
00018459	89 4c 24 0c	movl	%ecx, 0xc(%esp)
0001845d	89 5c 24 08	movl	%ebx, 0x8(%esp)
00018461	83 64 24 04 00	andl	$0x0, 0x4(%esp)
00018466	83 24 24 00	andl	$0x0, P24C_SW_1ST_VECTOR_NUM(%esp)
0001846a	8b 4c 24 24	movl	0x24(%esp), %ecx
0001846e	8b 54 24 34	movl	0x34(%esp), %edx
00018472	e8 c5 04 00 00	calll	__ZN17IGMicroController27perfLogAppendKdebugConstantEjyjjj ## IGMicroController::perfLogAppendKdebugConstant(unsigned int, unsigned long long, unsigned int, unsigned int, unsigned int)
00018477	e9 25 fe ff ff	jmp	0x182a1
0001847c	a1 f8 c8 00 00	movl	__ZN17IGMicroController9fInstanceE, %eax ## IGMicroController::fInstance
00018481	89 44 24 24	movl	%eax, 0x24(%esp)
00018485	0f b6 46 24	movzbl	0x24(%esi), %eax
00018489	8d 04 85 62 00 a7 85	leal	-0x7a58ff9e(,%eax,4), %eax
00018490	89 44 24 34	movl	%eax, 0x34(%esp)
00018494	8b 06	movl	P24C_SW_1ST_VECTOR_NUM(%esi), %eax
00018496	89 34 24	movl	%esi, P24C_SW_1ST_VECTOR_NUM(%esp)
00018499	ff 50 38	calll	*0x38(%eax)
0001849c	0f b6 c0	movzbl	%al, %eax
0001849f	89 44 24 0c	movl	%eax, 0xc(%esp)
000184a3	89 5c 24 08	movl	%ebx, 0x8(%esp)
000184a7	83 64 24 10 00	andl	$0x0, 0x10(%esp)
000184ac	83 64 24 04 00	andl	$0x0, 0x4(%esp)
000184b1	83 24 24 00	andl	$0x0, P24C_SW_1ST_VECTOR_NUM(%esp)
000184b5	8b 4c 24 24	movl	0x24(%esp), %ecx
000184b9	8b 54 24 34	movl	0x34(%esp), %edx
000184bd	e8 7a 04 00 00	calll	__ZN17IGMicroController27perfLogAppendKdebugConstantEjyjjj ## IGMicroController::perfLogAppendKdebugConstant(unsigned int, unsigned long long, unsigned int, unsigned int, unsigned int)
000184c2	e9 2c ff ff ff	jmp	0x183f3
000184c7	8b 0d f8 c8 00 00	movl	__ZN17IGMicroController9fInstanceE, %ecx ## IGMicroController::fInstance
000184cd	0f b6 46 24	movzbl	0x24(%esi), %eax
000184d1	8d 14 85 01 01 a7 85	leal	-0x7a58feff(,%eax,4), %edx
000184d8	83 64 24 10 00	andl	$0x0, 0x10(%esp)
000184dd	83 64 24 0c 00	andl	$0x0, 0xc(%esp)
000184e2	83 64 24 08 00	andl	$0x0, 0x8(%esp)
000184e7	83 64 24 04 00	andl	$0x0, 0x4(%esp)
000184ec	83 24 24 00	andl	$0x0, P24C_SW_1ST_VECTOR_NUM(%esp)
000184f0	e8 47 04 00 00	calll	__ZN17IGMicroController27perfLogAppendKdebugConstantEjyjjj ## IGMicroController::perfLogAppendKdebugConstant(unsigned int, unsigned long long, unsigned int, unsigned int, unsigned int)
000184f5	e9 38 fe ff ff	jmp	0x18332
000184fa	a1 f8 c8 00 00	movl	__ZN17IGMicroController9fInstanceE, %eax ## IGMicroController::fInstance
000184ff	89 44 24 34	movl	%eax, 0x34(%esp)
00018503	0f b6 46 24	movzbl	0x24(%esi), %eax
00018507	8d 14 85 02 01 a7 85	leal	-0x7a58fefe(,%eax,4), %edx
0001850e	8b 4c 24 2c	movl	0x2c(%esp), %ecx
00018512	c1 e1 10	shll	$0x10, %ecx
00018515	0b 4c 24 28	orl	0x28(%esp), %ecx
00018519	8b 44 24 24	movl	0x24(%esp), %eax
0001851d	89 44 24 10	movl	%eax, 0x10(%esp)
00018521	89 4c 24 0c	movl	%ecx, 0xc(%esp)
00018525	89 5c 24 08	movl	%ebx, 0x8(%esp)
00018529	83 64 24 04 00	andl	$0x0, 0x4(%esp)
0001852e	83 24 24 00	andl	$0x0, P24C_SW_1ST_VECTOR_NUM(%esp)
00018532	8b 4c 24 34	movl	0x34(%esp), %ecx
00018536	e8 01 04 00 00	calll	__ZN17IGMicroController27perfLogAppendKdebugConstantEjyjjj ## IGMicroController::perfLogAppendKdebugConstant(unsigned int, unsigned long long, unsigned int, unsigned int, unsigned int)
0001853b	e9 a6 fe ff ff	jmp	0x183e6
00018540	8b 0d f8 c8 00 00	movl	__ZN17IGMicroController9fInstanceE, %ecx ## IGMicroController::fInstance
00018546	8b 85 b4 00 00 00	movl	SEMAPHORE_VECTOR_6(%ebp), %eax
0001854c	8b 95 b8 00 00 00	movl	0xb8(%ebp), %edx
00018552	89 54 24 10	movl	%edx, 0x10(%esp)
00018556	89 74 24 0c	movl	%esi, 0xc(%esp)
0001855a	89 44 24 08	movl	%eax, 0x8(%esp)
0001855e	83 64 24 04 00	andl	$0x0, 0x4(%esp)
00018563	83 24 24 00	andl	$0x0, P24C_SW_1ST_VECTOR_NUM(%esp)
00018567	ba 48 00 a7 85	movl	$0x85a70048, %edx
0001856c	e8 cb 03 00 00	calll	__ZN17IGMicroController27perfLogAppendKdebugConstantEjyjjj ## IGMicroController::perfLogAppendKdebugConstant(unsigned int, unsigned long long, unsigned int, unsigned int, unsigned int)
00018571	e9 ab fc ff ff	jmp	0x18221
00018576	8b 0d f8 c8 00 00	movl	__ZN17IGMicroController9fInstanceE, %ecx ## IGMicroController::fInstance
0001857c	89 44 24 08	movl	%eax, 0x8(%esp)
00018580	83 64 24 10 00	andl	$0x0, 0x10(%esp)
00018585	83 64 24 0c 00	andl	$0x0, 0xc(%esp)
0001858a	83 64 24 04 00	andl	$0x0, 0x4(%esp)
0001858f	83 24 24 00	andl	$0x0, P24C_SW_1ST_VECTOR_NUM(%esp)
00018593	ba 4c 00 a7 85	movl	$0x85a7004c, %edx
00018598	e8 9f 03 00 00	calll	__ZN17IGMicroController27perfLogAppendKdebugConstantEjyjjj ## IGMicroController::perfLogAppendKdebugConstant(unsigned int, unsigned long long, unsigned int, unsigned int, unsigned int)
0001859d	e9 a0 fc ff ff	jmp	0x18242
000185a2	a1 08 c0 e0 ff	movl	0xffe0c008, %eax
000185a7	b8 ff 00 ff ff	movl	$0xffff00ff, %eax
000185ac	23 05 00 c0 e0 ff	andl	-0x1f4000, %eax
000185b2	0d 00 02 00 00	orl	$0x200, %eax
000185b7	89 85 a4 00 00 00	movl	%eax, 0xa4(%ebp)
000185bd	a3 00 c0 e0 ff	movl	%eax, 0xffe0c000
000185c2	b8 ff ff 00 ff	movl	$0xff00ffff, %eax
000185c7	23 05 00 c0 e0 ff	andl	-0x1f4000, %eax
000185cd	0d 00 00 02 00	orl	$0x20000, %eax
000185d2	89 85 a4 00 00 00	movl	%eax, 0xa4(%ebp)
000185d8	a3 00 c0 e0 ff	movl	%eax, 0xffe0c000
000185dd	c7 05 28 c0 e0 ff 01 00 00 00	movl	$0x1, -0x1f3fd8
000185e7	f4	hlt
000185e8	e9 be f0 ff ff	jmp	0x176ab
000185ed	8b 0d f8 c8 00 00	movl	__ZN17IGMicroController9fInstanceE, %ecx ## IGMicroController::fInstance
000185f3	a1 f0 c8 00 00	movl	_gMainBegin, %eax
000185f8	8b 15 f4 c8 00 00	movl	0xc8f4, %edx
000185fe	89 54 24 04	movl	%edx, 0x4(%esp)
00018602	89 04 24	movl	%eax, P24C_SW_1ST_VECTOR_NUM(%esp)
00018605	83 64 24 10 00	andl	$0x0, 0x10(%esp)
0001860a	83 64 24 0c 00	andl	$0x0, 0xc(%esp)
0001860f	83 64 24 08 00	andl	$0x0, 0x8(%esp)
00018614	ba 01 00 a7 85	movl	$0x85a70001, %edx
00018619	e8 1e 03 00 00	calll	__ZN17IGMicroController27perfLogAppendKdebugConstantEjyjjj ## IGMicroController::perfLogAppendKdebugConstant(unsigned int, unsigned long long, unsigned int, unsigned int, unsigned int)
0001861e	80 3d e8 c8 00 00 00	cmpb	$0x0, _gPerfLogEnable
00018625	0f 84 7c fa ff ff	je	0x180a7
0001862b	8b 0d f8 c8 00 00	movl	__ZN17IGMicroController9fInstanceE, %ecx ## IGMicroController::fInstance
00018631	83 64 24 10 00	andl	$0x0, 0x10(%esp)
00018636	83 64 24 0c 00	andl	$0x0, 0xc(%esp)
0001863b	83 64 24 08 00	andl	$0x0, 0x8(%esp)
00018640	83 64 24 04 00	andl	$0x0, 0x4(%esp)
00018645	83 24 24 00	andl	$0x0, P24C_SW_1ST_VECTOR_NUM(%esp)
00018649	ba 02 00 a7 85	movl	$0x85a70002, %edx
0001864e	e8 e9 02 00 00	calll	__ZN17IGMicroController27perfLogAppendKdebugConstantEjyjjj ## IGMicroController::perfLogAppendKdebugConstant(unsigned int, unsigned long long, unsigned int, unsigned int, unsigned int)
00018653	e9 4f fa ff ff	jmp	0x180a7
00018658	8b 0d f8 c8 00 00	movl	__ZN17IGMicroController9fInstanceE, %ecx ## IGMicroController::fInstance
0001865e	8b 45 38	movl	0x38(%ebp), %eax
00018661	c1 e8 0c	shrl	$0xc, %eax
00018664	89 44 24 08	movl	%eax, 0x8(%esp)
00018668	83 64 24 10 00	andl	$0x0, 0x10(%esp)
0001866d	83 64 24 0c 00	andl	$0x0, 0xc(%esp)
00018672	83 64 24 04 00	andl	$0x0, 0x4(%esp)
00018677	83 24 24 00	andl	$0x0, P24C_SW_1ST_VECTOR_NUM(%esp)
0001867b	ba 04 00 a7 85	movl	$0x85a70004, %edx
00018680	e8 b7 02 00 00	calll	__ZN17IGMicroController27perfLogAppendKdebugConstantEjyjjj ## IGMicroController::perfLogAppendKdebugConstant(unsigned int, unsigned long long, unsigned int, unsigned int, unsigned int)
00018685	e9 7e ee ff ff	jmp	0x17508
__ZN17IGMicroController9forceWakeEbj:
0001868a	53	pushl	%ebx
0001868b	56	pushl	%esi
0001868c	50	pushl	%eax
0001868d	89 ce	movl	%ecx, %esi
0001868f	f6 81 ab 00 00 00 03	testb	$0x3, 0xab(%ecx)
00018696	74 06	je	0x1869e
00018698	8b 5c 24 10	movl	0x10(%esp), %ebx
0001869c	eb 03	jmp	0x186a1
0001869e	6a 3f	pushl	$0x3f
000186a0	5b	popl	%ebx
000186a1	84 d2	testb	%dl, %dl
000186a3	0f 84 fc 00 00 00	je	0x187a5
000186a9	f6 c3 03	testb	$0x3, %bl
000186ac	74 4f	je	0x186fd
000186ae	a1 80 00 e0 fe	movl	0xfee00080, %eax
000186b3	c7 05 80 00 e0 fe f0 00 00 00	movl	$0xf0, -0x11fff80
000186bd	8b 8e 0c 44 00 00	movl	0x440c(%esi), %ecx
000186c3	89 ca	movl	%ecx, %edx
000186c5	42	incl	%edx
000186c6	66 89 96 0c 44 00 00	movw	%dx, 0x440c(%esi)
000186cd	66 85 c9	testw	%cx, %cx
000186d0	75 26	jne	0x186f8
000186d2	8b 8e a8 00 00 00	movl	0xa8(%esi), %ecx
000186d8	89 ca	movl	%ecx, %edx
000186da	81 e2 00 00 00 01	andl	$0x1000000, %edx
000186e0	74 16	je	0x186f8
000186e2	81 c9 00 00 01 00	orl	$0x10000, %ecx
000186e8	89 8e a8 00 00 00	movl	%ecx, 0xa8(%esi)
000186ee	c7 05 7c a2 e0 ff 01 00 00 00	movl	$0x1, -0x1f5d84
000186f8	a3 80 00 e0 fe	movl	%eax, 0xfee00080
000186fd	f6 c3 38	testb	$0x38, %bl
00018700	74 52	je	0x18754
00018702	a1 80 00 e0 fe	movl	0xfee00080, %eax
00018707	c7 05 80 00 e0 fe f0 00 00 00	movl	$0xf0, -0x11fff80
00018711	0f b7 8e 0e 44 00 00	movzwl	0x440e(%esi), %ecx
00018718	89 ca	movl	%ecx, %edx
0001871a	42	incl	%edx
0001871b	66 89 96 0e 44 00 00	movw	%dx, 0x440e(%esi)
00018722	66 85 c9	testw	%cx, %cx
00018725	75 28	jne	0x1874f
00018727	8b 8e a8 00 00 00	movl	0xa8(%esi), %ecx
0001872d	89 ca	movl	%ecx, %edx
0001872f	81 e2 00 00 00 02	andl	$0x2000000, %edx
00018735	74 18	je	0x1874f
00018737	81 c9 00 00 02 00	orl	$0x20000, %ecx
0001873d	89 8e a8 00 00 00	movl	%ecx, 0xa8(%esi)
00018743	8b 8e 18 44 00 00	movl	0x4418(%esi), %ecx
00018749	89 0d 74 a2 e0 ff	movl	%ecx, -0x1f5d8c
0001874f	a3 80 00 e0 fe	movl	%eax, 0xfee00080
00018754	8b 86 a8 00 00 00	movl	0xa8(%esi), %eax
0001875a	a9 00 00 00 03	testl	$0x3000000, %eax
0001875f	0f 84 e7 00 00 00	je	0x1884c
00018765	f6 c3 03	testb	$0x3, %bl
00018768	74 24	je	0x1878e
0001876a	89 c1	movl	%eax, %ecx
0001876c	83 e1 01	andl	$0x1, %ecx
0001876f	75 1d	jne	0x1878e
00018771	89 f1	movl	%esi, %ecx
00018773	31 d2	xorl	%edx, %edx
00018775	e8 66 06 00 00	calll	__ZN17IGMicroController21waitForEngineWakeImplE10IGHwCsType ## IGMicroController::waitForEngineWakeImpl(IGHwCsType)
0001877a	0f b6 c8	movzbl	%al, %ecx
0001877d	8b 86 a8 00 00 00	movl	0xa8(%esi), %eax
00018783	83 e0 fe	andl	$-0x2, %eax
00018786	09 c8	orl	%ecx, %eax
00018788	89 86 a8 00 00 00	movl	%eax, 0xa8(%esi)
0001878e	f6 c3 38	testb	$0x38, %bl
00018791	0f 84 15 01 00 00	je	0x188ac
00018797	83 e0 02	andl	$0x2, %eax
0001879a	0f 84 c9 00 00 00	je	0x18869
000187a0	e9 07 01 00 00	jmp	0x188ac
000187a5	f6 c3 03	testb	$0x3, %bl
000187a8	74 4b	je	0x187f5
000187aa	a1 80 00 e0 fe	movl	0xfee00080, %eax
000187af	c7 05 80 00 e0 fe f0 00 00 00	movl	$0xf0, -0x11fff80
000187b9	8b 8e 0c 44 00 00	movl	0x440c(%esi), %ecx
000187bf	89 ca	movl	%ecx, %edx
000187c1	4a	decl	%edx
000187c2	66 89 96 0c 44 00 00	movw	%dx, 0x440c(%esi)
000187c9	66 83 f9 01	cmpw	$0x1, %cx
000187cd	75 21	jne	0x187f0
000187cf	b9 00 00 00 01	movl	$0x1000000, %ecx
000187d4	23 8e a8 00 00 00	andl	0xa8(%esi), %ecx
000187da	74 14	je	0x187f0
000187dc	c7 05 7c a2 e0 ff 00 00 00 00	movl	$P24C_SW_1ST_VECTOR_NUM, -0x1f5d84
000187e6	81 a6 a8 00 00 00 fe ff fe ff	andl	$0xfffefffe, 0xa8(%esi)
000187f0	a3 80 00 e0 fe	movl	%eax, 0xfee00080
000187f5	f6 c3 38	testb	$0x38, %bl
000187f8	0f 84 ae 00 00 00	je	0x188ac
000187fe	a1 80 00 e0 fe	movl	0xfee00080, %eax
00018803	c7 05 80 00 e0 fe f0 00 00 00	movl	$0xf0, -0x11fff80
0001880d	0f b7 8e 0e 44 00 00	movzwl	0x440e(%esi), %ecx
00018814	89 ca	movl	%ecx, %edx
00018816	4a	decl	%edx
00018817	66 89 96 0e 44 00 00	movw	%dx, 0x440e(%esi)
0001881e	66 83 f9 01	cmpw	$0x1, %cx
00018822	75 21	jne	0x18845
00018824	b9 00 00 00 02	movl	$0x2000000, %ecx
00018829	23 8e a8 00 00 00	andl	0xa8(%esi), %ecx
0001882f	74 14	je	0x18845
00018831	c7 05 74 a2 e0 ff 00 00 00 00	movl	$P24C_SW_1ST_VECTOR_NUM, -0x1f5d8c
0001883b	81 a6 a8 00 00 00 fd ff fd ff	andl	$0xfffdfffd, 0xa8(%esi)
00018845	a3 80 00 e0 fe	movl	%eax, 0xfee00080
0001884a	eb 60	jmp	0x188ac
0001884c	89 f1	movl	%esi, %ecx
0001884e	31 d2	xorl	%edx, %edx
00018850	e8 8b 05 00 00	calll	__ZN17IGMicroController21waitForEngineWakeImplE10IGHwCsType ## IGMicroController::waitForEngineWakeImpl(IGHwCsType)
00018855	0f b6 c0	movzbl	%al, %eax
00018858	8b 8e a8 00 00 00	movl	0xa8(%esi), %ecx
0001885e	83 e1 fe	andl	$-0x2, %ecx
00018861	09 c1	orl	%eax, %ecx
00018863	89 8e a8 00 00 00	movl	%ecx, 0xa8(%esi)
00018869	8b 86 18 44 00 00	movl	0x4418(%esi), %eax
0001886f	b3 01	movb	$0x1, %bl
00018871	a8 01	testb	$0x1, %al
00018873	74 12	je	0x18887
00018875	6a 03	pushl	$0x3
00018877	5a	popl	%edx
00018878	89 f1	movl	%esi, %ecx
0001887a	e8 61 05 00 00	calll	__ZN17IGMicroController21waitForEngineWakeImplE10IGHwCsType ## IGMicroController::waitForEngineWakeImpl(IGHwCsType)
0001887f	89 c3	movl	%eax, %ebx
00018881	8b 86 18 44 00 00	movl	0x4418(%esi), %eax
00018887	a8 04	testb	$0x4, %al
00018889	74 0c	je	0x18897
0001888b	6a 04	pushl	$0x4
0001888d	5a	popl	%edx
0001888e	89 f1	movl	%esi, %ecx
00018890	e8 4b 05 00 00	calll	__ZN17IGMicroController21waitForEngineWakeImplE10IGHwCsType ## IGMicroController::waitForEngineWakeImpl(IGHwCsType)
00018895	20 c3	andb	%al, %bl
00018897	8b 86 a8 00 00 00	movl	0xa8(%esi), %eax
0001889d	0f b6 cb	movzbl	%bl, %ecx
000188a0	83 e0 fd	andl	$-0x3, %eax
000188a3	8d 04 48	leal	P24C_SW_1ST_VECTOR_NUM(%eax,%ecx,2), %eax
000188a6	89 86 a8 00 00 00	movl	%eax, 0xa8(%esi)
000188ac	83 c4 04	addl	$0x4, %esp
000188af	5e	popl	%esi
000188b0	5b	popl	%ebx
000188b1	c3	retl
__ZNK10IGUkBitSetILj6EE5beginEv:
000188b2	53	pushl	%ebx
000188b3	57	pushl	%edi
000188b4	56	pushl	%esi
000188b5	89 c8	movl	%ecx, %eax
000188b7	31 ff	xorl	%edi, %edi
000188b9	31 c9	xorl	%ecx, %ecx
000188bb	49	decl	%ecx
000188bc	31 f6	xorl	%esi, %esi
000188be	46	incl	%esi
000188bf	31 d2	xorl	%edx, %edx
000188c1	89 fb	movl	%edi, %ebx
000188c3	09 d3	orl	%edx, %ebx
000188c5	75 12	jne	0x188d9
000188c7	8b 10	movl	P24C_SW_1ST_VECTOR_NUM(%eax), %edx
000188c9	85 d2	testl	%edx, %edx
000188cb	75 04	jne	0x188d1
000188cd	89 ca	movl	%ecx, %edx
000188cf	eb 03	jmp	0x188d4
000188d1	0f bc d2	bsfl	%edx, %edx
000188d4	42	incl	%edx
000188d5	89 f7	movl	%esi, %edi
000188d7	eb e8	jmp	0x188c1
000188d9	85 d2	testl	%edx, %edx
000188db	74 07	je	0x188e4
000188dd	c1 e7 05	shll	$0x5, %edi
000188e0	8d 54 17 e0	leal	-0x20(%edi,%edx), %edx
000188e4	5e	popl	%esi
000188e5	5f	popl	%edi
000188e6	5b	popl	%ebx
000188e7	c3	retl
__ZN10IGUkBitSetILj6EE5resetEj:
000188e8	53	pushl	%ebx
000188e9	56	pushl	%esi
000188ea	50	pushl	%eax
000188eb	89 d3	movl	%edx, %ebx
000188ed	89 ce	movl	%ecx, %esi
000188ef	89 d1	movl	%edx, %ecx
000188f1	e8 be e6 ff ff	calll	__ZNK10IGUkBitSetILj6EE12assertBoundsEj ## IGUkBitSet<6u>::assertBounds(unsigned int) const
000188f6	89 d8	movl	%ebx, %eax
000188f8	c1 e8 05	shrl	$0x5, %eax
000188fb	6a fe	pushl	$-0x2
000188fd	5a	popl	%edx
000188fe	89 d9	movl	%ebx, %ecx
00018900	d3 c2	roll	%cl, %edx
00018902	21 14 86	andl	%edx, P24C_SW_1ST_VECTOR_NUM(%esi,%eax,4)
00018905	83 c4 04	addl	$0x4, %esp
00018908	5e	popl	%esi
00018909	5b	popl	%ebx
0001890a	c3	retl
0001890b	90	nop
__ZN10IGUkBitSetILj6EE13ConstIteratorppEv:
0001890c	56	pushl	%esi
0001890d	89 c8	movl	%ecx, %eax
0001890f	8b 49 04	movl	0x4(%ecx), %ecx
00018912	83 f9 05	cmpl	$0x5, %ecx
00018915	77 20	ja	0x18937
00018917	8b 10	movl	P24C_SW_1ST_VECTOR_NUM(%eax), %edx
00018919	89 ce	movl	%ecx, %esi
0001891b	c1 ee 05	shrl	$0x5, %esi
0001891e	8b 14 b2	movl	P24C_SW_1ST_VECTOR_NUM(%edx,%esi,4), %edx
00018921	d3 ea	shrl	%cl, %edx
00018923	d3 e2	shll	%cl, %edx
00018925	85 d2	testl	%edx, %edx
00018927	75 05	jne	0x1892e
00018929	31 c9	xorl	%ecx, %ecx
0001892b	49	decl	%ecx
0001892c	eb 03	jmp	0x18931
0001892e	0f bc ca	bsfl	%edx, %ecx
00018931	41	incl	%ecx
00018932	89 48 04	movl	%ecx, 0x4(%eax)
00018935	5e	popl	%esi
00018936	c3	retl
00018937	31 c9	xorl	%ecx, %ecx
00018939	eb f7	jmp	0x18932
0001893b	90	nop
__ZN17IGMicroController27perfLogAppendKdebugConstantEjyjjj:
0001893c	55	pushl	%ebp
0001893d	53	pushl	%ebx
0001893e	57	pushl	%edi
0001893f	56	pushl	%esi
00018940	83 ec 4c	subl	$0x4c, %esp
00018943	89 54 24 48	movl	%edx, 0x48(%esp)
00018947	80 3d 19 0d 01 00 00	cmpb	$0x0, __ZGVZN17IGMicroController27perfLogAppendKdebugConstantEjyjjjE25kIGPerfLogBufCapacityMask ## guard variable for IGMicroController::perfLogAppendKdebugConstant(unsigned int, unsigned long long, unsigned int, unsigned int, unsigned int)::kIGPerfLogBufCapacityMask
0001894e	0f 84 26 03 00 00	je	0x18c7a
00018954	89 4c 24 34	movl	%ecx, 0x34(%esp)
00018958	8b 4c 24 64	movl	0x64(%esp), %ecx
0001895c	8b 44 24 60	movl	0x60(%esp), %eax
00018960	8b 1d ec c3 e0 ff	movl	-0x1f3c14, %ebx
00018966	8b 2d e8 c3 e0 ff	movl	-0x1f3c18, %ebp
0001896c	3b 1d ec c3 e0 ff	cmpl	-0x1f3c14, %ebx
00018972	75 ec	jne	0x18960
00018974	89 c2	movl	%eax, %edx
00018976	09 ca	orl	%ecx, %edx
00018978	89 df	movl	%ebx, %edi
0001897a	89 ee	movl	%ebp, %esi
0001897c	74 04	je	0x18982
0001897e	89 cf	movl	%ecx, %edi
00018980	89 c6	movl	%eax, %esi
00018982	8b 54 24 34	movl	0x34(%esp), %edx
00018986	8b 8a 04 44 00 00	movl	0x4404(%edx), %ecx
0001898c	85 c9	testl	%ecx, %ecx
0001898e	0f 84 c1 01 00 00	je	0x18b55
00018994	8b 42 28	movl	0x28(%edx), %eax
00018997	c1 e8 0c	shrl	$0xc, %eax
0001899a	89 44 24 30	movl	%eax, 0x30(%esp)
0001899e	8d 82 ac 00 00 00	leal	0xac(%edx), %eax
000189a4	89 44 24 38	movl	%eax, 0x38(%esp)
000189a8	80 ba 08 44 00 00 00	cmpb	$0x0, 0x4408(%edx)
000189af	8b 15 1c 0d 01 00	movl	__ZZN17IGMicroController27perfLogAppendKdebugConstantEjyjjjE25kIGPerfLogBufCapacityMask, %edx ## IGMicroController::perfLogAppendKdebugConstant(unsigned int, unsigned long long, unsigned int, unsigned int, unsigned int)::kIGPerfLogBufCapacityMask
000189b5	0f 84 9a 00 00 00	je	0x18a55
000189bb	89 4c 24 14	movl	%ecx, 0x14(%esp)
000189bf	89 7c 24 10	movl	%edi, 0x10(%esp)
000189c3	89 74 24 0c	movl	%esi, 0xc(%esp)
000189c7	8b 4c 24 38	movl	0x38(%esp), %ecx
000189cb	89 4c 24 04	movl	%ecx, 0x4(%esp)
000189cf	8d 74 24 2f	leal	0x2f(%esp), %esi
000189d3	89 74 24 20	movl	%esi, 0x20(%esp)
000189d7	8b 44 24 30	movl	0x30(%esp), %eax
000189db	89 04 24	movl	%eax, P24C_SW_1ST_VECTOR_NUM(%esp)
000189de	83 64 24 1c 00	andl	$0x0, 0x1c(%esp)
000189e3	83 64 24 18 00	andl	$0x0, 0x18(%esp)
000189e8	c7 44 24 08 c6 01 a7 85	movl	$0x85a701c6, 0x8(%esp)
000189f0	8b 7c 24 34	movl	0x34(%esp), %edi
000189f4	89 f9	movl	%edi, %ecx
000189f6	e8 9b 02 00 00	calll	__ZN17IGMicroController23logAppendKdebugConstantEjjjPjjyjjjPb ## IGMicroController::logAppendKdebugConstant(unsigned int, unsigned int, unsigned int, unsigned int*, unsigned int, unsigned long long, unsigned int, unsigned int, unsigned int, bool*)
000189fb	80 3e 00	cmpb	$0x0, P24C_SW_1ST_VECTOR_NUM(%esi)
000189fe	74 2d	je	0x18a2d
00018a00	83 a7 04 44 00 00 00	andl	$0x0, 0x4404(%edi)
00018a07	c6 87 08 44 00 00 00	movb	$0x0, 0x4408(%edi)
00018a0e	ff 87 f8 43 00 00	incl	0x43f8(%edi)
00018a14	8b 3d ec c3 e0 ff	movl	-0x1f3c14, %edi
00018a1a	8b 35 e8 c3 e0 ff	movl	-0x1f3c18, %esi
00018a20	3b 3d ec c3 e0 ff	cmpl	-0x1f3c14, %edi
00018a26	75 ec	jne	0x18a14
00018a28	e9 28 01 00 00	jmp	0x18b55
00018a2d	a1 ec c3 e0 ff	movl	0xffe0c3ec, %eax
00018a32	8b 0d e8 c3 e0 ff	movl	-0x1f3c18, %ecx
00018a38	3b 05 ec c3 e0 ff	cmpl	-0x1f3c14, %eax
00018a3e	75 ed	jne	0x18a2d
00018a40	29 e9	subl	%ebp, %ecx
00018a42	19 d8	sbbl	%ebx, %eax
00018a44	01 8f f0 43 00 00	addl	%ecx, 0x43f0(%edi)
00018a4a	11 87 f4 43 00 00	adcl	%eax, 0x43f4(%edi)
00018a50	e9 1d 02 00 00	jmp	0x18c72
00018a55	89 54 24 3c	movl	%edx, 0x3c(%esp)
00018a59	8b 54 24 34	movl	0x34(%esp), %edx
00018a5d	8b 82 fc 43 00 00	movl	0x43fc(%edx), %eax
00018a63	89 44 24 40	movl	%eax, 0x40(%esp)
00018a67	8b 82 00 44 00 00	movl	0x4400(%edx), %eax
00018a6d	89 44 24 44	movl	%eax, 0x44(%esp)
00018a71	89 4c 24 14	movl	%ecx, 0x14(%esp)
00018a75	8b 44 24 44	movl	0x44(%esp), %eax
00018a79	89 44 24 10	movl	%eax, 0x10(%esp)
00018a7d	8b 44 24 40	movl	0x40(%esp), %eax
00018a81	89 44 24 0c	movl	%eax, 0xc(%esp)
00018a85	8d 44 24 2f	leal	0x2f(%esp), %eax
00018a89	89 44 24 20	movl	%eax, 0x20(%esp)
00018a8d	8b 44 24 38	movl	0x38(%esp), %eax
00018a91	89 44 24 04	movl	%eax, 0x4(%esp)
00018a95	8b 44 24 30	movl	0x30(%esp), %eax
00018a99	89 04 24	movl	%eax, P24C_SW_1ST_VECTOR_NUM(%esp)
00018a9c	83 64 24 1c 00	andl	$0x0, 0x1c(%esp)
00018aa1	83 64 24 18 00	andl	$0x0, 0x18(%esp)
00018aa6	c7 44 24 08 c5 01 a7 85	movl	$0x85a701c5, 0x8(%esp)
00018aae	89 d1	movl	%edx, %ecx
00018ab0	8b 54 24 3c	movl	0x3c(%esp), %edx
00018ab4	e8 dd 01 00 00	calll	__ZN17IGMicroController23logAppendKdebugConstantEjjjPjjyjjjPb ## IGMicroController::logAppendKdebugConstant(unsigned int, unsigned int, unsigned int, unsigned int*, unsigned int, unsigned long long, unsigned int, unsigned int, unsigned int, bool*)
00018ab9	8d 4c 24 2f	leal	0x2f(%esp), %ecx
00018abd	80 39 00	cmpb	$0x0, P24C_SW_1ST_VECTOR_NUM(%ecx)
00018ac0	0f 84 65 01 00 00	je	0x18c2b
00018ac6	8b 54 24 34	movl	0x34(%esp), %edx
00018aca	ff 82 f8 43 00 00	incl	0x43f8(%edx)
00018ad0	83 f8 40	cmpl	$0x40, %eax
00018ad3	0f 82 6f 01 00 00	jb	0x18c48
00018ad9	a1 1c 0d 01 00	movl	__ZZN17IGMicroController27perfLogAppendKdebugConstantEjyjjjE25kIGPerfLogBufCapacityMask, %eax ## IGMicroController::perfLogAppendKdebugConstant(unsigned int, unsigned long long, unsigned int, unsigned int, unsigned int)::kIGPerfLogBufCapacityMask
00018ade	89 44 24 30	movl	%eax, 0x30(%esp)
00018ae2	8b 42 28	movl	0x28(%edx), %eax
00018ae5	c1 e8 0c	shrl	$0xc, %eax
00018ae8	8b 8a 04 44 00 00	movl	0x4404(%edx), %ecx
00018aee	89 4c 24 3c	movl	%ecx, 0x3c(%esp)
00018af2	8d 4c 24 2f	leal	0x2f(%esp), %ecx
00018af6	89 4c 24 20	movl	%ecx, 0x20(%esp)
00018afa	8b 4c 24 3c	movl	0x3c(%esp), %ecx
00018afe	89 4c 24 14	movl	%ecx, 0x14(%esp)
00018b02	89 7c 24 10	movl	%edi, 0x10(%esp)
00018b06	89 74 24 0c	movl	%esi, 0xc(%esp)
00018b0a	8b 4c 24 38	movl	0x38(%esp), %ecx
00018b0e	89 4c 24 04	movl	%ecx, 0x4(%esp)
00018b12	89 04 24	movl	%eax, P24C_SW_1ST_VECTOR_NUM(%esp)
00018b15	83 64 24 1c 00	andl	$0x0, 0x1c(%esp)
00018b1a	83 64 24 18 00	andl	$0x0, 0x18(%esp)
00018b1f	c7 44 24 08 c6 01 a7 85	movl	$0x85a701c6, 0x8(%esp)
00018b27	89 d6	movl	%edx, %esi
00018b29	89 d1	movl	%edx, %ecx
00018b2b	8b 54 24 30	movl	0x30(%esp), %edx
00018b2f	e8 62 01 00 00	calll	__ZN17IGMicroController23logAppendKdebugConstantEjjjPjjyjjjPb ## IGMicroController::logAppendKdebugConstant(unsigned int, unsigned int, unsigned int, unsigned int*, unsigned int, unsigned long long, unsigned int, unsigned int, unsigned int, bool*)
00018b34	83 a6 04 44 00 00 00	andl	$0x0, 0x4404(%esi)
00018b3b	ff 86 f8 43 00 00	incl	0x43f8(%esi)
00018b41	8b 3d ec c3 e0 ff	movl	-0x1f3c14, %edi
00018b47	8b 35 e8 c3 e0 ff	movl	-0x1f3c18, %esi
00018b4d	3b 3d ec c3 e0 ff	cmpl	-0x1f3c14, %edi
00018b53	75 ec	jne	0x18b41
00018b55	a1 1c 0d 01 00	movl	__ZZN17IGMicroController27perfLogAppendKdebugConstantEjyjjjE25kIGPerfLogBufCapacityMask, %eax ## IGMicroController::perfLogAppendKdebugConstant(unsigned int, unsigned long long, unsigned int, unsigned int, unsigned int)::kIGPerfLogBufCapacityMask
00018b5a	89 44 24 38	movl	%eax, 0x38(%esp)
00018b5e	8b 44 24 34	movl	0x34(%esp), %eax
00018b62	8b 50 28	movl	0x28(%eax), %edx
00018b65	c1 ea 0c	shrl	$0xc, %edx
00018b68	8d 88 ac 00 00 00	leal	0xac(%eax), %ecx
00018b6e	89 4c 24 30	movl	%ecx, 0x30(%esp)
00018b72	8d 4c 24 2f	leal	0x2f(%esp), %ecx
00018b76	89 4c 24 20	movl	%ecx, 0x20(%esp)
00018b7a	8b 4c 24 70	movl	0x70(%esp), %ecx
00018b7e	89 4c 24 1c	movl	%ecx, 0x1c(%esp)
00018b82	8b 4c 24 6c	movl	0x6c(%esp), %ecx
00018b86	89 4c 24 18	movl	%ecx, 0x18(%esp)
00018b8a	8b 4c 24 68	movl	0x68(%esp), %ecx
00018b8e	89 4c 24 14	movl	%ecx, 0x14(%esp)
00018b92	89 7c 24 10	movl	%edi, 0x10(%esp)
00018b96	89 c7	movl	%eax, %edi
00018b98	89 74 24 0c	movl	%esi, 0xc(%esp)
00018b9c	8b 44 24 48	movl	0x48(%esp), %eax
00018ba0	89 44 24 08	movl	%eax, 0x8(%esp)
00018ba4	8b 44 24 30	movl	0x30(%esp), %eax
00018ba8	89 44 24 04	movl	%eax, 0x4(%esp)
00018bac	89 14 24	movl	%edx, P24C_SW_1ST_VECTOR_NUM(%esp)
00018baf	89 f9	movl	%edi, %ecx
00018bb1	8b 54 24 38	movl	0x38(%esp), %edx
00018bb5	e8 dc 00 00 00	calll	__ZN17IGMicroController23logAppendKdebugConstantEjjjPjjyjjjPb ## IGMicroController::logAppendKdebugConstant(unsigned int, unsigned int, unsigned int, unsigned int*, unsigned int, unsigned long long, unsigned int, unsigned int, unsigned int, bool*)
00018bba	8b 0d 1c 0d 01 00	movl	__ZZN17IGMicroController27perfLogAppendKdebugConstantEjyjjjE25kIGPerfLogBufCapacityMask, %ecx ## IGMicroController::perfLogAppendKdebugConstant(unsigned int, unsigned long long, unsigned int, unsigned int, unsigned int)::kIGPerfLogBufCapacityMask
00018bc0	41	incl	%ecx
00018bc1	d1 e9	shrl	%ecx
00018bc3	39 c8	cmpl	%ecx, %eax
00018bc5	75 32	jne	0x18bf9
00018bc7	8b 87 10 44 00 00	movl	0x4410(%edi), %eax
00018bcd	48	decl	%eax
00018bce	89 87 14 44 00 00	movl	%eax, 0x4414(%edi)
00018bd4	a1 80 00 e0 fe	movl	0xfee00080, %eax
00018bd9	c7 05 80 00 e0 fe f0 00 00 00	movl	$0xf0, -0x11fff80
00018be3	83 0d bc c1 e0 ff 40	orl	$0x40, -0x1f3e44
00018bea	c7 05 00 00 f9 ff 00 80 04 00	movl	$0x48000, -0x70000
00018bf4	a3 80 00 e0 fe	movl	%eax, 0xfee00080
00018bf9	a1 ec c3 e0 ff	movl	0xffe0c3ec, %eax
00018bfe	8b 0d e8 c3 e0 ff	movl	-0x1f3c18, %ecx
00018c04	3b 05 ec c3 e0 ff	cmpl	-0x1f3c14, %eax
00018c0a	75 ed	jne	0x18bf9
00018c0c	29 e9	subl	%ebp, %ecx
00018c0e	19 d8	sbbl	%ebx, %eax
00018c10	01 8f f0 43 00 00	addl	%ecx, 0x43f0(%edi)
00018c16	11 87 f4 43 00 00	adcl	%eax, 0x43f4(%edi)
00018c1c	80 7c 24 2f 00	cmpb	$0x0, 0x2f(%esp)
00018c21	74 4f	je	0x18c72
00018c23	ff 87 f8 43 00 00	incl	0x43f8(%edi)
00018c29	eb 47	jmp	0x18c72
00018c2b	a1 ec c3 e0 ff	movl	0xffe0c3ec, %eax
00018c30	8b 0d e8 c3 e0 ff	movl	-0x1f3c18, %ecx
00018c36	3b 05 ec c3 e0 ff	cmpl	-0x1f3c14, %eax
00018c3c	75 ed	jne	0x18c2b
00018c3e	29 e9	subl	%ebp, %ecx
00018c40	19 d8	sbbl	%ebx, %eax
00018c42	8b 54 24 34	movl	0x34(%esp), %edx
00018c46	eb 1e	jmp	0x18c66
00018c48	c6 82 08 44 00 00 01	movb	$0x1, 0x4408(%edx)
00018c4f	a1 ec c3 e0 ff	movl	0xffe0c3ec, %eax
00018c54	8b 0d e8 c3 e0 ff	movl	-0x1f3c18, %ecx
00018c5a	3b 05 ec c3 e0 ff	cmpl	-0x1f3c14, %eax
00018c60	75 ed	jne	0x18c4f
00018c62	29 e9	subl	%ebp, %ecx
00018c64	19 d8	sbbl	%ebx, %eax
00018c66	01 8a f0 43 00 00	addl	%ecx, 0x43f0(%edx)
00018c6c	11 82 f4 43 00 00	adcl	%eax, 0x43f4(%edx)
00018c72	83 c4 4c	addl	$0x4c, %esp
00018c75	5e	popl	%esi
00018c76	5f	popl	%edi
00018c77	5b	popl	%ebx
00018c78	5d	popl	%ebp
00018c79	c3	retl
00018c7a	8b 41 28	movl	0x28(%ecx), %eax
00018c7d	c1 e0 08	shll	$0x8, %eax
00018c80	0f b7 c0	movzwl	%ax, %eax
00018c83	48	decl	%eax
00018c84	a3 1c 0d 01 00	movl	%eax, __ZZN17IGMicroController27perfLogAppendKdebugConstantEjyjjjE25kIGPerfLogBufCapacityMask ## IGMicroController::perfLogAppendKdebugConstant(unsigned int, unsigned long long, unsigned int, unsigned int, unsigned int)::kIGPerfLogBufCapacityMask
00018c89	c6 05 19 0d 01 00 01	movb	$0x1, __ZGVZN17IGMicroController27perfLogAppendKdebugConstantEjyjjjE25kIGPerfLogBufCapacityMask ## guard variable for IGMicroController::perfLogAppendKdebugConstant(unsigned int, unsigned long long, unsigned int, unsigned int, unsigned int)::kIGPerfLogBufCapacityMask
00018c90	e9 bf fc ff ff	jmp	0x18954
00018c95	90	nop
__ZN17IGMicroController23logAppendKdebugConstantEjjjPjjyjjjPb:
00018c96	55	pushl	%ebp
00018c97	53	pushl	%ebx
00018c98	57	pushl	%edi
00018c99	56	pushl	%esi
00018c9a	83 ec 0c	subl	$0xc, %esp
00018c9d	89 d7	movl	%edx, %edi
00018c9f	89 ce	movl	%ecx, %esi
00018ca1	8b 49 40	movl	0x40(%ecx), %ecx
00018ca4	6a 41	pushl	$0x41
00018ca6	5a	popl	%edx
00018ca7	e8 0a 01 00 00	calll	__ZNK17IGMicroController23getWorkQueueDescAtIndexEt ## IGMicroController::getWorkQueueDescAtIndex(unsigned short) const
00018cac	89 c2	movl	%eax, %edx
00018cae	a1 80 00 e0 fe	movl	0xfee00080, %eax
00018cb3	89 44 24 04	movl	%eax, 0x4(%esp)
00018cb7	c7 05 80 00 e0 fe f0 00 00 00	movl	$0xf0, -0x11fff80
00018cc1	8b 5a 14	movl	0x14(%edx), %ebx
00018cc4	8d 6b 01	leal	0x1(%ebx), %ebp
00018cc7	89 7c 24 08	movl	%edi, 0x8(%esp)
00018ccb	21 fd	andl	%edi, %ebp
00018ccd	8b 7c 24 24	movl	0x24(%esp), %edi
00018cd1	8b 0f	movl	P24C_SW_1ST_VECTOR_NUM(%edi), %ecx
00018cd3	39 cd	cmpl	%ecx, %ebp
00018cd5	75 53	jne	0x18d2a
00018cd7	8b 02	movl	P24C_SW_1ST_VECTOR_NUM(%edx), %eax
00018cd9	89 07	movl	%eax, P24C_SW_1ST_VECTOR_NUM(%edi)
00018cdb	89 d1	movl	%edx, %ecx
00018cdd	83 e1 f0	andl	$-0x10, %ecx
00018ce0	89 d0	movl	%edx, %eax
00018ce2	83 e0 0f	andl	$0xf, %eax
00018ce5	83 c0 13	addl	$0x13, %eax
00018ce8	83 e0 f0	andl	$-0x10, %eax
00018ceb	01 c8	addl	%ecx, %eax
00018ced	39 c1	cmpl	%eax, %ecx
00018cef	73 08	jae	0x18cf9
00018cf1	0f ae 39	clflush	P24C_SW_1ST_VECTOR_NUM(%ecx)
00018cf4	83 c1 10	addl	$0x10, %ecx
00018cf7	eb f4	jmp	0x18ced
00018cf9	8b 0f	movl	P24C_SW_1ST_VECTOR_NUM(%edi), %ecx
00018cfb	39 cd	cmpl	%ecx, %ebp
00018cfd	75 2b	jne	0x18d2a
00018cff	8b 86 04 44 00 00	movl	0x4404(%esi), %eax
00018d05	85 c0	testl	%eax, %eax
00018d07	75 14	jne	0x18d1d
00018d09	8b 4c 24 2c	movl	0x2c(%esp), %ecx
00018d0d	89 8e fc 43 00 00	movl	%ecx, 0x43fc(%esi)
00018d13	8b 4c 24 30	movl	0x30(%esp), %ecx
00018d17	89 8e 00 44 00 00	movl	%ecx, 0x4400(%esi)
00018d1d	40	incl	%eax
00018d1e	89 86 04 44 00 00	movl	%eax, 0x4404(%esi)
00018d24	31 c0	xorl	%eax, %eax
00018d26	31 c9	xorl	%ecx, %ecx
00018d28	eb 72	jmp	0x18d9c
00018d2a	8b 7c 24 28	movl	0x28(%esp), %edi
00018d2e	8b 44 24 20	movl	0x20(%esp), %eax
00018d32	03 4c 24 08	addl	0x8(%esp), %ecx
00018d36	29 d9	subl	%ebx, %ecx
00018d38	c1 e0 0c	shll	$0xc, %eax
00018d3b	c1 e3 06	shll	$0x6, %ebx
00018d3e	89 7c 18 08	movl	%edi, 0x8(%eax,%ebx)
00018d42	8b 7c 24 30	movl	0x30(%esp), %edi
00018d46	89 7c 18 04	movl	%edi, 0x4(%eax,%ebx)
00018d4a	8b 7c 24 2c	movl	0x2c(%esp), %edi
00018d4e	89 3c 18	movl	%edi, P24C_SW_1ST_VECTOR_NUM(%eax,%ebx)
00018d51	8b 7c 24 34	movl	0x34(%esp), %edi
00018d55	89 7c 18 0c	movl	%edi, 0xc(%eax,%ebx)
00018d59	8b 7c 24 38	movl	0x38(%esp), %edi
00018d5d	89 7c 18 10	movl	%edi, 0x10(%eax,%ebx)
00018d61	8b 7c 24 3c	movl	0x3c(%esp), %edi
00018d65	89 7c 18 14	movl	%edi, 0x14(%eax,%ebx)
00018d69	41	incl	%ecx
00018d6a	23 4c 24 08	andl	0x8(%esp), %ecx
00018d6e	89 6a 14	movl	%ebp, 0x14(%edx)
00018d71	8b 86 14 44 00 00	movl	0x4414(%esi), %eax
00018d77	40	incl	%eax
00018d78	89 86 14 44 00 00	movl	%eax, 0x4414(%esi)
00018d7e	3b 86 10 44 00 00	cmpl	0x4410(%esi), %eax
00018d84	b0 01	movb	$0x1, %al
00018d86	75 14	jne	0x18d9c
00018d88	c7 05 20 c0 e0 ff 01 00 00 00	movl	$0x1, -0x1f3fe0
00018d92	89 6a 40	movl	%ebp, 0x40(%edx)
00018d95	83 a6 14 44 00 00 00	andl	$0x0, 0x4414(%esi)
00018d9c	8b 54 24 04	movl	0x4(%esp), %edx
00018da0	8b 74 24 40	movl	0x40(%esp), %esi
00018da4	88 06	movb	%al, P24C_SW_1ST_VECTOR_NUM(%esi)
00018da6	89 15 80 00 e0 fe	movl	%edx, -0x11fff80
00018dac	89 c8	movl	%ecx, %eax
00018dae	83 c4 0c	addl	$0xc, %esp
00018db1	5e	popl	%esi
00018db2	5f	popl	%edi
00018db3	5b	popl	%ebx
00018db4	5d	popl	%ebp
00018db5	c3	retl
__ZNK17IGMicroController23getWorkQueueDescAtIndexEt:
00018db6	81 e1 00 f0 ff ff	andl	$0xfffff000, %ecx
00018dbc	c1 e2 07	shll	$0x7, %edx
00018dbf	8d 04 11	leal	P24C_SW_1ST_VECTOR_NUM(%ecx,%edx), %eax
00018dc2	8d 4c 11 0f	leal	0xf(%ecx,%edx), %ecx
00018dc6	29 c1	subl	%eax, %ecx
00018dc8	83 e9 80	subl	$-0x80, %ecx
00018dcb	83 e1 80	andl	$-0x80, %ecx
00018dce	01 c1	addl	%eax, %ecx
00018dd0	89 c2	movl	%eax, %edx
00018dd2	39 ca	cmpl	%ecx, %edx
00018dd4	73 08	jae	0x18dde
00018dd6	0f ae 3a	clflush	P24C_SW_1ST_VECTOR_NUM(%edx)
00018dd9	83 c2 10	addl	$0x10, %edx
00018ddc	eb f4	jmp	0x18dd2
00018dde	c3	retl
00018ddf	90	nop
__ZN17IGMicroController21waitForEngineWakeImplE10IGHwCsType:
00018de0	57	pushl	%edi
00018de1	56	pushl	%esi
00018de2	80 fa 05	cmpb	$0x5, %dl
00018de5	77 4e	ja	0x18e35
00018de7	6a 02	pushl	$0x2
00018de9	5e	popl	%esi
00018dea	b0 01	movb	$0x1, %al
00018dec	ff 24 95 18 99 01 00	jmpl	*0x19918(,%edx,4)
00018df3	31 f6	xorl	%esi, %esi
00018df5	46	incl	%esi
00018df6	eb 03	jmp	0x18dfb
00018df8	6a 04	pushl	$0x4
00018dfa	5e	popl	%esi
00018dfb	31 d2	xorl	%edx, %edx
00018dfd	8b 3d a0 a2 e0 ff	movl	-0x1f5d60, %edi
00018e03	21 f7	andl	%esi, %edi
00018e05	75 0b	jne	0x18e12
00018e07	42	incl	%edx
00018e08	81 fa 00 50 ff 00	cmpl	$0xff5000, %edx
00018e0e	75 ed	jne	0x18dfd
00018e10	eb 08	jmp	0x18e1a
00018e12	81 fa 00 50 ff 00	cmpl	$0xff5000, %edx
00018e18	72 1d	jb	0x18e37
00018e1a	b8 ff 00 ff ff	movl	$0xffff00ff, %eax
00018e1f	23 05 00 c0 e0 ff	andl	-0x1f4000, %eax
00018e25	0d 00 fb 00 00	orl	$0xfb00, %eax
00018e2a	89 81 a4 00 00 00	movl	%eax, 0xa4(%ecx)
00018e30	a3 00 c0 e0 ff	movl	%eax, 0xffe0c000
00018e35	31 c0	xorl	%eax, %eax
00018e37	5e	popl	%esi
00018e38	5f	popl	%edi
00018e39	c3	retl
__ZN17IGMicroController34parseSetPmMessageUpdateFrequenciesEP20IGUkPmMessagePayload:
00018e3a	57	pushl	%edi
00018e3b	56	pushl	%esi
00018e3c	83 ec 14	subl	$0x14, %esp
00018e3f	8b 81 4c 43 00 00	movl	0x434c(%ecx), %eax
00018e45	a8 1e	testb	$0x1e, %al
00018e47	74 3a	je	0x18e83
00018e49	a8 01	testb	$0x1, %al
00018e4b	75 1f	jne	0x18e6c
00018e4d	d1 e8	shrl	%eax
00018e4f	83 e0 0f	andl	$0xf, %eax
00018e52	31 f6	xorl	%esi, %esi
00018e54	83 fe 04	cmpl	$0x4, %esi
00018e57	74 2a	je	0x18e83
00018e59	0f a3 f0	btl	%esi, %eax
00018e5c	73 0b	jae	0x18e69
00018e5e	8b 7c b2 04	movl	0x4(%edx,%esi,4), %edi
00018e62	89 bc b1 50 43 00 00	movl	%edi, 0x4350(%ecx,%esi,4)
00018e69	46	incl	%esi
00018e6a	eb e8	jmp	0x18e54
00018e6c	8b 42 04	movl	0x4(%edx), %eax
00018e6f	89 81 50 43 00 00	movl	%eax, 0x4350(%ecx)
00018e75	a3 08 a0 e0 ff	movl	%eax, 0xffe0a008
00018e7a	80 3d e8 c8 00 00 00	cmpb	$0x0, _gPerfLogEnable
00018e81	75 06	jne	0x18e89
00018e83	83 c4 14	addl	$0x14, %esp
00018e86	5e	popl	%esi
00018e87	5f	popl	%edi
00018e88	c3	retl
00018e89	c1 e8 0a	shrl	$0xa, %eax
00018e8c	25 f0 1f 00 00	andl	$0x1ff0, %eax
00018e91	8b 0d f8 c8 00 00	movl	__ZN17IGMicroController9fInstanceE, %ecx ## IGMicroController::fInstance
00018e97	89 44 24 08	movl	%eax, 0x8(%esp)
00018e9b	83 64 24 10 00	andl	$0x0, 0x10(%esp)
00018ea0	c7 44 24 0c 01 00 00 00	movl	$0x1, 0xc(%esp)
00018ea8	83 64 24 04 00	andl	$0x0, 0x4(%esp)
00018ead	83 24 24 00	andl	$0x0, P24C_SW_1ST_VECTOR_NUM(%esp)
00018eb1	ba cc 01 a7 85	movl	$0x85a701cc, %edx
00018eb6	e8 81 fa ff ff	calll	__ZN17IGMicroController27perfLogAppendKdebugConstantEjyjjj ## IGMicroController::perfLogAppendKdebugConstant(unsigned int, unsigned long long, unsigned int, unsigned int, unsigned int)
00018ebb	eb c6	jmp	0x18e83
00018ebd	90	nop
__ZN17IGMicroController14compilePmStatsEP16IGUkPmStatisticsbb:
00018ebe	55	pushl	%ebp
00018ebf	53	pushl	%ebx
00018ec0	57	pushl	%edi
00018ec1	56	pushl	%esi
00018ec2	83 ec 3c	subl	$0x3c, %esp
00018ec5	89 d6	movl	%edx, %esi
00018ec7	89 cf	movl	%ecx, %edi
00018ec9	83 64 24 2c 00	andl	$0x0, 0x2c(%esp)
00018ece	83 64 24 28 00	andl	$0x0, 0x28(%esp)
00018ed3	83 64 24 24 00	andl	$0x0, 0x24(%esp)
00018ed8	83 64 24 20 00	andl	$0x0, 0x20(%esp)
00018edd	89 14 24	movl	%edx, P24C_SW_1ST_VECTOR_NUM(%esp)
00018ee0	c7 44 24 04 40 00 00 00	movl	$0x40, 0x4(%esp)
00018ee8	e8 2f 8b ff ff	calll	___bzero
00018eed	8b 1d 60 59 f4 ff	movl	-0xba6a0, %ebx
00018ef3	8b 2d e8 c3 e0 ff	movl	-0x1f3c18, %ebp
00018ef9	f6 87 d8 43 00 00 04	testb	$0x4, 0x43d8(%edi)
00018f00	75 07	jne	0x18f09
00018f02	31 db	xorl	%ebx, %ebx
00018f04	e9 43 01 00 00	jmp	0x1904c
00018f09	2b 9f cc 43 00 00	subl	0x43cc(%edi), %ebx
00018f0f	89 6c 24 38	movl	%ebp, 0x38(%esp)
00018f13	2b af d0 43 00 00	subl	0x43d0(%edi), %ebp
00018f19	6b c5 0a	imull	$0xa, %ebp, %eax
00018f1c	31 d2	xorl	%edx, %edx
00018f1e	f7 b7 20 04 00 00	divl	0x420(%edi)
00018f24	89 c1	movl	%eax, %ecx
00018f26	8b 87 dc 43 00 00	movl	0x43dc(%edi), %eax
00018f2c	0f af c3	imull	%ebx, %eax
00018f2f	31 d2	xorl	%edx, %edx
00018f31	f7 b7 e0 43 00 00	divl	0x43e0(%edi)
00018f37	6b c0 64	imull	$0x64, %eax, %eax
00018f3a	31 d2	xorl	%edx, %edx
00018f3c	f7 f1	divl	%ecx
00018f3e	80 3d e8 c8 00 00 00	cmpb	$0x0, _gPerfLogEnable
00018f45	0f 85 0b 01 00 00	jne	0x19056
00018f4b	80 7c 24 50 00	cmpb	$0x0, 0x50(%esp)
00018f50	74 51	je	0x18fa3
00018f52	89 44 24 34	movl	%eax, 0x34(%esp)
00018f56	8a 4c 24 54	movb	0x54(%esp), %cl
00018f5a	84 c9	testb	%cl, %cl
00018f5c	74 7d	je	0x18fdb
00018f5e	f6 87 b4 00 00 00 03	testb	$0x3, SEMAPHORE_VECTOR_6(%edi)
00018f65	74 74	je	0x18fdb
00018f67	8b 87 78 04 00 00	movl	0x478(%edi), %eax
00018f6d	8b 84 c7 64 04 00 00	movl	0x464(%edi,%eax,8), %eax
00018f74	85 c0	testl	%eax, %eax
00018f76	74 63	je	0x18fdb
00018f78	8b 97 d4 43 00 00	movl	0x43d4(%edi), %edx
00018f7e	8b 00	movl	P24C_SW_1ST_VECTOR_NUM(%eax), %eax
00018f80	89 44 24 30	movl	%eax, 0x30(%esp)
00018f84	83 c0 20	addl	$0x20, %eax
00018f87	89 c3	movl	%eax, %ebx
00018f89	83 e3 f0	andl	$-0x10, %ebx
00018f8c	83 e0 0f	andl	$0xf, %eax
00018f8f	83 c0 1f	addl	$0x1f, %eax
00018f92	83 e0 f0	andl	$-0x10, %eax
00018f95	01 d8	addl	%ebx, %eax
00018f97	39 c3	cmpl	%eax, %ebx
00018f99	73 1f	jae	0x18fba
00018f9b	0f ae 3b	clflush	P24C_SW_1ST_VECTOR_NUM(%ebx)
00018f9e	83 c3 10	addl	$0x10, %ebx
00018fa1	eb f4	jmp	0x18f97
00018fa3	c1 e0 18	shll	$0x18, %eax
00018fa6	b9 ff ff ff 00	movl	$0xffffff, %ecx
00018fab	23 0e	andl	P24C_SW_1ST_VECTOR_NUM(%esi), %ecx
00018fad	09 c1	orl	%eax, %ecx
00018faf	31 d2	xorl	%edx, %edx
00018fb1	31 ff	xorl	%edi, %edi
00018fb3	31 c0	xorl	%eax, %eax
00018fb5	e9 85 00 00 00	jmp	0x1903f
00018fba	8b 87 68 0f 00 00	movl	0xf68(%edi), %eax
00018fc0	39 d0	cmpl	%edx, %eax
00018fc2	72 02	jb	0x18fc6
00018fc4	89 c2	movl	%eax, %edx
00018fc6	8b 5c 24 38	movl	0x38(%esp), %ebx
00018fca	29 d3	subl	%edx, %ebx
00018fcc	8b 44 24 30	movl	0x30(%esp), %eax
00018fd0	0f b6 40 2c	movzbl	0x2c(%eax), %eax
00018fd4	01 9c 87 48 0f 00 00	addl	%ebx, 0xf48(%edi,%eax,4)
00018fdb	6a fc	pushl	$-0x4
00018fdd	5b	popl	%ebx
00018fde	85 db	testl	%ebx, %ebx
00018fe0	74 13	je	0x18ff5
00018fe2	6b 84 9f 58 0f 00 00 64	imull	$0x64, 0xf58(%edi,%ebx,4), %eax
00018fea	31 d2	xorl	%edx, %edx
00018fec	f7 f5	divl	%ebp
00018fee	89 44 9c 30	movl	%eax, 0x30(%esp,%ebx,4)
00018ff2	43	incl	%ebx
00018ff3	eb e9	jmp	0x18fde
00018ff5	84 c9	testb	%cl, %cl
00018ff7	74 0d	je	0x19006
00018ff9	81 c7 58 04 00 00	addl	$0x458, %edi
00018fff	89 f9	movl	%edi, %ecx
00019001	e8 0c 01 00 00	calll	__ZN23IGRenderCommandStreamer14resetBusyTicksEv ## IGRenderCommandStreamer::resetBusyTicks()
00019006	8b 44 24 34	movl	0x34(%esp), %eax
0001900a	88 46 03	movb	%al, 0x3(%esi)
0001900d	8b 44 24 20	movl	0x20(%esp), %eax
00019011	8b 54 24 24	movl	0x24(%esp), %edx
00019015	83 c6 04	addl	$0x4, %esi
00019018	b9 ff 00 00 00	movl	$SPURIOUS_VECTOR, %ecx
0001901d	89 c7	movl	%eax, %edi
0001901f	21 cf	andl	%ecx, %edi
00019021	c1 e2 08	shll	$0x8, %edx
00019024	0f b7 da	movzwl	%dx, %ebx
00019027	09 fb	orl	%edi, %ebx
00019029	8b 7c 24 28	movl	0x28(%esp), %edi
0001902d	8b 54 24 2c	movl	0x2c(%esp), %edx
00019031	89 d5	movl	%edx, %ebp
00019033	c1 e5 18	shll	$0x18, %ebp
00019036	21 f9	andl	%edi, %ecx
00019038	c1 e1 10	shll	$0x10, %ecx
0001903b	09 d9	orl	%ebx, %ecx
0001903d	09 e9	orl	%ebp, %ecx
0001903f	89 0e	movl	%ecx, P24C_SW_1ST_VECTOR_NUM(%esi)
00019041	b3 01	movb	$0x1, %bl
00019043	80 3d e8 c8 00 00 00	cmpb	$0x0, _gPerfLogEnable
0001904a	75 38	jne	0x19084
0001904c	89 d8	movl	%ebx, %eax
0001904e	83 c4 3c	addl	$0x3c, %esp
00019051	5e	popl	%esi
00019052	5f	popl	%edi
00019053	5b	popl	%ebx
00019054	5d	popl	%ebp
00019055	c3	retl
00019056	8b 0d f8 c8 00 00	movl	__ZN17IGMicroController9fInstanceE, %ecx ## IGMicroController::fInstance
0001905c	89 6c 24 10	movl	%ebp, 0x10(%esp)
00019060	89 5c 24 0c	movl	%ebx, 0xc(%esp)
00019064	89 44 24 08	movl	%eax, 0x8(%esp)
00019068	83 64 24 04 00	andl	$0x0, 0x4(%esp)
0001906d	83 24 24 00	andl	$0x0, P24C_SW_1ST_VECTOR_NUM(%esp)
00019071	ba c0 01 a7 85	movl	$0x85a701c0, %edx
00019076	89 c3	movl	%eax, %ebx
00019078	e8 bf f8 ff ff	calll	__ZN17IGMicroController27perfLogAppendKdebugConstantEjyjjj ## IGMicroController::perfLogAppendKdebugConstant(unsigned int, unsigned long long, unsigned int, unsigned int, unsigned int)
0001907d	89 d8	movl	%ebx, %eax
0001907f	e9 c7 fe ff ff	jmp	0x18f4b
00019084	8b 0d f8 c8 00 00	movl	__ZN17IGMicroController9fInstanceE, %ecx ## IGMicroController::fInstance
0001908a	89 54 24 10	movl	%edx, 0x10(%esp)
0001908e	89 7c 24 0c	movl	%edi, 0xc(%esp)
00019092	89 44 24 08	movl	%eax, 0x8(%esp)
00019096	83 64 24 04 00	andl	$0x0, 0x4(%esp)
0001909b	83 24 24 00	andl	$0x0, P24C_SW_1ST_VECTOR_NUM(%esp)
0001909f	ba c8 01 a7 85	movl	$0x85a701c8, %edx
000190a4	e8 93 f8 ff ff	calll	__ZN17IGMicroController27perfLogAppendKdebugConstantEjyjjj ## IGMicroController::perfLogAppendKdebugConstant(unsigned int, unsigned long long, unsigned int, unsigned int, unsigned int)
000190a9	eb a1	jmp	0x1904c
000190ab	90	nop
__ZN17IGMicroController11schedNotifyEj:
000190ac	56	pushl	%esi
000190ad	83 ec 18	subl	$0x18, %esp
000190b0	83 e2 3f	andl	$0x3f, %edx
000190b3	8b 35 80 00 e0 fe	movl	-0x11fff80, %esi
000190b9	c7 05 80 00 e0 fe f0 00 00 00	movl	$0xf0, -0x11fff80
000190c3	0b 91 b0 00 00 00	orl	SEMAPHORE_VECTOR_2(%ecx), %edx
000190c9	87 91 b0 00 00 00	xchgl	%edx, SEMAPHORE_VECTOR_2(%ecx)
000190cf	80 3d e8 c8 00 00 00	cmpb	$0x0, _gPerfLogEnable
000190d6	75 0b	jne	0x190e3
000190d8	89 35 80 00 e0 fe	movl	%esi, -0x11fff80
000190de	83 c4 18	addl	$0x18, %esp
000190e1	5e	popl	%esi
000190e2	c3	retl
000190e3	a1 f8 c8 00 00	movl	__ZN17IGMicroController9fInstanceE, %eax ## IGMicroController::fInstance
000190e8	8b 89 b0 00 00 00	movl	SEMAPHORE_VECTOR_2(%ecx), %ecx
000190ee	89 4c 24 0c	movl	%ecx, 0xc(%esp)
000190f2	89 54 24 08	movl	%edx, 0x8(%esp)
000190f6	83 64 24 10 00	andl	$0x0, 0x10(%esp)
000190fb	83 64 24 04 00	andl	$0x0, 0x4(%esp)
00019100	83 24 24 00	andl	$0x0, P24C_SW_1ST_VECTOR_NUM(%esp)
00019104	89 c1	movl	%eax, %ecx
00019106	ba 40 00 a7 85	movl	$0x85a70040, %edx
0001910b	e8 2c f8 ff ff	calll	__ZN17IGMicroController27perfLogAppendKdebugConstantEjyjjj ## IGMicroController::perfLogAppendKdebugConstant(unsigned int, unsigned long long, unsigned int, unsigned int, unsigned int)
00019110	eb c6	jmp	0x190d8
__ZN23IGRenderCommandStreamer14resetBusyTicksEv:
00019112	6a fc	pushl	$-0x4
00019114	58	popl	%eax
00019115	85 c0	testl	%eax, %eax
00019117	74 0b	je	0x19124
00019119	83 a4 81 00 0b 00 00 00	andl	$0x0, 0xb00(%ecx,%eax,4)
00019121	40	incl	%eax
00019122	eb f1	jmp	0x19115
00019124	c3	retl
00019125	90	nop
__ZNK17IGMicroController15getStampAtIndexEj:
00019126	81 e1 00 f0 ff ff	andl	$0xfffff000, %ecx
0001912c	c1 e2 06	shll	$0x6, %edx
0001912f	8d 04 11	leal	P24C_SW_1ST_VECTOR_NUM(%ecx,%edx), %eax
00019132	8d 4c 11 0f	leal	0xf(%ecx,%edx), %ecx
00019136	29 c1	subl	%eax, %ecx
00019138	83 c1 40	addl	$0x40, %ecx
0001913b	83 e1 c0	andl	$-0x40, %ecx
0001913e	01 c1	addl	%eax, %ecx
00019140	89 c2	movl	%eax, %edx
00019142	39 ca	cmpl	%ecx, %edx
00019144	73 08	jae	0x1914e
00019146	0f ae 3a	clflush	P24C_SW_1ST_VECTOR_NUM(%edx)
00019149	83 c2 10	addl	$0x10, %edx
0001914c	eb f4	jmp	0x19142
0001914e	c3	retl
0001914f	90	nop
__ZN17IGMicroController23schedNotifyAsyncEnginesEi:
00019150	55	pushl	%ebp
00019151	53	pushl	%ebx
00019152	57	pushl	%edi
00019153	56	pushl	%esi
00019154	83 ec 2c	subl	$0x2c, %esp
00019157	f6 41 3c 01	testb	$0x1, 0x3c(%ecx)
0001915b	0f 85 9f 00 00 00	jne	0x19200
00019161	89 ce	movl	%ecx, %esi
00019163	0f b6 ba 68 9e 01 00	movzbl	__ZL26IG_STAMP_INDEX_TO_HWCS_LUT.62(%edx), %edi ## IG_STAMP_INDEX_TO_HWCS_LUT (.62)
0001916a	8b 49 38	movl	0x38(%ecx), %ecx
0001916d	89 54 24 1c	movl	%edx, 0x1c(%esp)
00019171	e8 b0 ff ff ff	calll	__ZNK17IGMicroController15getStampAtIndexEj ## IGMicroController::getStampAtIndex(unsigned int) const
00019176	8b 28	movl	P24C_SW_1ST_VECTOR_NUM(%eax), %ebp
00019178	89 74 24 18	movl	%esi, 0x18(%esp)
0001917c	8b 86 48 43 00 00	movl	0x4348(%esi), %eax
00019182	8d 5c 24 28	leal	0x28(%esp), %ebx
00019186	89 03	movl	%eax, P24C_SW_1ST_VECTOR_NUM(%ebx)
00019188	89 d9	movl	%ebx, %ecx
0001918a	89 fa	movl	%edi, %edx
0001918c	e8 57 f7 ff ff	calll	__ZN10IGUkBitSetILj6EE5resetEj ## IGUkBitSet<6u>::reset(unsigned int)
00019191	89 d9	movl	%ebx, %ecx
00019193	e8 1a f7 ff ff	calll	__ZNK10IGUkBitSetILj6EE5beginEv ## IGUkBitSet<6u>::begin() const
00019198	8d 4c 24 20	leal	0x20(%esp), %ecx
0001919c	89 51 04	movl	%edx, 0x4(%ecx)
0001919f	89 01	movl	%eax, P24C_SW_1ST_VECTOR_NUM(%ecx)
000191a1	31 db	xorl	%ebx, %ebx
000191a3	85 d2	testl	%edx, %edx
000191a5	74 4a	je	0x191f1
000191a7	8d 42 ff	leal	-0x1(%edx), %eax
000191aa	6b f8 5d	imull	$0x5d, %eax, %edi
000191ad	8b 87 85 9c 01 00	movl	0x19c85(%edi), %eax
000191b3	8b b7 8d 9c 01 00	movl	0x19c8d(%edi), %esi
000191b9	8b 4c 24 18	movl	0x18(%esp), %ecx
000191bd	8b 8c 91 3c 04 00 00	movl	0x43c(%ecx,%edx,4), %ecx
000191c4	89 74 24 08	movl	%esi, 0x8(%esp)
000191c8	89 44 24 04	movl	%eax, 0x4(%esp)
000191cc	89 2c 24	movl	%ebp, P24C_SW_1ST_VECTOR_NUM(%esp)
000191cf	8b 54 24 1c	movl	0x1c(%esp), %edx
000191d3	e8 ce aa ff ff	calll	__ZNK21IGCommandStreamerBase12checkUnblockEijij ## IGCommandStreamerBase::checkUnblock(int, unsigned int, int, unsigned int) const
000191d8	84 c0	testb	%al, %al
000191da	74 06	je	0x191e2
000191dc	0b 9f 35 9c 01 00	orl	0x19c35(%edi), %ebx
000191e2	8d 4c 24 20	leal	0x20(%esp), %ecx
000191e6	e8 21 f7 ff ff	calll	__ZN10IGUkBitSetILj6EE13ConstIteratorppEv ## IGUkBitSet<6u>::ConstIterator::operator++()
000191eb	8b 54 24 24	movl	0x24(%esp), %edx
000191ef	eb b2	jmp	0x191a3
000191f1	85 db	testl	%ebx, %ebx
000191f3	74 0b	je	0x19200
000191f5	8b 4c 24 18	movl	0x18(%esp), %ecx
000191f9	89 da	movl	%ebx, %edx
000191fb	e8 ac fe ff ff	calll	__ZN17IGMicroController11schedNotifyEj ## IGMicroController::schedNotify(unsigned int)
00019200	83 c4 2c	addl	$0x2c, %esp
00019203	5e	popl	%esi
00019204	5f	popl	%edi
00019205	5b	popl	%ebx
00019206	5d	popl	%ebp
00019207	c3	retl
__ZN17IGMicroController26updateCSSubmissionsRetiredE10IGHwCsType:
00019208	c1 e2 06	shll	$0x6, %edx
0001920b	8d 84 11 80 00 00 00	leal	0x80(%ecx,%edx), %eax
00019212	ff 00	incl	P24C_SW_1ST_VECTOR_NUM(%eax)
00019214	89 c1	movl	%eax, %ecx
00019216	83 e1 f0	andl	$-0x10, %ecx
00019219	83 e0 0f	andl	$0xf, %eax
0001921c	83 c0 4f	addl	$0x4f, %eax
0001921f	83 e0 d0	andl	$-0x30, %eax
00019222	01 c8	addl	%ecx, %eax
00019224	39 c1	cmpl	%eax, %ecx
00019226	73 08	jae	0x19230
00019228	0f ae 39	clflush	P24C_SW_1ST_VECTOR_NUM(%ecx)
0001922b	83 c1 10	addl	$0x10, %ecx
0001922e	eb f4	jmp	0x19224
00019230	c7 05 20 c0 e0 ff 01 00 00 00	movl	$0x1, -0x1f3fe0
0001923a	c3	retl
0001923b	90	nop
__ZN17IGMicroController15updateIdleStateE10IGHwCsTypeb:
0001923c	55	pushl	%ebp
0001923d	53	pushl	%ebx
0001923e	57	pushl	%edi
0001923f	56	pushl	%esi
00019240	83 ec 0c	subl	$0xc, %esp
00019243	89 d3	movl	%edx, %ebx
00019245	89 ce	movl	%ecx, %esi
00019247	8a 44 24 20	movb	0x20(%esp), %al
0001924b	8b a9 b4 00 00 00	movl	SEMAPHORE_VECTOR_6(%ecx), %ebp
00019251	6b ca 5d	imull	$0x5d, %edx, %ecx
00019254	8b b9 35 9c 01 00	movl	0x19c35(%ecx), %edi
0001925a	89 f9	movl	%edi, %ecx
0001925c	84 c0	testb	%al, %al
0001925e	75 04	jne	0x19264
00019260	09 e9	orl	%ebp, %ecx
00019262	eb 04	jmp	0x19268
00019264	f7 d1	notl	%ecx
00019266	21 e9	andl	%ebp, %ecx
00019268	89 8e b4 00 00 00	movl	%ecx, SEMAPHORE_VECTOR_6(%esi)
0001926e	81 f9 80 00 00 00	cmpl	$0x80, %ecx
00019274	75 17	jne	0x1928d
00019276	83 a6 b4 00 00 00 00	andl	$0x0, SEMAPHORE_VECTOR_6(%esi)
0001927d	81 0d 80 c1 e0 ff 80 00 00 00	orl	$0x80, -0x1f3e80
00019287	8b 8e b4 00 00 00	movl	SEMAPHORE_VECTOR_6(%esi), %ecx
0001928d	83 e5 3f	andl	$0x3f, %ebp
00019290	83 e1 3f	andl	$0x3f, %ecx
00019293	8b 56 20	movl	0x20(%esi), %edx
00019296	89 8a 00 02 00 00	movl	%ecx, 0x200(%edx)
0001929c	81 c2 00 02 00 00	addl	$0x200, %edx
000192a2	89 d1	movl	%edx, %ecx
000192a4	83 e1 f0	andl	$-0x10, %ecx
000192a7	83 e2 0f	andl	$0xf, %edx
000192aa	83 c2 4f	addl	$0x4f, %edx
000192ad	83 e2 d0	andl	$-0x30, %edx
000192b0	01 ca	addl	%ecx, %edx
000192b2	39 d1	cmpl	%edx, %ecx
000192b4	73 08	jae	0x192be
000192b6	0f ae 39	clflush	P24C_SW_1ST_VECTOR_NUM(%ecx)
000192b9	83 c1 10	addl	$0x10, %ecx
000192bc	eb f4	jmp	0x192b2
000192be	c7 05 20 c0 e0 ff 01 00 00 00	movl	$0x1, -0x1f3fe0
000192c8	84 c0	testb	%al, %al
000192ca	74 12	je	0x192de
000192cc	85 fd	testl	%edi, %ebp
000192ce	74 57	je	0x19327
000192d0	89 3c 24	movl	%edi, P24C_SW_1ST_VECTOR_NUM(%esp)
000192d3	89 f1	movl	%esi, %ecx
000192d5	31 d2	xorl	%edx, %edx
000192d7	e8 ae f3 ff ff	calll	__ZN17IGMicroController9forceWakeEbj ## IGMicroController::forceWake(bool, unsigned int)
000192dc	eb 49	jmp	0x19327
000192de	85 ed	testl	%ebp, %ebp
000192e0	75 25	jne	0x19307
000192e2	8d 8e d4 02 00 00	leal	0x2d4(%esi), %ecx
000192e8	31 d2	xorl	%edx, %edx
000192ea	e8 6b 05 00 00	calll	__ZN17IGGucTimerManager22armCheckFrequencyTimerEb ## IGGucTimerManager::armCheckFrequencyTimer(bool)
000192ef	84 c0	testb	%al, %al
000192f1	74 14	je	0x19307
000192f3	f6 86 b4 00 00 00 01	testb	$0x1, SEMAPHORE_VECTOR_6(%esi)
000192fa	74 0b	je	0x19307
000192fc	8d 8e 58 04 00 00	leal	0x458(%esi), %ecx
00019302	e8 0b fe ff ff	calll	__ZN23IGRenderCommandStreamer14resetBusyTicksEv ## IGRenderCommandStreamer::resetBusyTicks()
00019307	85 fd	testl	%edi, %ebp
00019309	75 0d	jne	0x19318
0001930b	89 3c 24	movl	%edi, P24C_SW_1ST_VECTOR_NUM(%esp)
0001930e	31 d2	xorl	%edx, %edx
00019310	42	incl	%edx
00019311	89 f1	movl	%esi, %ecx
00019313	e8 72 f3 ff ff	calll	__ZN17IGMicroController9forceWakeEbj ## IGMicroController::forceWake(bool, unsigned int)
00019318	84 db	testb	%bl, %bl
0001931a	75 0b	jne	0x19327
0001931c	a1 e8 c3 e0 ff	movl	0xffe0c3e8, %eax
00019321	89 86 d4 43 00 00	movl	%eax, 0x43d4(%esi)
00019327	f6 86 b4 00 00 00 01	testb	$0x1, SEMAPHORE_VECTOR_6(%esi)
0001932e	75 3c	jne	0x1936c
00019330	80 be 09 44 00 00 00	cmpb	$0x0, 0x4409(%esi)
00019337	75 15	jne	0x1934e
00019339	8d 8e d4 02 00 00	leal	0x2d4(%esi), %ecx
0001933f	6a 05	pushl	$0x5
00019341	5a	popl	%edx
00019342	e8 bb 04 00 00	calll	__ZN17IGGucTimerManager11cancelTimerE16IGGucTimerTaskId ## IGGucTimerManager::cancelTimer(IGGucTimerTaskId)
00019347	c6 86 09 44 00 00 01	movb	$0x1, 0x4409(%esi)
0001934e	80 be 0a 44 00 00 00	cmpb	$0x0, 0x440a(%esi)
00019355	75 15	jne	0x1936c
00019357	8d 8e d4 02 00 00	leal	0x2d4(%esi), %ecx
0001935d	6a 06	pushl	$0x6
0001935f	5a	popl	%edx
00019360	e8 9d 04 00 00	calll	__ZN17IGGucTimerManager11cancelTimerE16IGGucTimerTaskId ## IGGucTimerManager::cancelTimer(IGGucTimerTaskId)
00019365	c6 86 0a 44 00 00 01	movb	$0x1, 0x440a(%esi)
0001936c	83 c4 0c	addl	$0xc, %esp
0001936f	5e	popl	%esi
00019370	5f	popl	%edi
00019371	5b	popl	%ebx
00019372	5d	popl	%ebp
00019373	c3	retl
__ZN17IGMicroController46setGTFrequencyMMIOAndStartChangeFrequencyTimerEv:
00019374	53	pushl	%ebx
00019375	57	pushl	%edi
00019376	56	pushl	%esi
00019377	83 ec 20	subl	$0x20, %esp
0001937a	89 ce	movl	%ecx, %esi
0001937c	0f b6 81 6c 0f 00 00	movzbl	0xf6c(%ecx), %eax
00019383	8b bc 81 50 43 00 00	movl	0x4350(%ecx,%eax,4), %edi
0001938a	80 3d e8 c8 00 00 00	cmpb	$0x0, _gPerfLogEnable
00019391	75 18	jne	0x193ab
00019393	89 f1	movl	%esi, %ecx
00019395	89 fa	movl	%edi, %edx
00019397	e8 4a 00 00 00	calll	__ZN17IGMicroController18setGTFrequencyMMIOEj ## IGMicroController::setGTFrequencyMMIO(unsigned int)
0001939c	89 f1	movl	%esi, %ecx
0001939e	89 fa	movl	%edi, %edx
000193a0	83 c4 20	addl	$0x20, %esp
000193a3	5e	popl	%esi
000193a4	5f	popl	%edi
000193a5	5b	popl	%ebx
000193a6	e9 75 00 00 00	jmp	__ZN17IGMicroController25startChangeFrequencyTimerEj ## IGMicroController::startChangeFrequencyTimer(unsigned int)
000193ab	89 fa	movl	%edi, %edx
000193ad	c1 ea 0a	shrl	$0xa, %edx
000193b0	81 e2 f0 1f 00 00	andl	$0x1ff0, %edx
000193b6	8b 0d f8 c8 00 00	movl	__ZN17IGMicroController9fInstanceE, %ecx ## IGMicroController::fInstance
000193bc	8b 9e 4c 43 00 00	movl	0x434c(%esi), %ebx
000193c2	83 e3 01	andl	$0x1, %ebx
000193c5	89 44 24 10	movl	%eax, 0x10(%esp)
000193c9	89 5c 24 0c	movl	%ebx, 0xc(%esp)
000193cd	89 54 24 08	movl	%edx, 0x8(%esp)
000193d1	83 64 24 04 00	andl	$0x0, 0x4(%esp)
000193d6	83 24 24 00	andl	$0x0, P24C_SW_1ST_VECTOR_NUM(%esp)
000193da	ba cc 01 a7 85	movl	$0x85a701cc, %edx
000193df	e8 58 f5 ff ff	calll	__ZN17IGMicroController27perfLogAppendKdebugConstantEjyjjj ## IGMicroController::perfLogAppendKdebugConstant(unsigned int, unsigned long long, unsigned int, unsigned int, unsigned int)
000193e4	eb ad	jmp	0x19393
__ZN17IGMicroController18setGTFrequencyMMIOEj:
000193e6	57	pushl	%edi
000193e7	56	pushl	%esi
000193e8	f6 81 4c 43 00 00 01	testb	$0x1, 0x434c(%ecx)
000193ef	75 2c	jne	0x1941d
000193f1	89 d6	movl	%edx, %esi
000193f3	8b 3d e8 c3 e0 ff	movl	-0x1f3c18, %edi
000193f9	89 f8	movl	%edi, %eax
000193fb	2b 81 ec 43 00 00	subl	0x43ec(%ecx), %eax
00019401	6b c0 0a	imull	$0xa, %eax, %eax
00019404	31 d2	xorl	%edx, %edx
00019406	f7 b1 20 04 00 00	divl	0x420(%ecx)
0001940c	83 f8 33	cmpl	$0x33, %eax
0001940f	72 0c	jb	0x1941d
00019411	89 35 08 a0 e0 ff	movl	%esi, -0x1f5ff8
00019417	89 b9 ec 43 00 00	movl	%edi, 0x43ec(%ecx)
0001941d	5e	popl	%esi
0001941e	5f	popl	%edi
0001941f	c3	retl
__ZN17IGMicroController25startChangeFrequencyTimerEj:
00019420	53	pushl	%ebx
00019421	83 ec 08	subl	$0x8, %esp
00019424	8b 99 e4 43 00 00	movl	0x43e4(%ecx), %ebx
0001942a	c1 ea 17	shrl	$0x17, %edx
0001942d	29 d3	subl	%edx, %ebx
0001942f	89 99 e8 43 00 00	movl	%ebx, 0x43e8(%ecx)
00019435	74 0a	je	0x19441
00019437	83 fb 0a	cmpl	$0xa, %ebx
0001943a	76 0a	jbe	0x19446
0001943c	6a 04	pushl	$0x4
0001943e	58	popl	%eax
0001943f	eb 0f	jmp	0x19450
00019441	6a 28	pushl	$0x28
00019443	58	popl	%eax
00019444	eb 0a	jmp	0x19450
00019446	b0 28	movb	$0x28, %al
00019448	0f b6 c0	movzbl	%al, %eax
0001944b	f6 f3	divb	%bl
0001944d	0f b6 c0	movzbl	%al, %eax
00019450	89 81 e8 43 00 00	movl	%eax, 0x43e8(%ecx)
00019456	c6 81 09 44 00 00 00	movb	$0x0, 0x4409(%ecx)
0001945d	a1 80 00 e0 fe	movl	0xfee00080, %eax
00019462	c7 05 80 00 e0 fe f0 00 00 00	movl	$0xf0, -0x11fff80
0001946c	c6 81 88 03 00 00 01	movb	$0x1, 0x388(%ecx)
00019473	a3 80 00 e0 fe	movl	%eax, 0xfee00080
00019478	69 81 e8 43 00 00 e8 03 00 00	imull	$0x3e8, 0x43e8(%ecx), %eax
00019482	81 c1 d4 02 00 00	addl	$0x2d4, %ecx
00019488	89 04 24	movl	%eax, P24C_SW_1ST_VECTOR_NUM(%esp)
0001948b	6a 05	pushl	$0x5
0001948d	5a	popl	%edx
0001948e	e8 3f 01 00 00	calll	__ZN17IGGucTimerManager12setTimeoutUSE16IGGucTimerTaskIdjb ## IGGucTimerManager::setTimeoutUS(IGGucTimerTaskId, unsigned int, bool)
00019493	83 c4 08	addl	$0x8, %esp
00019496	5b	popl	%ebx
00019497	c3	retl
__ZN17IGMicroController36handleThrottlePriorityTimerInterruptEh:
00019498	6b c2 24	imull	$0x24, %edx, %eax
0001949b	c6 84 01 d4 0e 00 00 00	movb	$0x0, 0xed4(%ecx,%eax)
000194a3	83 a4 91 58 0f 00 00 00	andl	$0x0, 0xf58(%ecx,%edx,4)
000194ab	31 d2	xorl	%edx, %edx
000194ad	42	incl	%edx
000194ae	e9 f9 fb ff ff	jmp	__ZN17IGMicroController11schedNotifyEj ## IGMicroController::schedNotify(unsigned int)
000194b3	90	nop
__ZN21IGGucTimerEventSource12checkForWorkEj:
000194b4	53	pushl	%ebx
000194b5	57	pushl	%edi
000194b6	56	pushl	%esi
000194b7	83 ec 10	subl	$0x10, %esp
000194ba	31 f6	xorl	%esi, %esi
000194bc	80 79 14 00	cmpb	$0x0, 0x14(%ecx)
000194c0	74 29	je	0x194eb
000194c2	89 d3	movl	%edx, %ebx
000194c4	89 cf	movl	%ecx, %edi
000194c6	8b 44 91 08	movl	0x8(%ecx,%edx,4), %eax
000194ca	85 c0	testl	%eax, %eax
000194cc	74 0c	je	0x194da
000194ce	8b 4f 04	movl	0x4(%edi), %ecx
000194d1	89 7c 24 04	movl	%edi, 0x4(%esp)
000194d5	89 0c 24	movl	%ecx, P24C_SW_1ST_VECTOR_NUM(%esp)
000194d8	ff d0	calll	*%eax
000194da	85 db	testl	%ebx, %ebx
000194dc	75 0d	jne	0x194eb
000194de	83 7f 0c 00	cmpl	$0x0, 0xc(%edi)
000194e2	74 07	je	0x194eb
000194e4	8a 0f	movb	P24C_SW_1ST_VECTOR_NUM(%edi), %cl
000194e6	31 f6	xorl	%esi, %esi
000194e8	46	incl	%esi
000194e9	d3 e6	shll	%cl, %esi
000194eb	89 f0	movl	%esi, %eax
000194ed	83 c4 10	addl	$0x10, %esp
000194f0	5e	popl	%esi
000194f1	5f	popl	%edi
000194f2	5b	popl	%ebx
000194f3	c3	retl
__ZN17IGGucTimerManager30handleCheckFrequencyTimerRearmEPvP21IGGucTimerEventSource:
000194f4	83 ec 0c	subl	$0xc, %esp
000194f7	8b 0d f8 c8 00 00	movl	__ZN17IGMicroController9fInstanceE, %ecx ## IGMicroController::fInstance
000194fd	f6 81 b4 00 00 00 3f	testb	$0x3f, SEMAPHORE_VECTOR_6(%ecx)
00019504	74 3c	je	0x19542
00019506	8b 44 24 14	movl	0x14(%esp), %eax
0001950a	c6 40 14 01	movb	$0x1, 0x14(%eax)
0001950e	8b 15 60 59 f4 ff	movl	-0xba6a0, %edx
00019514	89 91 cc 43 00 00	movl	%edx, 0x43cc(%ecx)
0001951a	8b 15 e8 c3 e0 ff	movl	-0x1f3c18, %edx
00019520	89 91 d0 43 00 00	movl	%edx, 0x43d0(%ecx)
00019526	89 91 d4 43 00 00	movl	%edx, 0x43d4(%ecx)
0001952c	8b 10	movl	P24C_SW_1ST_VECTOR_NUM(%eax), %edx
0001952e	8b 81 7c 43 00 00	movl	0x437c(%ecx), %eax
00019534	81 c1 d4 02 00 00	addl	$0x2d4, %ecx
0001953a	89 04 24	movl	%eax, P24C_SW_1ST_VECTOR_NUM(%esp)
0001953d	e8 90 00 00 00	calll	__ZN17IGGucTimerManager12setTimeoutUSE16IGGucTimerTaskIdjb ## IGGucTimerManager::setTimeoutUS(IGGucTimerTaskId, unsigned int, bool)
00019542	83 c4 0c	addl	$0xc, %esp
00019545	c3	retl
__ZN17IGGucTimerManager31handleChangeFrequencyTimerRearmEPvP21IGGucTimerEventSource:
00019546	83 ec 1c	subl	$0x1c, %esp
00019549	80 3d e8 c8 00 00 00	cmpb	$0x0, _gPerfLogEnable
00019550	75 26	jne	0x19578
00019552	8b 0d f8 c8 00 00	movl	__ZN17IGMicroController9fInstanceE, %ecx ## IGMicroController::fInstance
00019558	0f b6 81 6c 0f 00 00	movzbl	0xf6c(%ecx), %eax
0001955f	8b 94 81 50 43 00 00	movl	0x4350(%ecx,%eax,4), %edx
00019566	e8 b5 fe ff ff	calll	__ZN17IGMicroController25startChangeFrequencyTimerEj ## IGMicroController::startChangeFrequencyTimer(unsigned int)
0001956b	80 3d e8 c8 00 00 00	cmpb	$0x0, _gPerfLogEnable
00019572	75 31	jne	0x195a5
00019574	83 c4 1c	addl	$0x1c, %esp
00019577	c3	retl
00019578	8b 0d f8 c8 00 00	movl	__ZN17IGMicroController9fInstanceE, %ecx ## IGMicroController::fInstance
0001957e	c7 44 24 10 ed 44 fe de	movl	$0xdefe44ed, 0x10(%esp)
00019586	83 64 24 0c 00	andl	$0x0, 0xc(%esp)
0001958b	83 64 24 08 00	andl	$0x0, 0x8(%esp)
00019590	83 64 24 04 00	andl	$0x0, 0x4(%esp)
00019595	83 24 24 00	andl	$0x0, P24C_SW_1ST_VECTOR_NUM(%esp)
00019599	ba 15 00 a7 85	movl	$0x85a70015, %edx
0001959e	e8 99 f3 ff ff	calll	__ZN17IGMicroController27perfLogAppendKdebugConstantEjyjjj ## IGMicroController::perfLogAppendKdebugConstant(unsigned int, unsigned long long, unsigned int, unsigned int, unsigned int)
000195a3	eb ad	jmp	0x19552
000195a5	8b 0d f8 c8 00 00	movl	__ZN17IGMicroController9fInstanceE, %ecx ## IGMicroController::fInstance
000195ab	c7 44 24 10 ed 44 fe de	movl	$0xdefe44ed, 0x10(%esp)
000195b3	83 64 24 0c 00	andl	$0x0, 0xc(%esp)
000195b8	83 64 24 08 00	andl	$0x0, 0x8(%esp)
000195bd	83 64 24 04 00	andl	$0x0, 0x4(%esp)
000195c2	83 24 24 00	andl	$0x0, P24C_SW_1ST_VECTOR_NUM(%esp)
000195c6	ba 16 00 a7 85	movl	$0x85a70016, %edx
000195cb	e8 6c f3 ff ff	calll	__ZN17IGMicroController27perfLogAppendKdebugConstantEjyjjj ## IGMicroController::perfLogAppendKdebugConstant(unsigned int, unsigned long long, unsigned int, unsigned int, unsigned int)
000195d0	eb a2	jmp	0x19574
__ZN17IGGucTimerManager12setTimeoutUSE16IGGucTimerTaskIdjb:
000195d2	55	pushl	%ebp
000195d3	53	pushl	%ebx
000195d4	57	pushl	%edi
000195d5	56	pushl	%esi
000195d6	83 ec 0c	subl	$0xc, %esp
000195d9	89 ce	movl	%ecx, %esi
000195db	a1 80 00 e0 fe	movl	0xfee00080, %eax
000195e0	89 44 24 08	movl	%eax, 0x8(%esp)
000195e4	c7 05 80 00 e0 fe f0 00 00 00	movl	$0xf0, -0x11fff80
000195ee	89 54 24 04	movl	%edx, 0x4(%esp)
000195f2	e8 31 01 00 00	calll	__ZN17IGGucTimerManager32timerEventSourceQueueCheckRemoveE16IGGucTimerTaskId ## IGGucTimerManager::timerEventSourceQueueCheckRemove(IGGucTimerTaskId)
000195f7	88 44 24 03	movb	%al, 0x3(%esp)
000195fb	8b 86 4c 01 00 00	movl	0x14c(%esi), %eax
00019601	0f af 44 24 20	imull	0x20(%esp), %eax
00019606	6a 0a	pushl	$0xa
00019608	59	popl	%ecx
00019609	31 d2	xorl	%edx, %edx
0001960b	f7 f1	divl	%ecx
0001960d	8b 1d e8 c3 e0 ff	movl	-0x1f3c18, %ebx
00019613	8b ae 64 01 00 00	movl	0x164(%esi), %ebp
00019619	85 ed	testl	%ebp, %ebp
0001961b	74 7d	je	0x1969a
0001961d	8b 7c 24 04	movl	0x4(%esp), %edi
00019621	89 da	movl	%ebx, %edx
00019623	2b 96 58 01 00 00	subl	0x158(%esi), %edx
00019629	01 c2	addl	%eax, %edx
0001962b	8b 4d 10	movl	0x10(%ebp), %ecx
0001962e	39 ca	cmpl	%ecx, %edx
00019630	73 2e	jae	0x19660
00019632	89 f9	movl	%edi, %ecx
00019634	c1 e1 05	shll	$0x5, %ecx
00019637	8d 7c 0e 18	leal	0x18(%esi,%ecx), %edi
0001963b	89 47 f8	movl	%eax, -0x8(%edi)
0001963e	29 55 10	subl	%edx, 0x10(%ebp)
00019641	89 2f	movl	%ebp, P24C_SW_1ST_VECTOR_NUM(%edi)
00019643	89 7d 1c	movl	%edi, 0x1c(%ebp)
00019646	8d 04 0e	leal	P24C_SW_1ST_VECTOR_NUM(%esi,%ecx), %eax
00019649	89 86 64 01 00 00	movl	%eax, 0x164(%esi)
0001964f	8d 86 64 01 00 00	leal	0x164(%esi), %eax
00019655	89 47 04	movl	%eax, 0x4(%edi)
00019658	89 9e 58 01 00 00	movl	%ebx, 0x158(%esi)
0001965e	eb 65	jmp	0x196c5
00019660	29 ca	subl	%ecx, %edx
00019662	8b 6d 18	movl	0x18(%ebp), %ebp
00019665	85 ed	testl	%ebp, %ebp
00019667	0f 84 81 00 00 00	je	0x196ee
0001966d	8b 4d 10	movl	0x10(%ebp), %ecx
00019670	39 ca	cmpl	%ecx, %edx
00019672	73 ec	jae	0x19660
00019674	89 f9	movl	%edi, %ecx
00019676	89 f8	movl	%edi, %eax
00019678	c1 e0 05	shll	$0x5, %eax
0001967b	8d 3c 06	leal	P24C_SW_1ST_VECTOR_NUM(%esi,%eax), %edi
0001967e	8d 44 06 18	leal	0x18(%esi,%eax), %eax
00019682	89 50 f8	movl	%edx, -0x8(%eax)
00019685	29 55 10	subl	%edx, 0x10(%ebp)
00019688	8b 55 1c	movl	0x1c(%ebp), %edx
0001968b	89 50 04	movl	%edx, 0x4(%eax)
0001968e	89 28	movl	%ebp, P24C_SW_1ST_VECTOR_NUM(%eax)
00019690	8b 55 1c	movl	0x1c(%ebp), %edx
00019693	89 3a	movl	%edi, P24C_SW_1ST_VECTOR_NUM(%edx)
00019695	89 45 1c	movl	%eax, 0x1c(%ebp)
00019698	eb 79	jmp	0x19713
0001969a	89 9e 58 01 00 00	movl	%ebx, 0x158(%esi)
000196a0	8b 4c 24 04	movl	0x4(%esp), %ecx
000196a4	c1 e1 05	shll	$0x5, %ecx
000196a7	8d 14 0e	leal	P24C_SW_1ST_VECTOR_NUM(%esi,%ecx), %edx
000196aa	8d 4c 0e 18	leal	0x18(%esi,%ecx), %ecx
000196ae	89 41 f8	movl	%eax, -0x8(%ecx)
000196b1	83 21 00	andl	$0x0, P24C_SW_1ST_VECTOR_NUM(%ecx)
000196b4	8b 86 68 01 00 00	movl	0x168(%esi), %eax
000196ba	89 41 04	movl	%eax, 0x4(%ecx)
000196bd	89 10	movl	%edx, P24C_SW_1ST_VECTOR_NUM(%eax)
000196bf	89 8e 68 01 00 00	movl	%ecx, 0x168(%esi)
000196c5	31 c0	xorl	%eax, %eax
000196c7	40	incl	%eax
000196c8	8b 4c 24 04	movl	0x4(%esp), %ecx
000196cc	d3 e0	shll	%cl, %eax
000196ce	09 86 40 01 00 00	orl	%eax, 0x140(%esi)
000196d4	89 f1	movl	%esi, %ecx
000196d6	89 da	movl	%ebx, %edx
000196d8	e8 89 00 00 00	calll	__ZN17IGGucTimerManager31timerEventSourceQueueArmHwTimerEj ## IGGucTimerManager::timerEventSourceQueueArmHwTimer(unsigned int)
000196dd	8b 44 24 08	movl	0x8(%esp), %eax
000196e1	a3 80 00 e0 fe	movl	%eax, 0xfee00080
000196e6	83 c4 0c	addl	$0xc, %esp
000196e9	5e	popl	%esi
000196ea	5f	popl	%edi
000196eb	5b	popl	%ebx
000196ec	5d	popl	%ebp
000196ed	c3	retl
000196ee	89 f9	movl	%edi, %ecx
000196f0	89 f8	movl	%edi, %eax
000196f2	c1 e0 05	shll	$0x5, %eax
000196f5	8d 3c 06	leal	P24C_SW_1ST_VECTOR_NUM(%esi,%eax), %edi
000196f8	8d 44 06 18	leal	0x18(%esi,%eax), %eax
000196fc	89 50 f8	movl	%edx, -0x8(%eax)
000196ff	83 20 00	andl	$0x0, P24C_SW_1ST_VECTOR_NUM(%eax)
00019702	8b 96 68 01 00 00	movl	0x168(%esi), %edx
00019708	89 50 04	movl	%edx, 0x4(%eax)
0001970b	89 3a	movl	%edi, P24C_SW_1ST_VECTOR_NUM(%edx)
0001970d	89 86 68 01 00 00	movl	%eax, 0x168(%esi)
00019713	31 c0	xorl	%eax, %eax
00019715	40	incl	%eax
00019716	d3 e0	shll	%cl, %eax
00019718	09 86 40 01 00 00	orl	%eax, 0x140(%esi)
0001971e	80 7c 24 03 00	cmpb	$0x0, 0x3(%esp)
00019723	75 af	jne	0x196d4
00019725	eb b6	jmp	0x196dd
00019727	90	nop
__ZN17IGGucTimerManager32timerEventSourceQueueCheckRemoveE16IGGucTimerTaskId:
00019728	53	pushl	%ebx
00019729	56	pushl	%esi
0001972a	50	pushl	%eax
0001972b	8b 81 40 01 00 00	movl	0x140(%ecx), %eax
00019731	0f a3 d0	btl	%edx, %eax
00019734	73 26	jae	0x1975c
00019736	89 d0	movl	%edx, %eax
00019738	c1 e0 05	shll	$0x5, %eax
0001973b	8b 74 01 18	movl	0x18(%ecx,%eax), %esi
0001973f	85 f6	testl	%esi, %esi
00019741	74 07	je	0x1974a
00019743	8b 44 01 10	movl	0x10(%ecx,%eax), %eax
00019747	01 46 10	addl	%eax, 0x10(%esi)
0001974a	8b 81 64 01 00 00	movl	0x164(%ecx), %eax
00019750	39 10	cmpl	%edx, P24C_SW_1ST_VECTOR_NUM(%eax)
00019752	0f 94 c3	sete	%bl
00019755	e8 6a 00 00 00	calll	__ZN17IGGucTimerManager27timerEventSourceQueueRemoveE16IGGucTimerTaskId ## IGGucTimerManager::timerEventSourceQueueRemove(IGGucTimerTaskId)
0001975a	eb 02	jmp	0x1975e
0001975c	31 db	xorl	%ebx, %ebx
0001975e	89 d8	movl	%ebx, %eax
00019760	83 c4 04	addl	$0x4, %esp
00019763	5e	popl	%esi
00019764	5b	popl	%ebx
00019765	c3	retl
__ZN17IGGucTimerManager31timerEventSourceQueueArmHwTimerEj:
00019766	57	pushl	%edi
00019767	56	pushl	%esi
00019768	8b 81 54 01 00 00	movl	0x154(%ecx), %eax
0001976e	8b b1 64 01 00 00	movl	0x164(%ecx), %esi
00019774	8b 76 10	movl	0x10(%esi), %esi
00019777	2b 91 58 01 00 00	subl	0x158(%ecx), %edx
0001977d	8d 3c 02	leal	P24C_SW_1ST_VECTOR_NUM(%edx,%eax), %edi
00019780	39 f7	cmpl	%esi, %edi
00019782	73 04	jae	0x19788
00019784	29 d6	subl	%edx, %esi
00019786	89 f0	movl	%esi, %eax
00019788	31 d2	xorl	%edx, %edx
0001978a	89 15 70 a1 e0 ff	movl	%edx, -0x1f5e90
00019790	89 15 74 a1 e0 ff	movl	%edx, -0x1f5e8c
00019796	8a 89 48 01 00 00	movb	0x148(%ecx), %cl
0001979c	89 c2	movl	%eax, %edx
0001979e	d3 e2	shll	%cl, %edx
000197a0	83 e2 fc	andl	$-0x4, %edx
000197a3	83 ca 01	orl	$0x1, %edx
000197a6	31 f6	xorl	%esi, %esi
000197a8	4e	decl	%esi
000197a9	89 f7	movl	%esi, %edi
000197ab	d3 ef	shrl	%cl, %edi
000197ad	31 f7	xorl	%esi, %edi
000197af	21 c7	andl	%eax, %edi
000197b1	f6 d9	negb	%cl
000197b3	d3 ef	shrl	%cl, %edi
000197b5	89 3d 70 a1 e0 ff	movl	%edi, -0x1f5e90
000197bb	89 15 74 a1 e0 ff	movl	%edx, -0x1f5e8c
000197c1	5e	popl	%esi
000197c2	5f	popl	%edi
000197c3	c3	retl
__ZN17IGGucTimerManager27timerEventSourceQueueRemoveE16IGGucTimerTaskId:
000197c4	57	pushl	%edi
000197c5	56	pushl	%esi
000197c6	89 c8	movl	%ecx, %eax
000197c8	89 d1	movl	%edx, %ecx
000197ca	c1 e1 05	shll	$0x5, %ecx
000197cd	8d 4c 08 18	leal	0x18(%eax,%ecx), %ecx
000197d1	8b 31	movl	P24C_SW_1ST_VECTOR_NUM(%ecx), %esi
000197d3	8b 79 04	movl	0x4(%ecx), %edi
000197d6	85 f6	testl	%esi, %esi
000197d8	74 08	je	0x197e2
000197da	89 7e 1c	movl	%edi, 0x1c(%esi)
000197dd	8b 79 04	movl	0x4(%ecx), %edi
000197e0	eb 06	jmp	0x197e8
000197e2	89 b8 68 01 00 00	movl	%edi, 0x168(%eax)
000197e8	89 37	movl	%esi, P24C_SW_1ST_VECTOR_NUM(%edi)
000197ea	83 21 00	andl	$0x0, P24C_SW_1ST_VECTOR_NUM(%ecx)
000197ed	83 61 04 00	andl	$0x0, 0x4(%ecx)
000197f1	6a fe	pushl	$-0x2
000197f3	5e	popl	%esi
000197f4	89 d1	movl	%edx, %ecx
000197f6	d3 c6	roll	%cl, %esi
000197f8	21 b0 40 01 00 00	andl	%esi, 0x140(%eax)
000197fe	5e	popl	%esi
000197ff	5f	popl	%edi
00019800	c3	retl
00019801	90	nop
__ZN17IGGucTimerManager11cancelTimerE16IGGucTimerTaskId:
00019802	57	pushl	%edi
00019803	56	pushl	%esi
00019804	50	pushl	%eax
00019805	89 ce	movl	%ecx, %esi
00019807	8b 3d 80 00 e0 fe	movl	-0x11fff80, %edi
0001980d	b8 f0 00 00 00	movl	$0xf0, %eax
00019812	a3 80 00 e0 fe	movl	%eax, 0xfee00080
00019817	8b 0d 80 00 e0 fe	movl	-0x11fff80, %ecx
0001981d	a3 80 00 e0 fe	movl	%eax, 0xfee00080
00019822	89 d0	movl	%edx, %eax
00019824	c1 e0 05	shll	$0x5, %eax
00019827	c6 44 06 14 00	movb	$0x0, 0x14(%esi,%eax)
0001982c	89 0d 80 00 e0 fe	movl	%ecx, -0x11fff80
00019832	89 f1	movl	%esi, %ecx
00019834	e8 ef fe ff ff	calll	__ZN17IGGucTimerManager32timerEventSourceQueueCheckRemoveE16IGGucTimerTaskId ## IGGucTimerManager::timerEventSourceQueueCheckRemove(IGGucTimerTaskId)
00019839	83 be 64 01 00 00 00	cmpl	$0x0, 0x164(%esi)
00019840	75 0c	jne	0x1984e
00019842	31 c0	xorl	%eax, %eax
00019844	a3 70 a1 e0 ff	movl	%eax, 0xffe0a170
00019849	a3 74 a1 e0 ff	movl	%eax, 0xffe0a174
0001984e	89 3d 80 00 e0 fe	movl	%edi, -0x11fff80
00019854	83 c4 04	addl	$0x4, %esp
00019857	5e	popl	%esi
00019858	5f	popl	%edi
00019859	c3	retl
__ZN17IGGucTimerManager22armCheckFrequencyTimerEb:
0001985a	56	pushl	%esi
0001985b	83 ec 08	subl	$0x8, %esp
0001985e	89 ce	movl	%ecx, %esi
00019860	84 d2	testb	%dl, %dl
00019862	74 0b	je	0x1986f
00019864	89 f1	movl	%esi, %ecx
00019866	31 d2	xorl	%edx, %edx
00019868	e8 95 ff ff ff	calll	__ZN17IGGucTimerManager11cancelTimerE16IGGucTimerTaskId ## IGGucTimerManager::cancelTimer(IGGucTimerTaskId)
0001986d	eb 09	jmp	0x19878
0001986f	f6 86 40 01 00 00 01	testb	$0x1, 0x140(%esi)
00019876	75 51	jne	0x198c9
00019878	a1 80 00 e0 fe	movl	0xfee00080, %eax
0001987d	c7 05 80 00 e0 fe f0 00 00 00	movl	$0xf0, -0x11fff80
00019887	c6 46 14 01	movb	$0x1, 0x14(%esi)
0001988b	a3 80 00 e0 fe	movl	%eax, 0xfee00080
00019890	a1 f8 c8 00 00	movl	__ZN17IGMicroController9fInstanceE, %eax ## IGMicroController::fInstance
00019895	8b 0d 60 59 f4 ff	movl	-0xba6a0, %ecx
0001989b	89 88 cc 43 00 00	movl	%ecx, 0x43cc(%eax)
000198a1	8b 0d e8 c3 e0 ff	movl	-0x1f3c18, %ecx
000198a7	89 88 d0 43 00 00	movl	%ecx, 0x43d0(%eax)
000198ad	89 88 d4 43 00 00	movl	%ecx, 0x43d4(%eax)
000198b3	8b 80 7c 43 00 00	movl	0x437c(%eax), %eax
000198b9	89 04 24	movl	%eax, P24C_SW_1ST_VECTOR_NUM(%esp)
000198bc	89 f1	movl	%esi, %ecx
000198be	31 d2	xorl	%edx, %edx
000198c0	e8 0d fd ff ff	calll	__ZN17IGGucTimerManager12setTimeoutUSE16IGGucTimerTaskIdjb ## IGGucTimerManager::setTimeoutUS(IGGucTimerTaskId, unsigned int, bool)
000198c5	b0 01	movb	$0x1, %al
000198c7	eb 02	jmp	0x198cb
000198c9	31 c0	xorl	%eax, %eax
000198cb	83 c4 08	addl	$0x8, %esp
000198ce	5e	popl	%esi
000198cf	c3	retl
/AppleInternal/BuildRoot/Library/Caches/com.apple.xbs/Binaries/AppleIntelGuCFramework/install/TempContent/Objects/GuC/clang/release/tgl/obj/GuC.bin.core:
Contents of (__TEXT,__const) section
000198d0	5a 5e 01 00 96 5e 01 00 e7 5e 01 00 31 5f 01 00 
000198e0	74 5f 01 00 b5 5f 01 00 ec 5f 01 00 59 6e 01 00 
000198f0	19 60 01 00 77 60 01 00 df 60 01 00 76 61 01 00 
00019900	cb 61 01 00 db 61 01 00 59 6e 01 00 eb 61 01 00 
00019910	0e 62 01 00 64 62 01 00 fb 8d 01 00 fb 8d 01 00 
00019920	37 8e 01 00 f3 8d 01 00 f8 8d 01 00 f3 8d 01 00 
00019930	3c 1a 01 00 48 1a 01 00 54 1a 01 00 60 1a 01 00 
00019940	6c 1a 01 00 78 1a 01 00 84 1a 01 00 90 1a 01 00 
00019950	9c 1a 01 00 a8 1a 01 00 b4 1a 01 00 c0 1a 01 00 
00019960	cc 1a 01 00 d8 1a 01 00 e4 1a 01 00 40 0d 01 00 
00019970	f0 1a 01 00 40 0d 01 00 40 0d 01 00 40 0d 01 00 
00019980	40 0d 01 00 40 0d 01 00 40 0d 01 00 40 0d 01 00 
00019990	40 0d 01 00 40 0d 01 00 40 0d 01 00 40 0d 01 00 
000199a0	40 0d 01 00 40 0d 01 00 40 0d 01 00 40 0d 01 00 
000199b0	00 00 00 00 00 00 00 00 d6 1c 01 00 e4 1c 01 00 
000199c0	f6 1c 01 00 08 1d 01 00 28 1d 01 00 2c 1d 01 00 
000199d0	c2 22 01 00 a0 25 01 00 6a 26 01 00 6c 26 01 00 
000199e0	6e 26 01 00 70 26 01 00 92 27 01 00 20 2a 01 00 
000199f0	cc 2a 01 00 d0 2a 01 00 d2 2a 01 00 00 00 00 00 
00019a00	00 00 00 00 88 2d 01 00 e8 2d 01 00 28 2e 01 00 
00019a10	68 2e 01 00 fe 2f 01 00 18 30 01 00 c2 22 01 00 
00019a20	70 39 01 00 94 3a 01 00 ca 3b 01 00 de 3b 01 00 
00019a30	70 26 01 00 92 27 01 00 20 2a 01 00 3c 3c 01 00 
00019a40	48 3c 01 00 62 3c 01 00 00 04 08 14 00 01 02 02 
00019a50	02 03 00 00 00 00 00 00 00 00 00 00 00 00 00 00 
00019a60	00 00 00 00 00 00 00 00 00 00 00 00 00 00 00 00 
00019a70	00 00 00 00 a6 52 01 00 00 00 00 00 00 00 00 00 
00019a80	00 00 00 00 00 00 00 00 00 00 00 00 00 00 00 00 
00019a90	00 00 00 00 00 00 00 00 00 00 00 00 00 00 00 00 
00019aa0	00 00 00 00 00 00 00 00 00 00 00 00 00 00 00 00 
00019ab0	00 00 00 00 a6 52 01 00 00 00 00 00 00 00 00 00 
00019ac0	00 00 00 00 00 00 00 00 00 00 00 00 00 00 00 00 
00019ad0	00 00 00 00 00 00 00 00 00 00 00 00 00 00 00 00 
00019ae0	00 00 00 00 00 00 00 00 00 00 00 00 00 00 00 00 
00019af0	00 00 00 00 a6 52 01 00 00 00 00 00 00 00 00 00 
00019b00	00 00 00 00 00 00 00 00 00 00 00 00 00 00 00 00 
00019b10	00 00 00 00 00 00 00 00 00 00 00 00 00 00 00 00 
00019b20	00 00 00 00 00 00 00 00 00 00 00 00 00 00 00 00 
00019b30	00 00 00 00 a6 52 01 00 00 00 00 00 00 00 00 00 
00019b40	00 00 00 00 00 00 00 00 00 00 00 00 00 00 00 00 
00019b50	00 00 00 00 00 00 00 00 00 00 00 00 00 00 00 00 
00019b60	00 00 00 00 00 00 00 00 00 00 00 00 00 00 00 00 
00019b70	00 00 00 00 00 00 00 00 fe 52 01 00 00 00 00 00 
00019b80	00 00 00 00 00 00 00 00 00 00 00 00 00 00 00 00 
00019b90	00 00 00 00 00 00 00 00 00 00 00 00 00 00 00 00 
00019ba0	00 00 00 00 00 00 00 00 00 00 00 00 00 00 00 00 
00019bb0	00 00 00 00 00 00 00 00 00 00 00 00 00 00 00 00 
00019bc0	00 00 00 00 00 00 00 00 00 00 00 00 00 00 00 00 
00019bd0	00 00 00 00 00 00 00 00 00 00 00 00 00 00 00 00 
00019be0	00 00 00 00 dc 53 01 00 00 00 00 00 00 00 00 00 
00019bf0	00 00 00 00 00 00 00 00 00 00 00 00 00 00 00 00 
00019c00	00 00 00 00 00 00 00 00 00 00 00 00 00 00 00 00 
00019c10	00 00 00 00 30 c5 00 00 2c c5 00 00 28 c5 00 00 
00019c20	24 c5 00 00 20 c5 00 00 1c c5 00 00 18 c5 00 00 
00019c30	14 c5 00 00 00 01 00 00 00 c0 9e 01 00 c4 9e 01 
00019c40	00 30 22 00 00 10 25 00 00 50 25 00 00 34 22 00 
00019c50	00 a0 23 00 00 70 23 00 00 b0 c5 00 00 c0 c5 00 
00019c60	00 80 20 00 00 9c 22 00 00 d0 20 00 00 b0 20 00 
00019c70	00 b4 20 00 00 58 23 00 00 00 26 00 00 00 00 00 
00019c80	00 00 40 01 00 00 00 00 00 17 00 00 00 18 00 00 
00019c90	00 01 02 00 00 00 cb 9e 01 00 cf 9e 01 00 30 a2 
00019ca0	01 00 10 a5 01 00 50 a5 01 00 34 a2 01 00 a0 a3 
00019cb0	01 00 70 a3 01 00 e0 c5 00 00 e4 c5 00 00 80 a0 
00019cc0	01 00 9c a2 01 00 d0 a0 01 00 b0 a0 01 00 b4 a0 
00019cd0	01 00 00 a6 01 00 58 a3 01 00 00 00 00 00 00 40 
00019ce0	01 00 18 00 00 00 1f 00 00 00 08 00 00 00 02 04 
00019cf0	00 00 00 d7 9e 01 00 db 9e 01 00 30 22 02 00 10 
00019d00	25 02 00 50 25 02 00 34 22 02 00 a0 23 02 00 70 
00019d10	23 02 00 b4 c5 00 00 c4 c5 00 00 80 20 02 00 9c 
00019d20	22 02 00 d0 20 02 00 b0 20 02 00 b4 20 02 00 58 
00019d30	23 02 00 00 26 02 00 00 00 00 00 00 20 00 00 20 
00019d40	00 00 00 23 00 00 00 04 00 00 00 03 08 00 00 00 
00019d50	e0 9e 01 00 e5 9e 01 00 30 02 1c 00 10 05 1c 00 
00019d60	50 05 1c 00 34 02 1c 00 a0 03 1c 00 70 03 1c 00 
00019d70	b8 c5 00 00 c8 c5 00 00 80 00 1c 00 9c 02 1c 00 
00019d80	d0 00 1c 00 b0 00 1c 00 b4 00 1c 00 58 03 1c 00 
00019d90	00 06 1c 00 01 00 00 00 00 20 00 00 24 00 00 00 
00019da0	2b 00 00 00 08 00 00 00 04 10 00 00 00 eb 9e 01 
00019db0	00 e5 9e 01 00 30 02 1d 00 10 05 1d 00 50 05 1d 
00019dc0	00 34 02 1d 00 a0 03 1d 00 70 03 1d 00 b8 c5 00 
00019dd0	00 c8 c5 00 00 80 00 1d 00 9c 02 1d 00 d0 00 1d 
00019de0	00 b0 00 1d 00 b4 00 1d 00 58 03 1d 00 00 06 1d 
00019df0	00 04 00 00 00 00 20 00 00 2c 00 00 00 33 00 00 
00019e00	00 08 00 00 00 05 20 00 00 00 f0 9e 01 00 e5 9e 
00019e10	01 00 30 82 1c 00 10 85 1c 00 50 85 1c 00 34 82 
00019e20	1c 00 a0 83 1c 00 70 83 1c 00 bc c5 00 00 cc c5 
00019e30	00 00 80 80 1c 00 9c 82 1c 00 d0 80 1c 00 b0 80 
00019e40	1c 00 b4 80 1c 00 58 83 1c 00 00 86 1c 00 00 01 
00019e50	00 00 00 20 00 00 34 00 00 00 3b 00 00 00 08 00 
00019e60	00 00 00 01 02 03 04 05 00 00 00 00 00 00 00 00 
00019e70	00 00 00 00 00 00 00 00 00 00 00 00 00 00 00 00 
00019e80	01 01 01 01 01 01 01 01 02 02 02 02 03 03 03 03 
00019e90	03 03 03 03 04 04 04 04 04 04 04 04 05 05 05 05 
00019ea0	05 05 05 05 06 06 06 06 00 00 00 00 00 00 00 00 
00019eb0	01 00 00 00 02 00 00 00 03 00 00 00 04 00 00 00 
/AppleInternal/BuildRoot/Library/Caches/com.apple.xbs/Binaries/AppleIntelGuCFramework/install/TempContent/Objects/GuC/clang/release/tgl/obj/GuC.bin.core:
Contents of (__TEXT,__cstring) section
00019ec0  RCS
00019ec4  Render
00019ecb  CCS
00019ecf  Compute
00019ed7  BCS
00019edb  Blit
00019ee0  VCS0
00019ee5  Media
00019eeb  VCS2
00019ef0  VECS0
/AppleInternal/BuildRoot/Library/Caches/com.apple.xbs/Binaries/AppleIntelGuCFramework/install/TempContent/Objects/GuC/clang/release/tgl/obj/GuC.bin.core:
Contents of (__TEXT,__eh_frame) section
00019ef8	14 00 00 00 00 00 00 00 01 7a 52 00 01 7c 08 01 
00019f08	10 0c 05 04 88 01 00 00 24 00 00 00 1c 00 00 00 
00019f18	7f 7a ff ff 3c 00 00 00 00 41 0e 08 41 0e 0c 41 
00019f28	0e 10 86 04 87 03 83 02 57 0e 14 41 0e 10 00 00 
00019f38	1c 00 00 00 44 00 00 00 93 7a ff ff 49 00 00 00 
00019f48	00 41 0e 08 41 0e 0c 41 0e 10 86 04 87 03 83 02 
00019f58	10 00 00 00 64 00 00 00 bc 7a ff ff 20 00 00 00 
00019f68	00 43 0e 10 10 00 00 00 78 00 00 00 c8 7a ff ff 
00019f78	0c 00 00 00 00 43 0e 10 10 00 00 00 8c 00 00 00 
00019f88	c0 7a ff ff 0c 00 00 00 00 43 0e 10 10 00 00 00 
00019f98	a0 00 00 00 b8 7a ff ff 0c 00 00 00 00 43 0e 10 
00019fa8	10 00 00 00 b4 00 00 00 b0 7a ff ff 0c 00 00 00 
00019fb8	00 43 0e 10 10 00 00 00 c8 00 00 00 a8 7a ff ff 
00019fc8	0c 00 00 00 00 43 0e 10 10 00 00 00 dc 00 00 00 
00019fd8	a0 7a ff ff 0c 00 00 00 00 43 0e 10 10 00 00 00 
00019fe8	f0 00 00 00 98 7a ff ff 0c 00 00 00 00 43 0e 10 
00019ff8	10 00 00 00 04 01 00 00 90 7a ff ff 0c 00 00 00 
0001a008	00 43 0e 10 10 00 00 00 18 01 00 00 88 7a ff ff 
0001a018	0c 00 00 00 00 43 0e 10 10 00 00 00 2c 01 00 00 
0001a028	80 7a ff ff 0c 00 00 00 00 43 0e 10 10 00 00 00 
0001a038	40 01 00 00 78 7a ff ff 0c 00 00 00 00 43 0e 10 
0001a048	10 00 00 00 54 01 00 00 70 7a ff ff 0c 00 00 00 
0001a058	00 43 0e 10 10 00 00 00 68 01 00 00 68 7a ff ff 
0001a068	0c 00 00 00 00 43 0e 10 10 00 00 00 7c 01 00 00 
0001a078	60 7a ff ff 0c 00 00 00 00 43 0e 10 10 00 00 00 
0001a088	90 01 00 00 58 7a ff ff 0c 00 00 00 00 43 0e 10 
0001a098	10 00 00 00 a4 01 00 00 50 7a ff ff 0c 00 00 00 
0001a0a8	00 43 0e 10 2c 00 00 00 b8 01 00 00 48 7a ff ff 
0001a0b8	56 01 00 00 00 41 0e 08 41 0e 0c 41 0e 10 41 0e 
0001a0c8	14 43 0e 20 86 05 87 04 83 03 84 02 02 d4 0e 24 
0001a0d8	41 0e 20 00 10 00 00 00 e8 01 00 00 6e 7b ff ff 
0001a0e8	38 00 00 00 00 00 00 00 10 00 00 00 fc 01 00 00 
0001a0f8	93 7b ff ff 31 00 00 00 00 43 0e 10 10 00 00 00 
0001a108	10 02 00 00 b0 7b ff ff 19 00 00 00 00 43 0e 10 
0001a118	10 00 00 00 24 02 00 00 b6 7b ff ff 0e 00 00 00 
0001a128	00 00 00 00 10 00 00 00 38 02 00 00 b0 7b ff ff 
0001a138	11 00 00 00 00 00 00 00 10 00 00 00 4c 02 00 00 
0001a148	ae 7b ff ff 11 00 00 00 00 00 00 00 14 00 00 00 
0001a158	60 02 00 00 ac 7b ff ff 1f 00 00 00 00 41 0e 08 
0001a168	86 02 00 00 10 00 00 00 78 02 00 00 b4 7b ff ff 
0001a178	03 00 00 00 00 00 00 00 40 00 00 00 8c 02 00 00 
0001a188	a4 7b ff ff 96 05 00 00 00 41 0e 08 41 0e 0c 41 
0001a198	0e 10 41 0e 14 43 0e 80 01 86 05 87 04 83 03 84 
0001a1a8	02 03 a4 04 0e 84 01 41 0e 80 01 50 0e 84 01 41 
0001a1b8	0e 80 01 6c 0e 84 01 41 0e 80 01 00 48 00 00 00 
0001a1c8	d0 02 00 00 f6 80 ff ff de 02 00 00 00 41 0e 08 
0001a1d8	41 0e 0c 41 0e 10 41 0e 14 43 0e 40 86 05 87 04 
0001a1e8	83 03 84 02 57 0e 44 41 0e 40 03 85 01 0e 44 41 
0001a1f8	0e 40 44 0e 44 41 0e 40 64 0e 44 41 0e 40 02 7a 
0001a208	0e 44 41 0e 40 00 00 00 20 00 00 00 1c 03 00 00 
0001a218	88 83 ff ff ca 00 00 00 00 41 0e 08 41 0e 0c 41 
0001a228	0e 10 43 0e 30 86 04 87 03 83 02 00 10 00 00 00 
0001a238	40 03 00 00 2e 84 ff ff 01 00 00 00 00 00 00 00 
0001a248	10 00 00 00 54 03 00 00 1c 84 ff ff 01 00 00 00 
0001a258	00 00 00 00 10 00 00 00 68 03 00 00 0a 84 ff ff 
0001a268	01 00 00 00 00 00 00 00 2c 00 00 00 7c 03 00 00 
0001a278	f8 83 ff ff 21 01 00 00 00 41 0e 08 41 0e 0c 41 
0001a288	0e 10 41 0e 14 43 0e 20 86 05 87 04 83 03 84 02 
0001a298	5f 0e 24 41 0e 20 00 00 2c 00 00 00 ac 03 00 00 
0001a2a8	ea 84 ff ff 8d 02 00 00 00 41 0e 08 41 0e 0c 41 
0001a2b8	0e 10 41 0e 14 43 0e 40 86 05 87 04 83 03 84 02 
0001a2c8	03 d7 01 0e 44 41 0e 40 1c 00 00 00 dc 03 00 00 
0001a2d8	48 87 ff ff ac 00 00 00 00 41 0e 08 41 0e 0c 41 
0001a2e8	0e 10 86 03 87 02 00 00 10 00 00 00 fc 03 00 00 
0001a2f8	d4 87 ff ff 03 00 00 00 00 00 00 00 10 00 00 00 
0001a308	10 04 00 00 c4 87 ff ff 01 00 00 00 00 00 00 00 
0001a318	10 00 00 00 24 04 00 00 b2 87 ff ff 01 00 00 00 
0001a328	00 00 00 00 1c 00 00 00 38 04 00 00 a0 87 ff ff 
0001a338	23 00 00 00 00 41 0e 08 41 0e 0c 41 0e 10 86 03 
0001a348	83 02 00 00 10 00 00 00 58 04 00 00 a4 87 ff ff 
0001a358	0a 00 00 00 00 00 00 00 24 00 00 00 6c 04 00 00 
0001a368	9a 87 ff ff 87 00 00 00 00 41 0e 08 41 0e 0c 41 
0001a378	0e 10 41 0e 14 41 0e 18 86 05 87 04 83 03 84 02 
0001a388	18 00 00 00 94 04 00 00 fa 87 ff ff 17 00 00 00 
0001a398	00 41 0e 08 86 02 42 0e 0c 41 0e 08 20 00 00 00 
0001a3a8	b0 04 00 00 f6 87 ff ff 23 00 00 00 00 41 0e 08 
0001a3b8	41 0e 0c 41 0e 10 86 03 83 02 52 0e 14 41 0e 10 
0001a3c8	18 00 00 00 d4 04 00 00 f6 87 ff ff 19 00 00 00 
0001a3d8	00 41 0e 08 86 02 42 0e 0c 41 0e 08 14 00 00 00 
0001a3e8	f0 04 00 00 f4 87 ff ff 1b 00 00 00 00 42 0e 08 
0001a3f8	41 0e 04 00 1c 00 00 00 08 05 00 00 f8 87 ff ff 
0001a408	22 00 00 00 00 41 0e 08 41 0e 0c 41 0e 10 86 03 
0001a418	87 02 00 00 14 00 00 00 28 05 00 00 fa 87 ff ff 
0001a428	77 00 00 00 00 41 0e 08 86 02 00 00 20 00 00 00 
0001a438	40 05 00 00 5a 88 ff ff 46 00 00 00 00 41 0e 08 
0001a448	41 0e 0c 41 0e 10 43 0e 20 86 04 87 03 83 02 00 
0001a458	24 00 00 00 64 05 00 00 7c 88 ff ff 54 00 00 00 
0001a468	00 41 0e 08 41 0e 0c 41 0e 10 41 0e 14 86 05 87 
0001a478	04 83 03 84 02 00 00 00 20 00 00 00 8c 05 00 00 
0001a488	a8 88 ff ff 35 00 00 00 00 41 0e 08 41 0e 0c 86 
0001a498	03 87 02 46 0e 10 41 0e 0c 00 00 00 1c 00 00 00 
0001a4a8	b0 05 00 00 ba 88 ff ff 22 00 00 00 00 41 0e 08 
0001a4b8	41 0e 0c 41 0e 10 86 03 87 02 00 00 2c 00 00 00 
0001a4c8	d0 05 00 00 bc 88 ff ff 5f 00 00 00 00 41 0e 08 
0001a4d8	41 0e 0c 86 03 87 02 4d 0e 10 41 0e 0c 51 0e 10 
0001a4e8	41 0e 0c 48 0e 10 41 0e 0c 00 00 00 18 00 00 00 
0001a4f8	00 06 00 00 ec 88 ff ff 40 00 00 00 00 43 0e 10 
0001a508	65 0e 14 41 0e 10 00 00 18 00 00 00 1c 06 00 00 
0001a518	10 89 ff ff 40 00 00 00 00 43 0e 10 65 0e 14 41 
0001a528	0e 10 00 00 40 00 00 00 38 06 00 00 34 89 ff ff 
0001a538	95 01 00 00 00 41 0e 08 41 0e 0c 41 0e 10 41 0e 
0001a548	14 43 0e 30 86 05 87 04 83 03 84 02 02 ad 0e 34 
0001a558	41 0e 30 6b 0e 34 41 0e 30 02 4d 0e 34 41 0e 30 
0001a568	6c 0e 34 41 0e 30 00 00 10 00 00 00 7c 06 00 00 
0001a578	86 8a ff ff 1a 00 00 00 00 00 00 00 9c 00 00 00 
0001a588	90 06 00 00 8c 8a ff ff 58 09 00 00 00 41 0e 08 
0001a598	41 0e 0c 41 0e 10 41 0e 14 46 0e a0 01 86 05 87 
0001a5a8	04 83 03 84 02 02 67 0e a4 01 41 0e a0 01 5f 0e 
0001a5b8	a4 01 41 0e a0 01 03 75 04 0e a4 01 41 0e a0 01 
0001a5c8	4d 0e a4 01 41 0e a0 01 03 51 02 0e a4 01 41 0e 
0001a5d8	a0 01 44 0e a4 01 41 0e a0 01 02 8e 0e a4 01 41 
0001a5e8	0e a0 01 44 0e a4 01 41 0e a0 01 4e 0e a4 01 41 
0001a5f8	0e a0 01 48 0e a4 01 41 0e a0 01 56 0e a4 01 41 
0001a608	0e a0 01 49 0e a4 01 41 0e a0 01 02 53 0e a4 01 
0001a618	41 0e a0 01 6e 0e a4 01 41 0e a0 01 24 00 00 00 
0001a628	30 07 00 00 44 93 ff ff 24 01 00 00 00 41 0e 08 
0001a638	41 0e 0c 41 0e 10 41 0e 14 43 0e 30 86 05 87 04 
0001a648	83 03 84 02 2c 00 00 00 58 07 00 00 40 94 ff ff 
0001a658	35 01 00 00 00 41 0e 08 41 0e 0c 41 0e 10 41 0e 
0001a668	14 41 0e 18 86 05 87 04 83 03 84 02 02 75 0e 1c 
0001a678	41 0e 18 00 10 00 00 00 88 07 00 00 46 95 ff ff 
0001a688	13 00 00 00 00 00 00 00 18 00 00 00 9c 07 00 00 
0001a698	46 95 ff ff 5d 00 00 00 00 41 0e 08 41 0e 0c 86 
0001a6a8	03 83 02 00 10 00 00 00 b8 07 00 00 88 95 ff ff 
0001a6b8	0b 00 00 00 00 00 00 00 10 00 00 00 cc 07 00 00 
0001a6c8	80 95 ff ff 1a 00 00 00 00 00 00 00 10 00 00 00 
0001a6d8	e0 07 00 00 86 95 ff ff 0c 00 00 00 00 00 00 00 
0001a6e8	1c 00 00 00 f4 07 00 00 7e 95 ff ff 38 00 00 00 
0001a6f8	00 41 0e 08 41 0e 0c 43 0e 20 86 03 87 02 00 00 
0001a708	2c 00 00 00 14 08 00 00 96 95 ff ff c5 01 00 00 
0001a718	00 41 0e 08 41 0e 0c 41 0e 10 41 0e 14 43 0e 50 
0001a728	86 05 87 04 83 03 84 02 02 40 0e 54 41 0e 50 00 
0001a738	18 00 00 00 44 08 00 00 2c 97 ff ff 19 00 00 00 
0001a748	00 41 0e 08 86 02 44 0e 0c 41 0e 08 14 00 00 00 
0001a758	60 08 00 00 2a 97 ff ff 12 00 00 00 00 42 0e 08 
0001a768	41 0e 04 00 24 00 00 00 78 08 00 00 24 97 ff ff 
0001a778	da 00 00 00 00 41 0e 08 41 0e 0c 41 0e 10 86 04 
0001a788	87 03 83 02 52 0e 14 41 0e 10 00 00 2c 00 00 00 
0001a798	a0 08 00 00 d6 97 ff ff 3e 02 00 00 00 41 0e 08 
0001a7a8	41 0e 0c 41 0e 10 41 0e 14 43 0e 40 86 05 87 04 
0001a7b8	83 03 84 02 03 28 01 0e 44 41 0e 40 2c 00 00 00 
0001a7c8	d0 08 00 00 e4 99 ff ff d3 02 00 00 00 41 0e 08 
0001a7d8	41 0e 0c 41 0e 10 41 0e 14 43 0e 30 86 05 87 04 
0001a7e8	83 03 84 02 02 62 0e 34 41 0e 30 00 34 00 00 00 
0001a7f8	00 09 00 00 88 9c ff ff 64 02 00 00 00 41 0e 08 
0001a808	41 0e 0c 41 0e 10 41 0e 14 43 0e 30 86 05 87 04 
0001a818	83 03 84 02 03 49 01 0e 34 41 0e 30 02 4a 0e 34 
0001a828	41 0e 30 00 2c 00 00 00 38 09 00 00 b4 9e ff ff 
0001a838	00 03 00 00 00 41 0e 08 41 0e 0c 41 0e 10 41 0e 
0001a848	14 43 0e 30 86 05 87 04 83 03 84 02 03 12 02 0e 
0001a858	34 41 0e 30 1c 00 00 00 68 09 00 00 84 a1 ff ff 
0001a868	ee 00 00 00 00 41 0e 08 41 0e 0c 43 0e 20 86 03 
0001a878	83 02 00 00 48 00 00 00 88 09 00 00 52 a2 ff ff 
0001a888	90 02 00 00 00 41 0e 08 41 0e 0c 41 0e 10 41 0e 
0001a898	14 43 0e 60 86 05 87 04 83 03 84 02 02 c9 0e 64 
0001a8a8	41 0e 60 5a 0e 64 41 0e 60 02 70 0e 64 41 0e 60 
0001a8b8	6f 0e 64 41 0e 60 02 45 0e 64 41 0e 60 00 00 00 
0001a8c8	54 00 00 00 d4 09 00 00 96 a4 ff ff 3f 05 00 00 
0001a8d8	00 41 0e 08 41 0e 0c 41 0e 10 41 0e 14 43 0e 60 
0001a8e8	86 05 87 04 83 03 84 02 02 e1 0e 64 41 0e 60 02 
0001a8f8	9f 0e 64 41 0e 60 03 35 01 0e 64 41 0e 60 02 bc 
0001a908	0e 64 41 0e 60 4c 0e 64 41 0e 60 4c 0e 64 41 0e 
0001a918	60 02 f9 0e 64 41 0e 60 18 00 00 00 2c 0a 00 00 
0001a928	7e a9 ff ff 58 00 00 00 00 41 0e 08 43 0e 20 86 
0001a938	02 00 00 00 24 00 00 00 48 0a 00 00 ba a9 ff ff 
0001a948	de 00 00 00 00 41 0e 08 41 0e 0c 41 0e 10 41 0e 
0001a958	14 43 0e 30 86 05 87 04 83 03 84 02 10 00 00 00 
0001a968	70 0a 00 00 70 aa ff ff 0b 00 00 00 00 00 00 00 
0001a978	24 00 00 00 84 0a 00 00 68 aa ff ff a2 00 00 00 
0001a988	00 41 0e 08 41 0e 0c 41 0e 10 41 0e 14 43 0e 30 
0001a998	86 05 87 04 83 03 84 02 38 00 00 00 ac 0a 00 00 
0001a9a8	e2 aa ff ff 9a 03 00 00 00 41 0e 08 41 0e 0c 41 
0001a9b8	0e 10 41 0e 14 46 0e f0 03 86 05 87 04 83 03 84 
0001a9c8	02 03 56 01 0e f4 03 41 0e f0 03 02 9d 0e f4 03 
0001a9d8	41 0e f0 03 10 00 00 00 e8 0a 00 00 40 ae ff ff 
0001a9e8	7a 00 00 00 00 43 0e 20 10 00 00 00 fc 0a 00 00 
0001a9f8	a6 ae ff ff 7b 00 00 00 00 43 0e 20 18 00 00 00 
0001aa08	10 0b 00 00 0e af ff ff 7b 00 00 00 00 43 0e 20 
0001aa18	51 0e 24 41 0e 20 00 00 18 00 00 00 2c 0b 00 00 
0001aa28	6e af ff ff 7b 00 00 00 00 43 0e 20 51 0e 24 41 
0001aa38	0e 20 00 00 1c 00 00 00 48 0b 00 00 ce af ff ff 
0001aa48	11 01 00 00 00 41 0e 08 41 0e 0c 43 0e 20 86 03 
0001aa58	87 02 00 00 18 00 00 00 68 0b 00 00 c0 b0 ff ff 
0001aa68	a0 00 00 00 00 41 0e 08 43 0e 20 86 02 00 00 00 
0001aa78	10 00 00 00 84 0b 00 00 44 b1 ff ff 2c 00 00 00 
0001aa88	00 43 0e 10 10 00 00 00 98 0b 00 00 5c b1 ff ff 
0001aa98	0b 00 00 00 00 00 00 00 10 00 00 00 ac 0b 00 00 
0001aaa8	53 b1 ff ff 01 00 00 00 00 00 00 00 24 00 00 00 
0001aab8	c0 0b 00 00 40 b1 ff ff e7 00 00 00 00 41 0e 08 
0001aac8	41 0e 0c 41 0e 10 41 0e 14 43 0e 40 86 05 87 04 
0001aad8	83 03 84 02 10 00 00 00 e8 0b 00 00 ff b1 ff ff 
0001aae8	0b 00 00 00 00 00 00 00 18 00 00 00 fc 0b 00 00 
0001aaf8	f6 b1 ff ff 76 00 00 00 00 41 0e 08 41 0e 0c 86 
0001ab08	03 87 02 00 18 00 00 00 18 0c 00 00 50 b2 ff ff 
0001ab18	96 00 00 00 00 41 0e 08 43 0e 20 83 02 00 00 00 
0001ab28	10 00 00 00 34 0c 00 00 ca b2 ff ff 01 00 00 00 
0001ab38	00 00 00 00 10 00 00 00 48 0c 00 00 b7 b2 ff ff 
0001ab48	0b 00 00 00 00 00 00 00 64 00 00 00 5c 0c 00 00 
0001ab58	ae b2 ff ff ad 11 00 00 00 41 0e 08 41 0e 0c 41 
0001ab68	0e 10 41 0e 14 43 0e 90 01 86 05 87 04 83 03 84 
0001ab78	02 03 06 02 0e 94 01 41 0e 90 01 02 85 0e 94 01 
0001ab88	41 0e 90 01 59 0e 94 01 41 0e 90 01 03 ed 02 0e 
0001ab98	94 01 41 0e 90 01 03 6d 03 0e 94 01 41 0e 90 01 
0001aba8	76 0e 94 01 41 0e 90 01 7d 0e 94 01 41 0e 90 01 
0001abb8	10 00 00 00 c4 0c 00 00 f4 c3 ff ff 0a 00 00 00 
0001abc8	00 00 00 00 68 00 00 00 d8 0c 00 00 ea c3 ff ff 
0001abd8	10 05 00 00 00 41 0e 08 41 0e 0c 41 0e 10 41 0e 
0001abe8	14 43 0e 30 86 05 87 04 83 03 84 02 02 4e 0e 34 
0001abf8	41 0e 30 02 90 0e 34 41 0e 30 03 e4 01 0e 34 41 
0001ac08	0e 30 02 58 0e 34 41 0e 30 4c 0e 34 41 0e 30 4e 
0001ac18	0e 34 41 0e 30 68 0e 34 41 0e 30 03 34 01 0e 34 
0001ac28	41 0e 30 44 0e 34 41 0e 30 02 50 0e 34 41 0e 30 
0001ac38	74 00 00 00 44 0d 00 00 8e c8 ff ff bc 11 00 00 
0001ac48	00 41 0e 08 41 0e 0c 41 0e 10 41 0e 14 43 0e 60 
0001ac58	86 05 87 04 83 03 84 02 02 8f 0e 64 41 0e 60 55 
0001ac68	0e 64 41 0e 60 03 43 02 0e 64 41 0e 60 4e 0e 64 
0001ac78	41 0e 60 02 87 0e 64 41 0e 60 02 54 0e 64 41 0e 
0001ac88	60 5c 0e 64 41 0e 60 02 d9 0e 64 41 0e 60 03 8b 
0001ac98	01 0e 64 41 0e 60 03 6e 04 0e 64 41 0e 60 02 a3 
0001aca8	0e 64 41 0e 60 00 00 00 30 00 00 00 bc 0d 00 00 
0001acb8	d2 d9 ff ff 28 02 00 00 00 41 0e 08 41 0e 0c 41 
0001acc8	0e 10 86 03 83 02 53 0e 14 41 0e 10 03 d6 01 0e 
0001acd8	14 41 0e 10 55 0e 14 41 0e 10 00 00 1c 00 00 00 
0001ace8	f0 0d 00 00 c6 db ff ff 36 00 00 00 00 41 0e 08 
0001acf8	41 0e 0c 41 0e 10 86 04 87 03 83 02 20 00 00 00 
0001ad08	10 0e 00 00 dc db ff ff 23 00 00 00 00 41 0e 08 
0001ad18	41 0e 0c 41 0e 10 86 03 83 02 52 0e 14 41 0e 10 
0001ad28	14 00 00 00 34 0e 00 00 dc db ff ff 2f 00 00 00 
0001ad38	00 41 0e 08 86 02 00 00 24 00 00 00 4c 0e 00 00 
0001ad48	f4 db ff ff 59 03 00 00 00 41 0e 08 41 0e 0c 41 
0001ad58	0e 10 41 0e 14 43 0e 60 86 05 87 04 83 03 84 02 
0001ad68	2c 00 00 00 74 0e 00 00 26 df ff ff 20 01 00 00 
0001ad78	00 41 0e 08 41 0e 0c 41 0e 10 41 0e 14 43 0e 20 
0001ad88	86 05 87 04 83 03 84 02 49 0e 24 41 0e 20 00 00 
0001ad98	10 00 00 00 a4 0e 00 00 16 e0 ff ff 29 00 00 00 
0001ada8	00 00 00 00 24 00 00 00 b8 0e 00 00 2c e0 ff ff 
0001adb8	5a 00 00 00 00 41 0e 08 41 0e 0c 86 03 87 02 47 
0001adc8	0e 10 41 0e 0c 50 0e 10 41 0e 0c 00 1c 00 00 00 
0001add8	e0 0e 00 00 5e e0 ff ff 83 00 00 00 00 41 0e 08 
0001ade8	41 0e 0c 43 0e 20 86 03 87 02 00 00 2c 00 00 00 
0001adf8	00 0f 00 00 c2 e0 ff ff ed 01 00 00 00 41 0e 08 
0001ae08	41 0e 0c 41 0e 10 41 0e 14 43 0e 50 86 05 87 04 
0001ae18	83 03 84 02 03 18 01 0e 54 41 0e 50 18 00 00 00 
0001ae28	30 0f 00 00 80 e2 ff ff 66 00 00 00 00 41 0e 08 
0001ae38	43 0e 20 86 02 00 00 00 14 00 00 00 4c 0f 00 00 
0001ae48	ca e2 ff ff 13 00 00 00 00 42 0e 08 41 0e 04 00 
0001ae58	10 00 00 00 64 0f 00 00 c6 e2 ff ff 29 00 00 00 
0001ae68	00 00 00 00 24 00 00 00 78 0f 00 00 dc e2 ff ff 
0001ae78	b8 00 00 00 00 41 0e 08 41 0e 0c 41 0e 10 41 0e 
0001ae88	14 43 0e 40 86 05 87 04 83 03 84 02 10 00 00 00 
0001ae98	a0 0f 00 00 6c e3 ff ff 33 00 00 00 00 00 00 00 
0001aea8	34 00 00 00 b4 0f 00 00 8c e3 ff ff 38 01 00 00 
0001aeb8	00 41 0e 08 41 0e 0c 41 0e 10 41 0e 14 43 0e 20 
0001aec8	86 05 87 04 83 03 84 02 02 fe 0e 24 41 0e 20 5d 
0001aed8	0e 24 41 0e 20 00 00 00 20 00 00 00 ec 0f 00 00 
0001aee8	8c e4 ff ff 72 00 00 00 00 41 0e 08 41 0e 0c 41 
0001aef8	0e 10 43 0e 30 86 04 87 03 83 02 00 18 00 00 00 
0001af08	10 10 00 00 da e4 ff ff 3a 00 00 00 00 41 0e 08 
0001af18	41 0e 0c 86 03 87 02 00 28 00 00 00 2c 10 00 00 
0001af28	f8 e4 ff ff 78 00 00 00 00 41 0e 08 43 0e 10 83 
0001af38	02 5a 0e 14 41 0e 10 44 0e 14 41 0e 10 02 49 0e 
0001af48	14 41 0e 10 10 00 00 00 58 10 00 00 44 e5 ff ff 
0001af58	1b 00 00 00 00 00 00 00 20 00 00 00 6c 10 00 00 
0001af68	4c e5 ff ff 40 00 00 00 00 41 0e 08 41 0e 0c 41 
0001af78	0e 10 43 0e 20 86 04 87 03 83 02 00 10 00 00 00 
0001af88	90 10 00 00 68 e5 ff ff 52 00 00 00 00 43 0e 10 
0001af98	10 00 00 00 a4 10 00 00 a6 e5 ff ff 8c 00 00 00 
0001afa8	00 43 0e 20 2c 00 00 00 b8 10 00 00 1e e6 ff ff 
0001afb8	55 01 00 00 00 41 0e 08 41 0e 0c 41 0e 10 41 0e 
0001afc8	14 43 0e 20 86 05 87 04 83 03 84 02 6f 0e 24 41 
0001afd8	0e 20 00 00 1c 00 00 00 e8 10 00 00 44 e7 ff ff 
0001afe8	3e 00 00 00 00 41 0e 08 41 0e 0c 41 0e 10 86 03 
0001aff8	83 02 00 00 18 00 00 00 08 11 00 00 62 e7 ff ff 
0001b008	5e 00 00 00 00 41 0e 08 41 0e 0c 86 03 87 02 00 
0001b018	20 00 00 00 24 11 00 00 a4 e7 ff ff 3d 00 00 00 
0001b028	00 41 0e 08 41 0e 0c 86 03 87 02 6d 0e 10 41 0e 
0001b038	0c 00 00 00 1c 00 00 00 48 11 00 00 be e7 ff ff 
0001b048	58 00 00 00 00 41 0e 08 41 0e 0c 41 0e 10 86 03 
0001b058	87 02 00 00 18 00 00 00 68 11 00 00 f6 e7 ff ff 
0001b068	76 00 00 00 00 41 0e 08 43 0e 10 86 02 00 00 00 
/AppleInternal/BuildRoot/Library/Caches/com.apple.xbs/Binaries/AppleIntelGuCFramework/install/TempContent/Objects/GuC/clang/release/tgl/obj/GuC.bin.core:
Contents of (.img_header,?) section
0001b080	80 c0 00 00 80 00 00 0a 56 45 52 3a 30 31 2e 30 
0001b090	31 2e 30 30 2e 38 30 38 36 00 00 00 77 77 77 77 
0001b0a0	41 70 70 6c 65 20 6d 69 61 4f 53 00 00 00 00 00 
0001b0b0	00 00 00 00 00 00 00 00 00 00 00 00 00 00 00 00 
